
image_provider_test_int8.elf:     file format elf32-littlearm

Sections:
Idx Name          Size      VMA       LMA       File off  Algn
  0 .boot2        00000100  10000000  10000000  00010000  2**0
                  CONTENTS, ALLOC, LOAD, READONLY, CODE
  1 .text         00008e88  10000100  10000100  00010100  2**3
                  CONTENTS, ALLOC, LOAD, READONLY, CODE
  2 .rodata       0000256c  10008f88  10008f88  00018f88  2**3
                  CONTENTS, ALLOC, LOAD, READONLY, DATA
  3 .ARM.exidx    00000008  1000b4f4  1000b4f4  0001b4f4  2**2
                  CONTENTS, ALLOC, LOAD, READONLY, DATA
  4 .binary_info  00000020  1000b4fc  1000b4fc  0001b4fc  2**2
                  CONTENTS, ALLOC, LOAD, DATA
  5 .ram_vector_table 000000c0  20000000  20000000  00020c10  2**2
                  CONTENTS
  6 .data         00000b50  200000c0  1000b51c  000200c0  2**4
                  CONTENTS, ALLOC, LOAD, CODE
  7 .uninitialized_data 00000000  20000c10  20000c10  00020cd0  2**0
                  CONTENTS
  8 .scratch_x    00000000  20040000  20040000  00020cd0  2**0
                  CONTENTS
  9 .scratch_y    00000000  20041000  20041000  00020cd0  2**0
                  CONTENTS
 10 .bss          00000ddc  20000c10  20000c10  00020c10  2**3
                  ALLOC
 11 .heap         00000800  200019ec  200019ec  00020cd0  2**2
                  CONTENTS, READONLY
 12 .stack_dummy  00000800  20041000  20041000  000214e0  2**5
                  CONTENTS, READONLY
 13 .ARM.attributes 00000028  00000000  00000000  00021ce0  2**0
                  CONTENTS, READONLY
 14 .comment      000000ae  00000000  00000000  00021d08  2**0
                  CONTENTS, READONLY
 15 .debug_info   000083f6  00000000  00000000  00021db6  2**0
                  CONTENTS, READONLY, DEBUGGING
 16 .debug_abbrev 00001c12  00000000  00000000  0002a1ac  2**0
                  CONTENTS, READONLY, DEBUGGING
 17 .debug_loc    00001b89  00000000  00000000  0002bdbe  2**0
                  CONTENTS, READONLY, DEBUGGING
 18 .debug_aranges 000001b0  00000000  00000000  0002d948  2**3
                  CONTENTS, READONLY, DEBUGGING
 19 .debug_ranges 000000e8  00000000  00000000  0002daf8  2**0
                  CONTENTS, READONLY, DEBUGGING
 20 .debug_line   000012fb  00000000  00000000  0002dbe0  2**0
                  CONTENTS, READONLY, DEBUGGING
 21 .debug_str    000017ff  00000000  00000000  0002eedb  2**0
                  CONTENTS, READONLY, DEBUGGING
 22 .debug_frame  000002d0  00000000  00000000  000306dc  2**2
                  CONTENTS, READONLY, DEBUGGING
 23 .stabstr      0000014f  00000000  00000000  000309ac  2**0
                  CONTENTS, READONLY, DEBUGGING

image_provider_test_int8.elf:     file format elf32-littlearm


Disassembly of section .boot2:

10000000 <__boot2_start__>:
10000000:	4b32b500 	.word	0x4b32b500
10000004:	60582021 	.word	0x60582021
10000008:	21026898 	.word	0x21026898
1000000c:	60984388 	.word	0x60984388
10000010:	611860d8 	.word	0x611860d8
10000014:	4b2e6158 	.word	0x4b2e6158
10000018:	60992100 	.word	0x60992100
1000001c:	61592102 	.word	0x61592102
10000020:	22f02101 	.word	0x22f02101
10000024:	492b5099 	.word	0x492b5099
10000028:	21016019 	.word	0x21016019
1000002c:	20356099 	.word	0x20356099
10000030:	f844f000 	.word	0xf844f000
10000034:	42902202 	.word	0x42902202
10000038:	2106d014 	.word	0x2106d014
1000003c:	f0006619 	.word	0xf0006619
10000040:	6e19f834 	.word	0x6e19f834
10000044:	66192101 	.word	0x66192101
10000048:	66182000 	.word	0x66182000
1000004c:	f000661a 	.word	0xf000661a
10000050:	6e19f82c 	.word	0x6e19f82c
10000054:	6e196e19 	.word	0x6e196e19
10000058:	f0002005 	.word	0xf0002005
1000005c:	2101f82f 	.word	0x2101f82f
10000060:	d1f94208 	.word	0xd1f94208
10000064:	60992100 	.word	0x60992100
10000068:	6019491b 	.word	0x6019491b
1000006c:	60592100 	.word	0x60592100
10000070:	481b491a 	.word	0x481b491a
10000074:	21016001 	.word	0x21016001
10000078:	21eb6099 	.word	0x21eb6099
1000007c:	21a06619 	.word	0x21a06619
10000080:	f0006619 	.word	0xf0006619
10000084:	2100f812 	.word	0x2100f812
10000088:	49166099 	.word	0x49166099
1000008c:	60014814 	.word	0x60014814
10000090:	60992101 	.word	0x60992101
10000094:	2800bc01 	.word	0x2800bc01
10000098:	4700d000 	.word	0x4700d000
1000009c:	49134812 	.word	0x49134812
100000a0:	c8036008 	.word	0xc8036008
100000a4:	8808f380 	.word	0x8808f380
100000a8:	b5034708 	.word	0xb5034708
100000ac:	20046a99 	.word	0x20046a99
100000b0:	d0fb4201 	.word	0xd0fb4201
100000b4:	42012001 	.word	0x42012001
100000b8:	bd03d1f8 	.word	0xbd03d1f8
100000bc:	6618b502 	.word	0x6618b502
100000c0:	f7ff6618 	.word	0xf7ff6618
100000c4:	6e18fff2 	.word	0x6e18fff2
100000c8:	bd026e18 	.word	0xbd026e18
100000cc:	40020000 	.word	0x40020000
100000d0:	18000000 	.word	0x18000000
100000d4:	00070000 	.word	0x00070000
100000d8:	005f0300 	.word	0x005f0300
100000dc:	00002221 	.word	0x00002221
100000e0:	180000f4 	.word	0x180000f4
100000e4:	a0002022 	.word	0xa0002022
100000e8:	10000100 	.word	0x10000100
100000ec:	e000ed08 	.word	0xe000ed08
	...
100000fc:	7a4eb274 	.word	0x7a4eb274

Disassembly of section .text:

10000100 <__logical_binary_start>:
10000100:	20042000 	.word	0x20042000
10000104:	100001f7 	.word	0x100001f7
10000108:	100001c3 	.word	0x100001c3
1000010c:	100001c5 	.word	0x100001c5
10000110:	100001c1 	.word	0x100001c1
10000114:	100001c1 	.word	0x100001c1
10000118:	100001c1 	.word	0x100001c1
1000011c:	100001c1 	.word	0x100001c1
10000120:	100001c1 	.word	0x100001c1
10000124:	100001c1 	.word	0x100001c1
10000128:	100001c1 	.word	0x100001c1
1000012c:	100001c7 	.word	0x100001c7
10000130:	100001c1 	.word	0x100001c1
10000134:	100001c1 	.word	0x100001c1
10000138:	100001c9 	.word	0x100001c9
1000013c:	100001cb 	.word	0x100001cb
10000140:	100001cd 	.word	0x100001cd
10000144:	100001cd 	.word	0x100001cd
10000148:	100001cd 	.word	0x100001cd
1000014c:	100001cd 	.word	0x100001cd
10000150:	100001cd 	.word	0x100001cd
10000154:	100001cd 	.word	0x100001cd
10000158:	100001cd 	.word	0x100001cd
1000015c:	100001cd 	.word	0x100001cd
10000160:	100001cd 	.word	0x100001cd
10000164:	100001cd 	.word	0x100001cd
10000168:	100001cd 	.word	0x100001cd
1000016c:	100001cd 	.word	0x100001cd
10000170:	100001cd 	.word	0x100001cd
10000174:	100001cd 	.word	0x100001cd
10000178:	100001cd 	.word	0x100001cd
1000017c:	100001cd 	.word	0x100001cd
10000180:	100001cd 	.word	0x100001cd
10000184:	100001cd 	.word	0x100001cd
10000188:	100001cd 	.word	0x100001cd
1000018c:	100001cd 	.word	0x100001cd
10000190:	100001cd 	.word	0x100001cd
10000194:	100001cd 	.word	0x100001cd
10000198:	100001cd 	.word	0x100001cd
1000019c:	100001cd 	.word	0x100001cd
100001a0:	100001cd 	.word	0x100001cd
100001a4:	100001cd 	.word	0x100001cd
100001a8:	100001cd 	.word	0x100001cd
100001ac:	100001cd 	.word	0x100001cd
100001b0:	100001cd 	.word	0x100001cd
100001b4:	100001cd 	.word	0x100001cd
100001b8:	100001cd 	.word	0x100001cd
100001bc:	100001cd 	.word	0x100001cd

100001c0 <isr_invalid>:
100001c0:	be00      	bkpt	0x0000

100001c2 <isr_nmi>:
100001c2:	be00      	bkpt	0x0000

100001c4 <isr_hardfault>:
100001c4:	be00      	bkpt	0x0000

100001c6 <isr_svcall>:
100001c6:	be00      	bkpt	0x0000

100001c8 <isr_pendsv>:
100001c8:	be00      	bkpt	0x0000

100001ca <isr_systick>:
100001ca:	be00      	bkpt	0x0000

100001cc <__unhandled_user_irq>:
100001cc:	f000 f84b 	bl	10000266 <__get_current_exception>
100001d0:	3810      	subs	r0, #16

100001d2 <unhandled_user_irq_num_in_r0>:
100001d2:	be00      	bkpt	0x0000

100001d4 <binary_info_header>:
100001d4:	7188ebf2 	.word	0x7188ebf2
100001d8:	1000b4fc 	.word	0x1000b4fc
100001dc:	1000b51c 	.word	0x1000b51c
100001e0:	10000234 	.word	0x10000234
100001e4:	e71aa390 	.word	0xe71aa390

100001e8 <_entry_point>:
100001e8:	2000      	movs	r0, #0
100001ea:	4921      	ldr	r1, [pc, #132]	; (10000270 <__get_current_exception+0xa>)
100001ec:	6008      	str	r0, [r1, #0]
100001ee:	c806      	ldmia	r0!, {r1, r2}
100001f0:	f381 8808 	msr	MSP, r1
100001f4:	4710      	bx	r2

100001f6 <_reset_handler>:
100001f6:	481f      	ldr	r0, [pc, #124]	; (10000274 <__get_current_exception+0xe>)
100001f8:	6800      	ldr	r0, [r0, #0]
100001fa:	2800      	cmp	r0, #0
100001fc:	d12f      	bne.n	1000025e <hold_non_core0_in_bootrom>
100001fe:	a40d      	add	r4, pc, #52	; (adr r4, 10000234 <data_cpy_table>)
10000200:	cc0e      	ldmia	r4!, {r1, r2, r3}
10000202:	2900      	cmp	r1, #0
10000204:	d002      	beq.n	1000020c <_reset_handler+0x16>
10000206:	f000 f812 	bl	1000022e <data_cpy>
1000020a:	e7f9      	b.n	10000200 <_reset_handler+0xa>
1000020c:	491a      	ldr	r1, [pc, #104]	; (10000278 <__get_current_exception+0x12>)
1000020e:	4a1b      	ldr	r2, [pc, #108]	; (1000027c <__get_current_exception+0x16>)
10000210:	2000      	movs	r0, #0
10000212:	e000      	b.n	10000216 <bss_fill_test>

10000214 <bss_fill_loop>:
10000214:	c101      	stmia	r1!, {r0}

10000216 <bss_fill_test>:
10000216:	4291      	cmp	r1, r2
10000218:	d1fc      	bne.n	10000214 <bss_fill_loop>

1000021a <platform_entry>:
1000021a:	4919      	ldr	r1, [pc, #100]	; (10000280 <__get_current_exception+0x1a>)
1000021c:	4788      	blx	r1
1000021e:	4919      	ldr	r1, [pc, #100]	; (10000284 <__get_current_exception+0x1e>)
10000220:	4788      	blx	r1
10000222:	4919      	ldr	r1, [pc, #100]	; (10000288 <__get_current_exception+0x22>)
10000224:	4788      	blx	r1
10000226:	be00      	bkpt	0x0000
10000228:	e7fd      	b.n	10000226 <platform_entry+0xc>

1000022a <data_cpy_loop>:
1000022a:	c901      	ldmia	r1!, {r0}
1000022c:	c201      	stmia	r2!, {r0}

1000022e <data_cpy>:
1000022e:	429a      	cmp	r2, r3
10000230:	d3fb      	bcc.n	1000022a <data_cpy_loop>
10000232:	4770      	bx	lr

10000234 <data_cpy_table>:
10000234:	1000b51c 	.word	0x1000b51c
10000238:	200000c0 	.word	0x200000c0
1000023c:	20000c10 	.word	0x20000c10
10000240:	1000c06c 	.word	0x1000c06c
10000244:	20040000 	.word	0x20040000
10000248:	20040000 	.word	0x20040000
1000024c:	1000c06c 	.word	0x1000c06c
10000250:	20041000 	.word	0x20041000
10000254:	20041000 	.word	0x20041000
10000258:	00000000 	.word	0x00000000
1000025c:	4770      	bx	lr

1000025e <hold_non_core0_in_bootrom>:
1000025e:	480b      	ldr	r0, [pc, #44]	; (1000028c <__get_current_exception+0x26>)
10000260:	f004 f952 	bl	10004508 <rom_func_lookup>
10000264:	4700      	bx	r0

10000266 <__get_current_exception>:
10000266:	f3ef 8005 	mrs	r0, IPSR
1000026a:	b2c0      	uxtb	r0, r0
1000026c:	4770      	bx	lr
1000026e:	0000      	.short	0x0000
10000270:	e000ed08 	.word	0xe000ed08
10000274:	d0000000 	.word	0xd0000000
10000278:	20000c10 	.word	0x20000c10
1000027c:	200019ec 	.word	0x200019ec
10000280:	10001f29 	.word	0x10001f29
10000284:	10000525 	.word	0x10000525
10000288:	10002049 	.word	0x10002049
1000028c:	00005657 	.word	0x00005657

10000290 <__bi_46>:
10000290:	50520006 5360b3ab 100093f8              ..RP..`S....

1000029c <__bi_34>:
1000029c:	50520006 02031c86 10009408              ..RP........

100002a8 <__bi_26>:
100002a8:	50520006 9da22254 10009424              ..RPT"..$...

100002b4 <__bi_18>:
100002b4:	50520005 68f465de 1000c06c              ..RP.e.hl...

100002c0 <_init>:
100002c0:	b5f8      	push	{r3, r4, r5, r6, r7, lr}
100002c2:	46c0      	nop			; (mov r8, r8)

100002c4 <deregister_tm_clones>:
100002c4:	4804      	ldr	r0, [pc, #16]	; (100002d8 <deregister_tm_clones+0x14>)
100002c6:	4b05      	ldr	r3, [pc, #20]	; (100002dc <deregister_tm_clones+0x18>)
100002c8:	b510      	push	{r4, lr}
100002ca:	4283      	cmp	r3, r0
100002cc:	d003      	beq.n	100002d6 <deregister_tm_clones+0x12>
100002ce:	4b04      	ldr	r3, [pc, #16]	; (100002e0 <deregister_tm_clones+0x1c>)
100002d0:	2b00      	cmp	r3, #0
100002d2:	d000      	beq.n	100002d6 <deregister_tm_clones+0x12>
100002d4:	4798      	blx	r3
100002d6:	bd10      	pop	{r4, pc}
100002d8:	20000c10 	.word	0x20000c10
100002dc:	20000c10 	.word	0x20000c10
100002e0:	00000000 	.word	0x00000000

100002e4 <register_tm_clones>:
100002e4:	4806      	ldr	r0, [pc, #24]	; (10000300 <register_tm_clones+0x1c>)
100002e6:	4907      	ldr	r1, [pc, #28]	; (10000304 <register_tm_clones+0x20>)
100002e8:	1a09      	subs	r1, r1, r0
100002ea:	1089      	asrs	r1, r1, #2
100002ec:	0fcb      	lsrs	r3, r1, #31
100002ee:	1859      	adds	r1, r3, r1
100002f0:	b510      	push	{r4, lr}
100002f2:	1049      	asrs	r1, r1, #1
100002f4:	d003      	beq.n	100002fe <register_tm_clones+0x1a>
100002f6:	4b04      	ldr	r3, [pc, #16]	; (10000308 <register_tm_clones+0x24>)
100002f8:	2b00      	cmp	r3, #0
100002fa:	d000      	beq.n	100002fe <register_tm_clones+0x1a>
100002fc:	4798      	blx	r3
100002fe:	bd10      	pop	{r4, pc}
10000300:	20000c10 	.word	0x20000c10
10000304:	20000c10 	.word	0x20000c10
10000308:	00000000 	.word	0x00000000

1000030c <__do_global_dtors_aux>:
1000030c:	b510      	push	{r4, lr}
1000030e:	4c07      	ldr	r4, [pc, #28]	; (1000032c <__do_global_dtors_aux+0x20>)
10000310:	7823      	ldrb	r3, [r4, #0]
10000312:	2b00      	cmp	r3, #0
10000314:	d109      	bne.n	1000032a <__do_global_dtors_aux+0x1e>
10000316:	f7ff ffd5 	bl	100002c4 <deregister_tm_clones>
1000031a:	4b05      	ldr	r3, [pc, #20]	; (10000330 <__do_global_dtors_aux+0x24>)
1000031c:	2b00      	cmp	r3, #0
1000031e:	d002      	beq.n	10000326 <__do_global_dtors_aux+0x1a>
10000320:	4804      	ldr	r0, [pc, #16]	; (10000334 <__do_global_dtors_aux+0x28>)
10000322:	e000      	b.n	10000326 <__do_global_dtors_aux+0x1a>
10000324:	bf00      	nop
10000326:	2301      	movs	r3, #1
10000328:	7023      	strb	r3, [r4, #0]
1000032a:	bd10      	pop	{r4, pc}
1000032c:	20000c18 	.word	0x20000c18
10000330:	00000000 	.word	0x00000000
10000334:	10008f88 	.word	0x10008f88

10000338 <frame_dummy>:
10000338:	4b05      	ldr	r3, [pc, #20]	; (10000350 <frame_dummy+0x18>)
1000033a:	b510      	push	{r4, lr}
1000033c:	2b00      	cmp	r3, #0
1000033e:	d003      	beq.n	10000348 <frame_dummy+0x10>
10000340:	4904      	ldr	r1, [pc, #16]	; (10000354 <frame_dummy+0x1c>)
10000342:	4805      	ldr	r0, [pc, #20]	; (10000358 <frame_dummy+0x20>)
10000344:	e000      	b.n	10000348 <frame_dummy+0x10>
10000346:	bf00      	nop
10000348:	f7ff ffcc 	bl	100002e4 <register_tm_clones>
1000034c:	bd10      	pop	{r4, pc}
1000034e:	46c0      	nop			; (mov r8, r8)
10000350:	00000000 	.word	0x00000000
10000354:	20000c1c 	.word	0x20000c1c
10000358:	10008f88 	.word	0x10008f88

1000035c <_Z8GetImagePN6tflite13ErrorReporterEiiiPa>:
1000035c:	b5f0      	push	{r4, r5, r6, r7, lr}
1000035e:	4657      	mov	r7, sl
10000360:	464e      	mov	r6, r9
10000362:	4645      	mov	r5, r8
10000364:	46de      	mov	lr, fp
10000366:	b5e0      	push	{r5, r6, r7, lr}
10000368:	4698      	mov	r8, r3
1000036a:	4b65      	ldr	r3, [pc, #404]	; (10000500 <_Z8GetImagePN6tflite13ErrorReporterEiiiPa+0x1a4>)
1000036c:	b083      	sub	sp, #12
1000036e:	469a      	mov	sl, r3
10000370:	781b      	ldrb	r3, [r3, #0]
10000372:	0006      	movs	r6, r0
10000374:	4689      	mov	r9, r1
10000376:	0014      	movs	r4, r2
10000378:	9f0c      	ldr	r7, [sp, #48]	; 0x30
1000037a:	2b00      	cmp	r3, #0
1000037c:	d013      	beq.n	100003a6 <_Z8GetImagePN6tflite13ErrorReporterEiiiPa+0x4a>
1000037e:	4d61      	ldr	r5, [pc, #388]	; (10000504 <_Z8GetImagePN6tflite13ErrorReporterEiiiPa+0x1a8>)
10000380:	686b      	ldr	r3, [r5, #4]
10000382:	4798      	blx	r3
10000384:	68ab      	ldr	r3, [r5, #8]
10000386:	4798      	blx	r3
10000388:	2800      	cmp	r0, #0
1000038a:	d000      	beq.n	1000038e <_Z8GetImagePN6tflite13ErrorReporterEiiiPa+0x32>
1000038c:	e0ac      	b.n	100004e8 <_Z8GetImagePN6tflite13ErrorReporterEiiiPa+0x18c>
1000038e:	68eb      	ldr	r3, [r5, #12]
10000390:	4798      	blx	r3
10000392:	4683      	mov	fp, r0
10000394:	2800      	cmp	r0, #0
10000396:	d000      	beq.n	1000039a <_Z8GetImagePN6tflite13ErrorReporterEiiiPa+0x3e>
10000398:	e0ac      	b.n	100004f4 <_Z8GetImagePN6tflite13ErrorReporterEiiiPa+0x198>
1000039a:	692b      	ldr	r3, [r5, #16]
1000039c:	2002      	movs	r0, #2
1000039e:	4798      	blx	r3
100003a0:	4653      	mov	r3, sl
100003a2:	465a      	mov	r2, fp
100003a4:	701a      	strb	r2, [r3, #0]
100003a6:	f000 fbfd 	bl	10000ba4 <_ZN6tflite16ticks_per_secondEv>
100003aa:	2800      	cmp	r0, #0
100003ac:	d100      	bne.n	100003b0 <_Z8GetImagePN6tflite13ErrorReporterEiiiPa+0x54>
100003ae:	e08b      	b.n	100004c8 <_Z8GetImagePN6tflite13ErrorReporterEiiiPa+0x16c>
100003b0:	f000 fbfc 	bl	10000bac <_ZN6tflite19GetCurrentTimeTicksEv>
100003b4:	0005      	movs	r5, r0
100003b6:	0038      	movs	r0, r7
100003b8:	f008 f85e 	bl	10008478 <capture>
100003bc:	f000 fbf6 	bl	10000bac <_ZN6tflite19GetCurrentTimeTicksEv>
100003c0:	4b51      	ldr	r3, [pc, #324]	; (10000508 <_Z8GetImagePN6tflite13ErrorReporterEiiiPa+0x1ac>)
100003c2:	1b45      	subs	r5, r0, r5
100003c4:	429d      	cmp	r5, r3
100003c6:	dd00      	ble.n	100003ca <_Z8GetImagePN6tflite13ErrorReporterEiiiPa+0x6e>
100003c8:	e073      	b.n	100004b2 <_Z8GetImagePN6tflite13ErrorReporterEiiiPa+0x156>
100003ca:	f000 fbeb 	bl	10000ba4 <_ZN6tflite16ticks_per_secondEv>
100003ce:	016b      	lsls	r3, r5, #5
100003d0:	1b5b      	subs	r3, r3, r5
100003d2:	009b      	lsls	r3, r3, #2
100003d4:	195b      	adds	r3, r3, r5
100003d6:	0001      	movs	r1, r0
100003d8:	00d8      	lsls	r0, r3, #3
100003da:	f004 f8c3 	bl	10004564 <__wrap___aeabi_idiv>
100003de:	9000      	str	r0, [sp, #0]
100003e0:	002b      	movs	r3, r5
100003e2:	4a4a      	ldr	r2, [pc, #296]	; (1000050c <_Z8GetImagePN6tflite13ErrorReporterEiiiPa+0x1b0>)
100003e4:	494a      	ldr	r1, [pc, #296]	; (10000510 <_Z8GetImagePN6tflite13ErrorReporterEiiiPa+0x1b4>)
100003e6:	0030      	movs	r0, r6
100003e8:	f000 f91a 	bl	10000620 <_ZN6tflite13ErrorReporter6ReportEPKcz>
100003ec:	464b      	mov	r3, r9
100003ee:	4642      	mov	r2, r8
100003f0:	4363      	muls	r3, r4
100003f2:	435a      	muls	r2, r3
100003f4:	1e13      	subs	r3, r2, #0
100003f6:	dd54      	ble.n	100004a2 <_Z8GetImagePN6tflite13ErrorReporterEiiiPa+0x146>
100003f8:	2503      	movs	r5, #3
100003fa:	427a      	negs	r2, r7
100003fc:	4015      	ands	r5, r2
100003fe:	1ce9      	adds	r1, r5, #3
10000400:	1e5a      	subs	r2, r3, #1
10000402:	428a      	cmp	r2, r1
10000404:	d36e      	bcc.n	100004e4 <_Z8GetImagePN6tflite13ErrorReporterEiiiPa+0x188>
10000406:	2d00      	cmp	r5, #0
10000408:	d063      	beq.n	100004d2 <_Z8GetImagePN6tflite13ErrorReporterEiiiPa+0x176>
1000040a:	783a      	ldrb	r2, [r7, #0]
1000040c:	3a80      	subs	r2, #128	; 0x80
1000040e:	703a      	strb	r2, [r7, #0]
10000410:	2d01      	cmp	r5, #1
10000412:	d061      	beq.n	100004d8 <_Z8GetImagePN6tflite13ErrorReporterEiiiPa+0x17c>
10000414:	787a      	ldrb	r2, [r7, #1]
10000416:	3a80      	subs	r2, #128	; 0x80
10000418:	707a      	strb	r2, [r7, #1]
1000041a:	2d02      	cmp	r5, #2
1000041c:	d05f      	beq.n	100004de <_Z8GetImagePN6tflite13ErrorReporterEiiiPa+0x182>
1000041e:	78ba      	ldrb	r2, [r7, #2]
10000420:	3a80      	subs	r2, #128	; 0x80
10000422:	70ba      	strb	r2, [r7, #2]
10000424:	2203      	movs	r2, #3
10000426:	4690      	mov	r8, r2
10000428:	2000      	movs	r0, #0
1000042a:	2600      	movs	r6, #0
1000042c:	1b5a      	subs	r2, r3, r5
1000042e:	4939      	ldr	r1, [pc, #228]	; (10000514 <_Z8GetImagePN6tflite13ErrorReporterEiiiPa+0x1b8>)
10000430:	4694      	mov	ip, r2
10000432:	197d      	adds	r5, r7, r5
10000434:	0892      	lsrs	r2, r2, #2
10000436:	582c      	ldr	r4, [r5, r0]
10000438:	3601      	adds	r6, #1
1000043a:	404c      	eors	r4, r1
1000043c:	502c      	str	r4, [r5, r0]
1000043e:	3004      	adds	r0, #4
10000440:	4296      	cmp	r6, r2
10000442:	d3f8      	bcc.n	10000436 <_Z8GetImagePN6tflite13ErrorReporterEiiiPa+0xda>
10000444:	2103      	movs	r1, #3
10000446:	4662      	mov	r2, ip
10000448:	438a      	bics	r2, r1
1000044a:	0011      	movs	r1, r2
1000044c:	4642      	mov	r2, r8
1000044e:	188a      	adds	r2, r1, r2
10000450:	458c      	cmp	ip, r1
10000452:	d026      	beq.n	100004a2 <_Z8GetImagePN6tflite13ErrorReporterEiiiPa+0x146>
10000454:	18b8      	adds	r0, r7, r2
10000456:	7801      	ldrb	r1, [r0, #0]
10000458:	3980      	subs	r1, #128	; 0x80
1000045a:	7001      	strb	r1, [r0, #0]
1000045c:	1c51      	adds	r1, r2, #1
1000045e:	4299      	cmp	r1, r3
10000460:	da1f      	bge.n	100004a2 <_Z8GetImagePN6tflite13ErrorReporterEiiiPa+0x146>
10000462:	1879      	adds	r1, r7, r1
10000464:	7808      	ldrb	r0, [r1, #0]
10000466:	3880      	subs	r0, #128	; 0x80
10000468:	7008      	strb	r0, [r1, #0]
1000046a:	1c91      	adds	r1, r2, #2
1000046c:	428b      	cmp	r3, r1
1000046e:	dd18      	ble.n	100004a2 <_Z8GetImagePN6tflite13ErrorReporterEiiiPa+0x146>
10000470:	1879      	adds	r1, r7, r1
10000472:	7808      	ldrb	r0, [r1, #0]
10000474:	3880      	subs	r0, #128	; 0x80
10000476:	7008      	strb	r0, [r1, #0]
10000478:	1cd1      	adds	r1, r2, #3
1000047a:	428b      	cmp	r3, r1
1000047c:	dd11      	ble.n	100004a2 <_Z8GetImagePN6tflite13ErrorReporterEiiiPa+0x146>
1000047e:	1879      	adds	r1, r7, r1
10000480:	7808      	ldrb	r0, [r1, #0]
10000482:	3880      	subs	r0, #128	; 0x80
10000484:	7008      	strb	r0, [r1, #0]
10000486:	1d11      	adds	r1, r2, #4
10000488:	428b      	cmp	r3, r1
1000048a:	dd0a      	ble.n	100004a2 <_Z8GetImagePN6tflite13ErrorReporterEiiiPa+0x146>
1000048c:	1879      	adds	r1, r7, r1
1000048e:	7808      	ldrb	r0, [r1, #0]
10000490:	3205      	adds	r2, #5
10000492:	3880      	subs	r0, #128	; 0x80
10000494:	7008      	strb	r0, [r1, #0]
10000496:	4293      	cmp	r3, r2
10000498:	dd03      	ble.n	100004a2 <_Z8GetImagePN6tflite13ErrorReporterEiiiPa+0x146>
1000049a:	18bf      	adds	r7, r7, r2
1000049c:	783b      	ldrb	r3, [r7, #0]
1000049e:	3b80      	subs	r3, #128	; 0x80
100004a0:	703b      	strb	r3, [r7, #0]
100004a2:	2000      	movs	r0, #0
100004a4:	b003      	add	sp, #12
100004a6:	bc3c      	pop	{r2, r3, r4, r5}
100004a8:	4690      	mov	r8, r2
100004aa:	4699      	mov	r9, r3
100004ac:	46a2      	mov	sl, r4
100004ae:	46ab      	mov	fp, r5
100004b0:	bdf0      	pop	{r4, r5, r6, r7, pc}
100004b2:	f000 fb77 	bl	10000ba4 <_ZN6tflite16ticks_per_secondEv>
100004b6:	21fa      	movs	r1, #250	; 0xfa
100004b8:	0089      	lsls	r1, r1, #2
100004ba:	f004 f853 	bl	10004564 <__wrap___aeabi_idiv>
100004be:	0001      	movs	r1, r0
100004c0:	0028      	movs	r0, r5
100004c2:	f004 f84f 	bl	10004564 <__wrap___aeabi_idiv>
100004c6:	e78a      	b.n	100003de <_Z8GetImagePN6tflite13ErrorReporterEiiiPa+0x82>
100004c8:	4913      	ldr	r1, [pc, #76]	; (10000518 <_Z8GetImagePN6tflite13ErrorReporterEiiiPa+0x1bc>)
100004ca:	0030      	movs	r0, r6
100004cc:	f000 f8a8 	bl	10000620 <_ZN6tflite13ErrorReporter6ReportEPKcz>
100004d0:	e76e      	b.n	100003b0 <_Z8GetImagePN6tflite13ErrorReporterEiiiPa+0x54>
100004d2:	2200      	movs	r2, #0
100004d4:	4690      	mov	r8, r2
100004d6:	e7a7      	b.n	10000428 <_Z8GetImagePN6tflite13ErrorReporterEiiiPa+0xcc>
100004d8:	2201      	movs	r2, #1
100004da:	4690      	mov	r8, r2
100004dc:	e7a4      	b.n	10000428 <_Z8GetImagePN6tflite13ErrorReporterEiiiPa+0xcc>
100004de:	2202      	movs	r2, #2
100004e0:	4690      	mov	r8, r2
100004e2:	e7a1      	b.n	10000428 <_Z8GetImagePN6tflite13ErrorReporterEiiiPa+0xcc>
100004e4:	2200      	movs	r2, #0
100004e6:	e7b5      	b.n	10000454 <_Z8GetImagePN6tflite13ErrorReporterEiiiPa+0xf8>
100004e8:	490c      	ldr	r1, [pc, #48]	; (1000051c <_Z8GetImagePN6tflite13ErrorReporterEiiiPa+0x1c0>)
100004ea:	0030      	movs	r0, r6
100004ec:	f000 f898 	bl	10000620 <_ZN6tflite13ErrorReporter6ReportEPKcz>
100004f0:	2001      	movs	r0, #1
100004f2:	e7d7      	b.n	100004a4 <_Z8GetImagePN6tflite13ErrorReporterEiiiPa+0x148>
100004f4:	490a      	ldr	r1, [pc, #40]	; (10000520 <_Z8GetImagePN6tflite13ErrorReporterEiiiPa+0x1c4>)
100004f6:	0030      	movs	r0, r6
100004f8:	f000 f892 	bl	10000620 <_ZN6tflite13ErrorReporter6ReportEPKcz>
100004fc:	2001      	movs	r0, #1
100004fe:	e7d1      	b.n	100004a4 <_Z8GetImagePN6tflite13ErrorReporterEiiiPa+0x148>
10000500:	200002d8 	.word	0x200002d8
10000504:	20000394 	.word	0x20000394
10000508:	0020c49b 	.word	0x0020c49b
1000050c:	10008fd4 	.word	0x10008fd4
10000510:	10008ff4 	.word	0x10008ff4
10000514:	80808080 	.word	0x80808080
10000518:	10008fb4 	.word	0x10008fb4
1000051c:	10008f88 	.word	0x10008f88
10000520:	10008f9c 	.word	0x10008f9c

10000524 <main>:
10000524:	2300      	movs	r3, #0
10000526:	b5f0      	push	{r4, r5, r6, r7, lr}
10000528:	46d6      	mov	lr, sl
1000052a:	464f      	mov	r7, r9
1000052c:	4646      	mov	r6, r8
1000052e:	4699      	mov	r9, r3
10000530:	b5c0      	push	{r6, r7, lr}
10000532:	4c2d      	ldr	r4, [pc, #180]	; (100005e8 <main+0xc4>)
10000534:	4d2d      	ldr	r5, [pc, #180]	; (100005ec <main+0xc8>)
10000536:	44a5      	add	sp, r4
10000538:	4c2d      	ldr	r4, [pc, #180]	; (100005f0 <main+0xcc>)
1000053a:	602b      	str	r3, [r5, #0]
1000053c:	6023      	str	r3, [r4, #0]
1000053e:	4e2d      	ldr	r6, [pc, #180]	; (100005f4 <main+0xd0>)
10000540:	4b2d      	ldr	r3, [pc, #180]	; (100005f8 <main+0xd4>)
10000542:	a802      	add	r0, sp, #8
10000544:	492d      	ldr	r1, [pc, #180]	; (100005fc <main+0xd8>)
10000546:	469a      	mov	sl, r3
10000548:	9302      	str	r3, [sp, #8]
1000054a:	6030      	str	r0, [r6, #0]
1000054c:	f000 f868 	bl	10000620 <_ZN6tflite13ErrorReporter6ReportEPKcz>
10000550:	464b      	mov	r3, r9
10000552:	464a      	mov	r2, r9
10000554:	4f2a      	ldr	r7, [pc, #168]	; (10000600 <main+0xdc>)
10000556:	2160      	movs	r1, #96	; 0x60
10000558:	703b      	strb	r3, [r7, #0]
1000055a:	4b2a      	ldr	r3, [pc, #168]	; (10000604 <main+0xe0>)
1000055c:	a803      	add	r0, sp, #12
1000055e:	701a      	strb	r2, [r3, #0]
10000560:	4698      	mov	r8, r3
10000562:	4653      	mov	r3, sl
10000564:	9303      	str	r3, [sp, #12]
10000566:	ab04      	add	r3, sp, #16
10000568:	9300      	str	r3, [sp, #0]
1000056a:	3260      	adds	r2, #96	; 0x60
1000056c:	2301      	movs	r3, #1
1000056e:	f7ff fef5 	bl	1000035c <_Z8GetImagePN6tflite13ErrorReporterEiiiPa>
10000572:	2800      	cmp	r0, #0
10000574:	d122      	bne.n	100005bc <main+0x98>
10000576:	4643      	mov	r3, r8
10000578:	2201      	movs	r2, #1
1000057a:	781b      	ldrb	r3, [r3, #0]
1000057c:	703a      	strb	r2, [r7, #0]
1000057e:	682a      	ldr	r2, [r5, #0]
10000580:	2b00      	cmp	r3, #0
10000582:	d12f      	bne.n	100005e4 <main+0xc0>
10000584:	2300      	movs	r3, #0
10000586:	3201      	adds	r2, #1
10000588:	6821      	ldr	r1, [r4, #0]
1000058a:	6830      	ldr	r0, [r6, #0]
1000058c:	468c      	mov	ip, r1
1000058e:	4463      	add	r3, ip
10000590:	6023      	str	r3, [r4, #0]
10000592:	491d      	ldr	r1, [pc, #116]	; (10000608 <main+0xe4>)
10000594:	189b      	adds	r3, r3, r2
10000596:	602a      	str	r2, [r5, #0]
10000598:	f000 f842 	bl	10000620 <_ZN6tflite13ErrorReporter6ReportEPKcz>
1000059c:	6824      	ldr	r4, [r4, #0]
1000059e:	2c00      	cmp	r4, #0
100005a0:	d01b      	beq.n	100005da <main+0xb6>
100005a2:	491a      	ldr	r1, [pc, #104]	; (1000060c <main+0xe8>)
100005a4:	6830      	ldr	r0, [r6, #0]
100005a6:	f000 f83b 	bl	10000620 <_ZN6tflite13ErrorReporter6ReportEPKcz>
100005aa:	2401      	movs	r4, #1
100005ac:	0020      	movs	r0, r4
100005ae:	4b18      	ldr	r3, [pc, #96]	; (10000610 <main+0xec>)
100005b0:	449d      	add	sp, r3
100005b2:	bc1c      	pop	{r2, r3, r4}
100005b4:	4690      	mov	r8, r2
100005b6:	4699      	mov	r9, r3
100005b8:	46a2      	mov	sl, r4
100005ba:	bdf0      	pop	{r4, r5, r6, r7, pc}
100005bc:	464b      	mov	r3, r9
100005be:	9001      	str	r0, [sp, #4]
100005c0:	9300      	str	r3, [sp, #0]
100005c2:	4a14      	ldr	r2, [pc, #80]	; (10000614 <main+0xf0>)
100005c4:	2321      	movs	r3, #33	; 0x21
100005c6:	4914      	ldr	r1, [pc, #80]	; (10000618 <main+0xf4>)
100005c8:	6830      	ldr	r0, [r6, #0]
100005ca:	f000 f829 	bl	10000620 <_ZN6tflite13ErrorReporter6ReportEPKcz>
100005ce:	2301      	movs	r3, #1
100005d0:	4642      	mov	r2, r8
100005d2:	703b      	strb	r3, [r7, #0]
100005d4:	7013      	strb	r3, [r2, #0]
100005d6:	682a      	ldr	r2, [r5, #0]
100005d8:	e7d6      	b.n	10000588 <main+0x64>
100005da:	4910      	ldr	r1, [pc, #64]	; (1000061c <main+0xf8>)
100005dc:	6830      	ldr	r0, [r6, #0]
100005de:	f000 f81f 	bl	10000620 <_ZN6tflite13ErrorReporter6ReportEPKcz>
100005e2:	e7e3      	b.n	100005ac <main+0x88>
100005e4:	2301      	movs	r3, #1
100005e6:	e7cf      	b.n	10000588 <main+0x64>
100005e8:	ffffdbf0 	.word	0xffffdbf0
100005ec:	20000c6c 	.word	0x20000c6c
100005f0:	20000c68 	.word	0x20000c68
100005f4:	20000c70 	.word	0x20000c70
100005f8:	10009114 	.word	0x10009114
100005fc:	10009010 	.word	0x10009010
10000600:	20001719 	.word	0x20001719
10000604:	20001718 	.word	0x20001718
10000608:	100090c0 	.word	0x100090c0
1000060c:	100090ec 	.word	0x100090ec
10000610:	00002410 	.word	0x00002410
10000614:	1000902c 	.word	0x1000902c
10000618:	1000908c 	.word	0x1000908c
1000061c:	100090d4 	.word	0x100090d4

10000620 <_ZN6tflite13ErrorReporter6ReportEPKcz>:
10000620:	b40e      	push	{r1, r2, r3}
10000622:	b500      	push	{lr}
10000624:	b082      	sub	sp, #8
10000626:	aa03      	add	r2, sp, #12
10000628:	ca02      	ldmia	r2!, {r1}
1000062a:	6803      	ldr	r3, [r0, #0]
1000062c:	9201      	str	r2, [sp, #4]
1000062e:	689b      	ldr	r3, [r3, #8]
10000630:	4798      	blx	r3
10000632:	b002      	add	sp, #8
10000634:	bc08      	pop	{r3}
10000636:	b003      	add	sp, #12
10000638:	4718      	bx	r3
1000063a:	46c0      	nop			; (mov r8, r8)

1000063c <_ZN6tflite18MicroErrorReporterD0Ev>:
1000063c:	4770      	bx	lr
1000063e:	46c0      	nop			; (mov r8, r8)

10000640 <_ZN6tflite18MicroErrorReporter6ReportEPKcSt9__va_list>:
10000640:	2080      	movs	r0, #128	; 0x80
10000642:	b500      	push	{lr}
10000644:	b0c1      	sub	sp, #260	; 0x104
10000646:	0013      	movs	r3, r2
10000648:	000a      	movs	r2, r1
1000064a:	0041      	lsls	r1, r0, #1
1000064c:	4668      	mov	r0, sp
1000064e:	f000 f80b 	bl	10000668 <MicroVsnprintf>
10000652:	4668      	mov	r0, sp
10000654:	f000 fa92 	bl	10000b7c <DebugLog>
10000658:	4802      	ldr	r0, [pc, #8]	; (10000664 <_ZN6tflite18MicroErrorReporter6ReportEPKcSt9__va_list+0x24>)
1000065a:	f000 fa8f 	bl	10000b7c <DebugLog>
1000065e:	2000      	movs	r0, #0
10000660:	b041      	add	sp, #260	; 0x104
10000662:	bd00      	pop	{pc}
10000664:	10009108 	.word	0x10009108

10000668 <MicroVsnprintf>:
10000668:	b5f0      	push	{r4, r5, r6, r7, lr}
1000066a:	46de      	mov	lr, fp
1000066c:	4657      	mov	r7, sl
1000066e:	464e      	mov	r6, r9
10000670:	4645      	mov	r5, r8
10000672:	4683      	mov	fp, r0
10000674:	b5e0      	push	{r5, r6, r7, lr}
10000676:	b095      	sub	sp, #84	; 0x54
10000678:	9300      	str	r3, [sp, #0]
1000067a:	000b      	movs	r3, r1
1000067c:	2700      	movs	r7, #0
1000067e:	0014      	movs	r4, r2
10000680:	465d      	mov	r5, fp
10000682:	3b01      	subs	r3, #1
10000684:	4699      	mov	r9, r3
10000686:	7813      	ldrb	r3, [r2, #0]
10000688:	9104      	str	r1, [sp, #16]
1000068a:	2b00      	cmp	r3, #0
1000068c:	d00c      	beq.n	100006a8 <MicroVsnprintf+0x40>
1000068e:	454f      	cmp	r7, r9
10000690:	da0a      	bge.n	100006a8 <MicroVsnprintf+0x40>
10000692:	1c62      	adds	r2, r4, #1
10000694:	2b25      	cmp	r3, #37	; 0x25
10000696:	d011      	beq.n	100006bc <MicroVsnprintf+0x54>
10000698:	702b      	strb	r3, [r5, #0]
1000069a:	7863      	ldrb	r3, [r4, #1]
1000069c:	0014      	movs	r4, r2
1000069e:	465a      	mov	r2, fp
100006a0:	3701      	adds	r7, #1
100006a2:	19d5      	adds	r5, r2, r7
100006a4:	2b00      	cmp	r3, #0
100006a6:	d1f2      	bne.n	1000068e <MicroVsnprintf+0x26>
100006a8:	2300      	movs	r3, #0
100006aa:	1c78      	adds	r0, r7, #1
100006ac:	702b      	strb	r3, [r5, #0]
100006ae:	b015      	add	sp, #84	; 0x54
100006b0:	bc3c      	pop	{r2, r3, r4, r5}
100006b2:	4690      	mov	r8, r2
100006b4:	4699      	mov	r9, r3
100006b6:	46a2      	mov	sl, r4
100006b8:	46ab      	mov	fp, r5
100006ba:	bdf0      	pop	{r4, r5, r6, r7, pc}
100006bc:	7863      	ldrb	r3, [r4, #1]
100006be:	2b66      	cmp	r3, #102	; 0x66
100006c0:	d100      	bne.n	100006c4 <MicroVsnprintf+0x5c>
100006c2:	e0da      	b.n	1000087a <MicroVsnprintf+0x212>
100006c4:	d926      	bls.n	10000714 <MicroVsnprintf+0xac>
100006c6:	2b75      	cmp	r3, #117	; 0x75
100006c8:	d100      	bne.n	100006cc <MicroVsnprintf+0x64>
100006ca:	e0a5      	b.n	10000818 <MicroVsnprintf+0x1b0>
100006cc:	2b78      	cmp	r3, #120	; 0x78
100006ce:	d06b      	beq.n	100007a8 <MicroVsnprintf+0x140>
100006d0:	2b73      	cmp	r3, #115	; 0x73
100006d2:	d001      	beq.n	100006d8 <MicroVsnprintf+0x70>
100006d4:	0014      	movs	r4, r2
100006d6:	e7d8      	b.n	1000068a <MicroVsnprintf+0x22>
100006d8:	9b00      	ldr	r3, [sp, #0]
100006da:	681e      	ldr	r6, [r3, #0]
100006dc:	1d18      	adds	r0, r3, #4
100006de:	7832      	ldrb	r2, [r6, #0]
100006e0:	2a00      	cmp	r2, #0
100006e2:	d013      	beq.n	1000070c <MicroVsnprintf+0xa4>
100006e4:	9b04      	ldr	r3, [sp, #16]
100006e6:	1bf6      	subs	r6, r6, r7
100006e8:	1e99      	subs	r1, r3, #2
100006ea:	1bc9      	subs	r1, r1, r7
100006ec:	0849      	lsrs	r1, r1, #1
100006ee:	1c7b      	adds	r3, r7, #1
100006f0:	18c9      	adds	r1, r1, r3
100006f2:	e005      	b.n	10000700 <MicroVsnprintf+0x98>
100006f4:	5cf2      	ldrb	r2, [r6, r3]
100006f6:	3501      	adds	r5, #1
100006f8:	2a00      	cmp	r2, #0
100006fa:	d100      	bne.n	100006fe <MicroVsnprintf+0x96>
100006fc:	e1d4      	b.n	10000aa8 <MicroVsnprintf+0x440>
100006fe:	3301      	adds	r3, #1
10000700:	001f      	movs	r7, r3
10000702:	702a      	strb	r2, [r5, #0]
10000704:	428b      	cmp	r3, r1
10000706:	d1f5      	bne.n	100006f4 <MicroVsnprintf+0x8c>
10000708:	4459      	add	r1, fp
1000070a:	000d      	movs	r5, r1
1000070c:	78a3      	ldrb	r3, [r4, #2]
1000070e:	9000      	str	r0, [sp, #0]
10000710:	3402      	adds	r4, #2
10000712:	e7ba      	b.n	1000068a <MicroVsnprintf+0x22>
10000714:	2b25      	cmp	r3, #37	; 0x25
10000716:	d040      	beq.n	1000079a <MicroVsnprintf+0x132>
10000718:	2b64      	cmp	r3, #100	; 0x64
1000071a:	d1db      	bne.n	100006d4 <MicroVsnprintf+0x6c>
1000071c:	464b      	mov	r3, r9
1000071e:	1bdb      	subs	r3, r3, r7
10000720:	2b0a      	cmp	r3, #10
10000722:	ddc1      	ble.n	100006a8 <MicroVsnprintf+0x40>
10000724:	9b00      	ldr	r3, [sp, #0]
10000726:	46a8      	mov	r8, r5
10000728:	1d1a      	adds	r2, r3, #4
1000072a:	681b      	ldr	r3, [r3, #0]
1000072c:	9200      	str	r2, [sp, #0]
1000072e:	469a      	mov	sl, r3
10000730:	2b00      	cmp	r3, #0
10000732:	da06      	bge.n	10000742 <MicroVsnprintf+0xda>
10000734:	1c6b      	adds	r3, r5, #1
10000736:	4698      	mov	r8, r3
10000738:	232d      	movs	r3, #45	; 0x2d
1000073a:	702b      	strb	r3, [r5, #0]
1000073c:	4653      	mov	r3, sl
1000073e:	425b      	negs	r3, r3
10000740:	469a      	mov	sl, r3
10000742:	9701      	str	r7, [sp, #4]
10000744:	4646      	mov	r6, r8
10000746:	4657      	mov	r7, sl
10000748:	46a2      	mov	sl, r4
1000074a:	e000      	b.n	1000074e <MicroVsnprintf+0xe6>
1000074c:	0026      	movs	r6, r4
1000074e:	0038      	movs	r0, r7
10000750:	210a      	movs	r1, #10
10000752:	f003 ff33 	bl	100045bc <__wrap___aeabi_uidiv>
10000756:	3130      	adds	r1, #48	; 0x30
10000758:	7031      	strb	r1, [r6, #0]
1000075a:	0038      	movs	r0, r7
1000075c:	210a      	movs	r1, #10
1000075e:	f003 ff2d 	bl	100045bc <__wrap___aeabi_uidiv>
10000762:	1c74      	adds	r4, r6, #1
10000764:	1e07      	subs	r7, r0, #0
10000766:	d1f1      	bne.n	1000074c <MicroVsnprintf+0xe4>
10000768:	0020      	movs	r0, r4
1000076a:	4654      	mov	r4, sl
1000076c:	46ba      	mov	sl, r7
1000076e:	4653      	mov	r3, sl
10000770:	9f01      	ldr	r7, [sp, #4]
10000772:	7073      	strb	r3, [r6, #1]
10000774:	4546      	cmp	r6, r8
10000776:	d908      	bls.n	1000078a <MicroVsnprintf+0x122>
10000778:	4643      	mov	r3, r8
1000077a:	7831      	ldrb	r1, [r6, #0]
1000077c:	781a      	ldrb	r2, [r3, #0]
1000077e:	3e01      	subs	r6, #1
10000780:	7019      	strb	r1, [r3, #0]
10000782:	3301      	adds	r3, #1
10000784:	7072      	strb	r2, [r6, #1]
10000786:	42b3      	cmp	r3, r6
10000788:	d3f7      	bcc.n	1000077a <MicroVsnprintf+0x112>
1000078a:	0003      	movs	r3, r0
1000078c:	465a      	mov	r2, fp
1000078e:	1b5d      	subs	r5, r3, r5
10000790:	197f      	adds	r7, r7, r5
10000792:	78a3      	ldrb	r3, [r4, #2]
10000794:	19d5      	adds	r5, r2, r7
10000796:	3402      	adds	r4, #2
10000798:	e777      	b.n	1000068a <MicroVsnprintf+0x22>
1000079a:	465a      	mov	r2, fp
1000079c:	702b      	strb	r3, [r5, #0]
1000079e:	3701      	adds	r7, #1
100007a0:	78a3      	ldrb	r3, [r4, #2]
100007a2:	19d5      	adds	r5, r2, r7
100007a4:	3402      	adds	r4, #2
100007a6:	e770      	b.n	1000068a <MicroVsnprintf+0x22>
100007a8:	464a      	mov	r2, r9
100007aa:	1c78      	adds	r0, r7, #1
100007ac:	1bd2      	subs	r2, r2, r7
100007ae:	2a09      	cmp	r2, #9
100007b0:	dc00      	bgt.n	100007b4 <MicroVsnprintf+0x14c>
100007b2:	e1ca      	b.n	10000b4a <MicroVsnprintf+0x4e2>
100007b4:	2230      	movs	r2, #48	; 0x30
100007b6:	702a      	strb	r2, [r5, #0]
100007b8:	1cba      	adds	r2, r7, #2
100007ba:	4690      	mov	r8, r2
100007bc:	465a      	mov	r2, fp
100007be:	465e      	mov	r6, fp
100007c0:	5413      	strb	r3, [r2, r0]
100007c2:	9b00      	ldr	r3, [sp, #0]
100007c4:	4446      	add	r6, r8
100007c6:	1d1a      	adds	r2, r3, #4
100007c8:	4694      	mov	ip, r2
100007ca:	270f      	movs	r7, #15
100007cc:	681a      	ldr	r2, [r3, #0]
100007ce:	0033      	movs	r3, r6
100007d0:	e000      	b.n	100007d4 <MicroVsnprintf+0x16c>
100007d2:	000b      	movs	r3, r1
100007d4:	0039      	movs	r1, r7
100007d6:	4011      	ands	r1, r2
100007d8:	b2cd      	uxtb	r5, r1
100007da:	0028      	movs	r0, r5
100007dc:	3057      	adds	r0, #87	; 0x57
100007de:	2909      	cmp	r1, #9
100007e0:	d800      	bhi.n	100007e4 <MicroVsnprintf+0x17c>
100007e2:	3827      	subs	r0, #39	; 0x27
100007e4:	1c59      	adds	r1, r3, #1
100007e6:	7018      	strb	r0, [r3, #0]
100007e8:	0912      	lsrs	r2, r2, #4
100007ea:	d1f2      	bne.n	100007d2 <MicroVsnprintf+0x16a>
100007ec:	705a      	strb	r2, [r3, #1]
100007ee:	429e      	cmp	r6, r3
100007f0:	d208      	bcs.n	10000804 <MicroVsnprintf+0x19c>
100007f2:	0032      	movs	r2, r6
100007f4:	781d      	ldrb	r5, [r3, #0]
100007f6:	7810      	ldrb	r0, [r2, #0]
100007f8:	3b01      	subs	r3, #1
100007fa:	7015      	strb	r5, [r2, #0]
100007fc:	3201      	adds	r2, #1
100007fe:	7058      	strb	r0, [r3, #1]
10000800:	429a      	cmp	r2, r3
10000802:	d3f7      	bcc.n	100007f4 <MicroVsnprintf+0x18c>
10000804:	4662      	mov	r2, ip
10000806:	9200      	str	r2, [sp, #0]
10000808:	465a      	mov	r2, fp
1000080a:	1b89      	subs	r1, r1, r6
1000080c:	4441      	add	r1, r8
1000080e:	78a3      	ldrb	r3, [r4, #2]
10000810:	000f      	movs	r7, r1
10000812:	3402      	adds	r4, #2
10000814:	1855      	adds	r5, r2, r1
10000816:	e738      	b.n	1000068a <MicroVsnprintf+0x22>
10000818:	464b      	mov	r3, r9
1000081a:	1bdb      	subs	r3, r3, r7
1000081c:	2b0a      	cmp	r3, #10
1000081e:	dc00      	bgt.n	10000822 <MicroVsnprintf+0x1ba>
10000820:	e742      	b.n	100006a8 <MicroVsnprintf+0x40>
10000822:	9b00      	ldr	r3, [sp, #0]
10000824:	002e      	movs	r6, r5
10000826:	1d1a      	adds	r2, r3, #4
10000828:	681b      	ldr	r3, [r3, #0]
1000082a:	9200      	str	r2, [sp, #0]
1000082c:	4698      	mov	r8, r3
1000082e:	0023      	movs	r3, r4
10000830:	46aa      	mov	sl, r5
10000832:	4644      	mov	r4, r8
10000834:	4698      	mov	r8, r3
10000836:	e000      	b.n	1000083a <MicroVsnprintf+0x1d2>
10000838:	002e      	movs	r6, r5
1000083a:	0020      	movs	r0, r4
1000083c:	210a      	movs	r1, #10
1000083e:	f003 febd 	bl	100045bc <__wrap___aeabi_uidiv>
10000842:	3130      	adds	r1, #48	; 0x30
10000844:	7031      	strb	r1, [r6, #0]
10000846:	0020      	movs	r0, r4
10000848:	210a      	movs	r1, #10
1000084a:	f003 feb7 	bl	100045bc <__wrap___aeabi_uidiv>
1000084e:	1c75      	adds	r5, r6, #1
10000850:	1e04      	subs	r4, r0, #0
10000852:	d1f1      	bne.n	10000838 <MicroVsnprintf+0x1d0>
10000854:	4652      	mov	r2, sl
10000856:	4643      	mov	r3, r8
10000858:	46aa      	mov	sl, r5
1000085a:	001c      	movs	r4, r3
1000085c:	0015      	movs	r5, r2
1000085e:	7070      	strb	r0, [r6, #1]
10000860:	4296      	cmp	r6, r2
10000862:	d908      	bls.n	10000876 <MicroVsnprintf+0x20e>
10000864:	0013      	movs	r3, r2
10000866:	7831      	ldrb	r1, [r6, #0]
10000868:	781a      	ldrb	r2, [r3, #0]
1000086a:	3e01      	subs	r6, #1
1000086c:	7019      	strb	r1, [r3, #0]
1000086e:	3301      	adds	r3, #1
10000870:	7072      	strb	r2, [r6, #1]
10000872:	42b3      	cmp	r3, r6
10000874:	d3f7      	bcc.n	10000866 <MicroVsnprintf+0x1fe>
10000876:	4653      	mov	r3, sl
10000878:	e788      	b.n	1000078c <MicroVsnprintf+0x124>
1000087a:	464b      	mov	r3, r9
1000087c:	1bd8      	subs	r0, r3, r7
1000087e:	f004 fd41 	bl	10005304 <__wrap___aeabi_i2f>
10000882:	49ba      	ldr	r1, [pc, #744]	; (10000b6c <MicroVsnprintf+0x504>)
10000884:	f004 fd38 	bl	100052f8 <__wrap___aeabi_fcmplt>
10000888:	2800      	cmp	r0, #0
1000088a:	d000      	beq.n	1000088e <MicroVsnprintf+0x226>
1000088c:	e70c      	b.n	100006a8 <MicroVsnprintf+0x40>
1000088e:	2207      	movs	r2, #7
10000890:	9b00      	ldr	r3, [sp, #0]
10000892:	46aa      	mov	sl, r5
10000894:	3307      	adds	r3, #7
10000896:	4393      	bics	r3, r2
10000898:	3201      	adds	r2, #1
1000089a:	4694      	mov	ip, r2
1000089c:	6818      	ldr	r0, [r3, #0]
1000089e:	6859      	ldr	r1, [r3, #4]
100008a0:	449c      	add	ip, r3
100008a2:	4662      	mov	r2, ip
100008a4:	9200      	str	r2, [sp, #0]
100008a6:	222f      	movs	r2, #47	; 0x2f
100008a8:	4694      	mov	ip, r2
100008aa:	44ac      	add	ip, r5
100008ac:	4662      	mov	r2, ip
100008ae:	9203      	str	r2, [sp, #12]
100008b0:	f004 f994 	bl	10004bdc <__wrap___aeabi_d2f>
100008b4:	21ff      	movs	r1, #255	; 0xff
100008b6:	0dc2      	lsrs	r2, r0, #23
100008b8:	4011      	ands	r1, r2
100008ba:	0003      	movs	r3, r0
100008bc:	9106      	str	r1, [sp, #24]
100008be:	0240      	lsls	r0, r0, #9
100008c0:	397f      	subs	r1, #127	; 0x7f
100008c2:	9102      	str	r1, [sp, #8]
100008c4:	0a40      	lsrs	r0, r0, #9
100008c6:	2b00      	cmp	r3, #0
100008c8:	da03      	bge.n	100008d2 <MicroVsnprintf+0x26a>
100008ca:	232d      	movs	r3, #45	; 0x2d
100008cc:	702b      	strb	r3, [r5, #0]
100008ce:	1c6b      	adds	r3, r5, #1
100008d0:	469a      	mov	sl, r3
100008d2:	4653      	mov	r3, sl
100008d4:	2200      	movs	r2, #0
100008d6:	701a      	strb	r2, [r3, #0]
100008d8:	9b02      	ldr	r3, [sp, #8]
100008da:	2b80      	cmp	r3, #128	; 0x80
100008dc:	d100      	bne.n	100008e0 <MicroVsnprintf+0x278>
100008de:	e0e9      	b.n	10000ab4 <MicroVsnprintf+0x44c>
100008e0:	4653      	mov	r3, sl
100008e2:	2231      	movs	r2, #49	; 0x31
100008e4:	701a      	strb	r2, [r3, #0]
100008e6:	222e      	movs	r2, #46	; 0x2e
100008e8:	2100      	movs	r1, #0
100008ea:	705a      	strb	r2, [r3, #1]
100008ec:	4652      	mov	r2, sl
100008ee:	7091      	strb	r1, [r2, #2]
100008f0:	9a03      	ldr	r2, [sp, #12]
100008f2:	3302      	adds	r3, #2
100008f4:	9305      	str	r3, [sp, #20]
100008f6:	9301      	str	r3, [sp, #4]
100008f8:	1ad3      	subs	r3, r2, r3
100008fa:	9307      	str	r3, [sp, #28]
100008fc:	2b07      	cmp	r3, #7
100008fe:	dc00      	bgt.n	10000902 <MicroVsnprintf+0x29a>
10000900:	e0d0      	b.n	10000aa4 <MicroVsnprintf+0x43c>
10000902:	0d83      	lsrs	r3, r0, #22
10000904:	0d46      	lsrs	r6, r0, #21
10000906:	18f6      	adds	r6, r6, r3
10000908:	1836      	adds	r6, r6, r0
1000090a:	0d03      	lsrs	r3, r0, #20
1000090c:	18f6      	adds	r6, r6, r3
1000090e:	0cc3      	lsrs	r3, r0, #19
10000910:	18f6      	adds	r6, r6, r3
10000912:	0c83      	lsrs	r3, r0, #18
10000914:	18f6      	adds	r6, r6, r3
10000916:	0c43      	lsrs	r3, r0, #17
10000918:	18f6      	adds	r6, r6, r3
1000091a:	0b83      	lsrs	r3, r0, #14
1000091c:	18f6      	adds	r6, r6, r3
1000091e:	0b43      	lsrs	r3, r0, #13
10000920:	18f6      	adds	r6, r6, r3
10000922:	0ac3      	lsrs	r3, r0, #11
10000924:	18f6      	adds	r6, r6, r3
10000926:	0a03      	lsrs	r3, r0, #8
10000928:	18f6      	adds	r6, r6, r3
1000092a:	0903      	lsrs	r3, r0, #4
1000092c:	4652      	mov	r2, sl
1000092e:	18f6      	adds	r6, r6, r3
10000930:	2330      	movs	r3, #48	; 0x30
10000932:	46a0      	mov	r8, r4
10000934:	08c0      	lsrs	r0, r0, #3
10000936:	70d3      	strb	r3, [r2, #3]
10000938:	7113      	strb	r3, [r2, #4]
1000093a:	7153      	strb	r3, [r2, #5]
1000093c:	7193      	strb	r3, [r2, #6]
1000093e:	71d3      	strb	r3, [r2, #7]
10000940:	7213      	strb	r3, [r2, #8]
10000942:	1836      	adds	r6, r6, r0
10000944:	ab08      	add	r3, sp, #32
10000946:	0030      	movs	r0, r6
10000948:	210a      	movs	r1, #10
1000094a:	001c      	movs	r4, r3
1000094c:	f003 fe36 	bl	100045bc <__wrap___aeabi_uidiv>
10000950:	3130      	adds	r1, #48	; 0x30
10000952:	7021      	strb	r1, [r4, #0]
10000954:	0030      	movs	r0, r6
10000956:	210a      	movs	r1, #10
10000958:	f003 fe30 	bl	100045bc <__wrap___aeabi_uidiv>
1000095c:	1c63      	adds	r3, r4, #1
1000095e:	1e06      	subs	r6, r0, #0
10000960:	d1f1      	bne.n	10000946 <MicroVsnprintf+0x2de>
10000962:	4643      	mov	r3, r8
10000964:	46a0      	mov	r8, r4
10000966:	001c      	movs	r4, r3
10000968:	4643      	mov	r3, r8
1000096a:	7058      	strb	r0, [r3, #1]
1000096c:	ab08      	add	r3, sp, #32
1000096e:	4598      	cmp	r8, r3
10000970:	d908      	bls.n	10000984 <MicroVsnprintf+0x31c>
10000972:	4642      	mov	r2, r8
10000974:	7810      	ldrb	r0, [r2, #0]
10000976:	7819      	ldrb	r1, [r3, #0]
10000978:	3a01      	subs	r2, #1
1000097a:	7018      	strb	r0, [r3, #0]
1000097c:	3301      	adds	r3, #1
1000097e:	7051      	strb	r1, [r2, #1]
10000980:	4293      	cmp	r3, r2
10000982:	d3f7      	bcc.n	10000974 <MicroVsnprintf+0x30c>
10000984:	9b05      	ldr	r3, [sp, #20]
10000986:	9907      	ldr	r1, [sp, #28]
10000988:	469c      	mov	ip, r3
1000098a:	ab08      	add	r3, sp, #32
1000098c:	781b      	ldrb	r3, [r3, #0]
1000098e:	3901      	subs	r1, #1
10000990:	4461      	add	r1, ip
10000992:	2b00      	cmp	r3, #0
10000994:	d100      	bne.n	10000998 <MicroVsnprintf+0x330>
10000996:	e0e1      	b.n	10000b5c <MicroVsnprintf+0x4f4>
10000998:	9e05      	ldr	r6, [sp, #20]
1000099a:	428e      	cmp	r6, r1
1000099c:	d300      	bcc.n	100009a0 <MicroVsnprintf+0x338>
1000099e:	e0d7      	b.n	10000b50 <MicroVsnprintf+0x4e8>
100009a0:	aa08      	add	r2, sp, #32
100009a2:	e001      	b.n	100009a8 <MicroVsnprintf+0x340>
100009a4:	428e      	cmp	r6, r1
100009a6:	d005      	beq.n	100009b4 <MicroVsnprintf+0x34c>
100009a8:	3201      	adds	r2, #1
100009aa:	7033      	strb	r3, [r6, #0]
100009ac:	7813      	ldrb	r3, [r2, #0]
100009ae:	3601      	adds	r6, #1
100009b0:	2b00      	cmp	r3, #0
100009b2:	d1f7      	bne.n	100009a4 <MicroVsnprintf+0x33c>
100009b4:	2207      	movs	r2, #7
100009b6:	9b05      	ldr	r3, [sp, #20]
100009b8:	1af3      	subs	r3, r6, r3
100009ba:	1ad1      	subs	r1, r2, r3
100009bc:	3229      	adds	r2, #41	; 0x29
100009be:	7032      	strb	r2, [r6, #0]
100009c0:	2900      	cmp	r1, #0
100009c2:	d000      	beq.n	100009c6 <MicroVsnprintf+0x35e>
100009c4:	e0aa      	b.n	10000b1c <MicroVsnprintf+0x4b4>
100009c6:	9905      	ldr	r1, [sp, #20]
100009c8:	e002      	b.n	100009d0 <MicroVsnprintf+0x368>
100009ca:	428b      	cmp	r3, r1
100009cc:	d904      	bls.n	100009d8 <MicroVsnprintf+0x370>
100009ce:	001e      	movs	r6, r3
100009d0:	1e73      	subs	r3, r6, #1
100009d2:	781a      	ldrb	r2, [r3, #0]
100009d4:	2a30      	cmp	r2, #48	; 0x30
100009d6:	d0f8      	beq.n	100009ca <MicroVsnprintf+0x362>
100009d8:	9b03      	ldr	r3, [sp, #12]
100009da:	9601      	str	r6, [sp, #4]
100009dc:	3b01      	subs	r3, #1
100009de:	9305      	str	r3, [sp, #20]
100009e0:	429e      	cmp	r6, r3
100009e2:	d300      	bcc.n	100009e6 <MicroVsnprintf+0x37e>
100009e4:	e0ae      	b.n	10000b44 <MicroVsnprintf+0x4dc>
100009e6:	0018      	movs	r0, r3
100009e8:	232a      	movs	r3, #42	; 0x2a
100009ea:	4961      	ldr	r1, [pc, #388]	; (10000b70 <MicroVsnprintf+0x508>)
100009ec:	7033      	strb	r3, [r6, #0]
100009ee:	2232      	movs	r2, #50	; 0x32
100009f0:	1c73      	adds	r3, r6, #1
100009f2:	e000      	b.n	100009f6 <MicroVsnprintf+0x38e>
100009f4:	0033      	movs	r3, r6
100009f6:	4283      	cmp	r3, r0
100009f8:	d100      	bne.n	100009fc <MicroVsnprintf+0x394>
100009fa:	e09c      	b.n	10000b36 <MicroVsnprintf+0x4ce>
100009fc:	3101      	adds	r1, #1
100009fe:	701a      	strb	r2, [r3, #0]
10000a00:	780a      	ldrb	r2, [r1, #0]
10000a02:	1c5e      	adds	r6, r3, #1
10000a04:	2a00      	cmp	r2, #0
10000a06:	d1f5      	bne.n	100009f4 <MicroVsnprintf+0x38c>
10000a08:	9a03      	ldr	r2, [sp, #12]
10000a0a:	9601      	str	r6, [sp, #4]
10000a0c:	1b92      	subs	r2, r2, r6
10000a0e:	189b      	adds	r3, r3, r2
10000a10:	9305      	str	r3, [sp, #20]
10000a12:	2300      	movs	r3, #0
10000a14:	7033      	strb	r3, [r6, #0]
10000a16:	ab08      	add	r3, sp, #32
10000a18:	469a      	mov	sl, r3
10000a1a:	9b02      	ldr	r3, [sp, #8]
10000a1c:	2b00      	cmp	r3, #0
10000a1e:	da09      	bge.n	10000a34 <MicroVsnprintf+0x3cc>
10000a20:	4652      	mov	r2, sl
10000a22:	232d      	movs	r3, #45	; 0x2d
10000a24:	7013      	strb	r3, [r2, #0]
10000a26:	9a06      	ldr	r2, [sp, #24]
10000a28:	3352      	adds	r3, #82	; 0x52
10000a2a:	1a9b      	subs	r3, r3, r2
10000a2c:	9302      	str	r3, [sp, #8]
10000a2e:	2301      	movs	r3, #1
10000a30:	4453      	add	r3, sl
10000a32:	469a      	mov	sl, r3
10000a34:	4653      	mov	r3, sl
10000a36:	46a0      	mov	r8, r4
10000a38:	9703      	str	r7, [sp, #12]
10000a3a:	9f02      	ldr	r7, [sp, #8]
10000a3c:	0038      	movs	r0, r7
10000a3e:	210a      	movs	r1, #10
10000a40:	001c      	movs	r4, r3
10000a42:	f003 fdbb 	bl	100045bc <__wrap___aeabi_uidiv>
10000a46:	3130      	adds	r1, #48	; 0x30
10000a48:	7021      	strb	r1, [r4, #0]
10000a4a:	0038      	movs	r0, r7
10000a4c:	210a      	movs	r1, #10
10000a4e:	f003 fdb5 	bl	100045bc <__wrap___aeabi_uidiv>
10000a52:	1c63      	adds	r3, r4, #1
10000a54:	1e07      	subs	r7, r0, #0
10000a56:	d1f1      	bne.n	10000a3c <MicroVsnprintf+0x3d4>
10000a58:	4643      	mov	r3, r8
10000a5a:	46a0      	mov	r8, r4
10000a5c:	001c      	movs	r4, r3
10000a5e:	4643      	mov	r3, r8
10000a60:	9f03      	ldr	r7, [sp, #12]
10000a62:	7058      	strb	r0, [r3, #1]
10000a64:	45d0      	cmp	r8, sl
10000a66:	d909      	bls.n	10000a7c <MicroVsnprintf+0x414>
10000a68:	4653      	mov	r3, sl
10000a6a:	4642      	mov	r2, r8
10000a6c:	7810      	ldrb	r0, [r2, #0]
10000a6e:	7819      	ldrb	r1, [r3, #0]
10000a70:	3a01      	subs	r2, #1
10000a72:	7018      	strb	r0, [r3, #0]
10000a74:	3301      	adds	r3, #1
10000a76:	7051      	strb	r1, [r2, #1]
10000a78:	4293      	cmp	r3, r2
10000a7a:	d3f7      	bcc.n	10000a6c <MicroVsnprintf+0x404>
10000a7c:	ab08      	add	r3, sp, #32
10000a7e:	781b      	ldrb	r3, [r3, #0]
10000a80:	2b00      	cmp	r3, #0
10000a82:	d00d      	beq.n	10000aa0 <MicroVsnprintf+0x438>
10000a84:	9905      	ldr	r1, [sp, #20]
10000a86:	428e      	cmp	r6, r1
10000a88:	d20a      	bcs.n	10000aa0 <MicroVsnprintf+0x438>
10000a8a:	aa08      	add	r2, sp, #32
10000a8c:	e001      	b.n	10000a92 <MicroVsnprintf+0x42a>
10000a8e:	428e      	cmp	r6, r1
10000a90:	d005      	beq.n	10000a9e <MicroVsnprintf+0x436>
10000a92:	3201      	adds	r2, #1
10000a94:	7033      	strb	r3, [r6, #0]
10000a96:	7813      	ldrb	r3, [r2, #0]
10000a98:	3601      	adds	r6, #1
10000a9a:	2b00      	cmp	r3, #0
10000a9c:	d1f7      	bne.n	10000a8e <MicroVsnprintf+0x426>
10000a9e:	9601      	str	r6, [sp, #4]
10000aa0:	2300      	movs	r3, #0
10000aa2:	7033      	strb	r3, [r6, #0]
10000aa4:	9b01      	ldr	r3, [sp, #4]
10000aa6:	e671      	b.n	1000078c <MicroVsnprintf+0x124>
10000aa8:	465b      	mov	r3, fp
10000aaa:	9000      	str	r0, [sp, #0]
10000aac:	19dd      	adds	r5, r3, r7
10000aae:	3402      	adds	r4, #2
10000ab0:	7823      	ldrb	r3, [r4, #0]
10000ab2:	e5ea      	b.n	1000068a <MicroVsnprintf+0x22>
10000ab4:	4653      	mov	r3, sl
10000ab6:	9903      	ldr	r1, [sp, #12]
10000ab8:	9301      	str	r3, [sp, #4]
10000aba:	3901      	subs	r1, #1
10000abc:	2800      	cmp	r0, #0
10000abe:	d119      	bne.n	10000af4 <MicroVsnprintf+0x48c>
10000ac0:	458a      	cmp	sl, r1
10000ac2:	d212      	bcs.n	10000aea <MicroVsnprintf+0x482>
10000ac4:	4652      	mov	r2, sl
10000ac6:	2349      	movs	r3, #73	; 0x49
10000ac8:	7013      	strb	r3, [r2, #0]
10000aca:	3b48      	subs	r3, #72	; 0x48
10000acc:	469c      	mov	ip, r3
10000ace:	44e2      	add	sl, ip
10000ad0:	4650      	mov	r0, sl
10000ad2:	4a28      	ldr	r2, [pc, #160]	; (10000b74 <MicroVsnprintf+0x50c>)
10000ad4:	336d      	adds	r3, #109	; 0x6d
10000ad6:	4288      	cmp	r0, r1
10000ad8:	d005      	beq.n	10000ae6 <MicroVsnprintf+0x47e>
10000ada:	3201      	adds	r2, #1
10000adc:	7003      	strb	r3, [r0, #0]
10000ade:	7813      	ldrb	r3, [r2, #0]
10000ae0:	3001      	adds	r0, #1
10000ae2:	2b00      	cmp	r3, #0
10000ae4:	d1f7      	bne.n	10000ad6 <MicroVsnprintf+0x46e>
10000ae6:	4682      	mov	sl, r0
10000ae8:	9001      	str	r0, [sp, #4]
10000aea:	4653      	mov	r3, sl
10000aec:	2200      	movs	r2, #0
10000aee:	701a      	strb	r2, [r3, #0]
10000af0:	9b01      	ldr	r3, [sp, #4]
10000af2:	e64b      	b.n	1000078c <MicroVsnprintf+0x124>
10000af4:	458a      	cmp	sl, r1
10000af6:	d2f8      	bcs.n	10000aea <MicroVsnprintf+0x482>
10000af8:	4652      	mov	r2, sl
10000afa:	234e      	movs	r3, #78	; 0x4e
10000afc:	7013      	strb	r3, [r2, #0]
10000afe:	3b4d      	subs	r3, #77	; 0x4d
10000b00:	469c      	mov	ip, r3
10000b02:	44e2      	add	sl, ip
10000b04:	4650      	mov	r0, sl
10000b06:	4a1c      	ldr	r2, [pc, #112]	; (10000b78 <MicroVsnprintf+0x510>)
10000b08:	3360      	adds	r3, #96	; 0x60
10000b0a:	4288      	cmp	r0, r1
10000b0c:	d0eb      	beq.n	10000ae6 <MicroVsnprintf+0x47e>
10000b0e:	3201      	adds	r2, #1
10000b10:	7003      	strb	r3, [r0, #0]
10000b12:	7813      	ldrb	r3, [r2, #0]
10000b14:	3001      	adds	r0, #1
10000b16:	2b00      	cmp	r3, #0
10000b18:	d1f7      	bne.n	10000b0a <MicroVsnprintf+0x4a2>
10000b1a:	e7e4      	b.n	10000ae6 <MicroVsnprintf+0x47e>
10000b1c:	2b00      	cmp	r3, #0
10000b1e:	dd1a      	ble.n	10000b56 <MicroVsnprintf+0x4ee>
10000b20:	2030      	movs	r0, #48	; 0x30
10000b22:	1af3      	subs	r3, r6, r3
10000b24:	3e01      	subs	r6, #1
10000b26:	7832      	ldrb	r2, [r6, #0]
10000b28:	5472      	strb	r2, [r6, r1]
10000b2a:	7030      	strb	r0, [r6, #0]
10000b2c:	429e      	cmp	r6, r3
10000b2e:	d1f9      	bne.n	10000b24 <MicroVsnprintf+0x4bc>
10000b30:	9905      	ldr	r1, [sp, #20]
10000b32:	1dde      	adds	r6, r3, #7
10000b34:	e74c      	b.n	100009d0 <MicroVsnprintf+0x368>
10000b36:	9a05      	ldr	r2, [sp, #20]
10000b38:	001e      	movs	r6, r3
10000b3a:	9201      	str	r2, [sp, #4]
10000b3c:	9a03      	ldr	r2, [sp, #12]
10000b3e:	3a01      	subs	r2, #1
10000b40:	9205      	str	r2, [sp, #20]
10000b42:	e766      	b.n	10000a12 <MicroVsnprintf+0x3aa>
10000b44:	2300      	movs	r3, #0
10000b46:	7033      	strb	r3, [r6, #0]
10000b48:	e763      	b.n	10000a12 <MicroVsnprintf+0x3aa>
10000b4a:	2300      	movs	r3, #0
10000b4c:	702b      	strb	r3, [r5, #0]
10000b4e:	e5ae      	b.n	100006ae <MicroVsnprintf+0x46>
10000b50:	2330      	movs	r3, #48	; 0x30
10000b52:	4652      	mov	r2, sl
10000b54:	7093      	strb	r3, [r2, #2]
10000b56:	0033      	movs	r3, r6
10000b58:	9905      	ldr	r1, [sp, #20]
10000b5a:	e7ea      	b.n	10000b32 <MicroVsnprintf+0x4ca>
10000b5c:	2330      	movs	r3, #48	; 0x30
10000b5e:	4652      	mov	r2, sl
10000b60:	7093      	strb	r3, [r2, #2]
10000b62:	9b05      	ldr	r3, [sp, #20]
10000b64:	0019      	movs	r1, r3
10000b66:	1dde      	adds	r6, r3, #7
10000b68:	e732      	b.n	100009d0 <MicroVsnprintf+0x368>
10000b6a:	46c0      	nop			; (mov r8, r8)
10000b6c:	41600000 	.word	0x41600000
10000b70:	10009129 	.word	0x10009129
10000b74:	10009121 	.word	0x10009121
10000b78:	10009125 	.word	0x10009125

10000b7c <DebugLog>:
10000b7c:	b570      	push	{r4, r5, r6, lr}
10000b7e:	4c07      	ldr	r4, [pc, #28]	; (10000b9c <DebugLog+0x20>)
10000b80:	0005      	movs	r5, r0
10000b82:	7823      	ldrb	r3, [r4, #0]
10000b84:	2b00      	cmp	r3, #0
10000b86:	d103      	bne.n	10000b90 <DebugLog+0x14>
10000b88:	f004 fe42 	bl	10005810 <stdio_init_all>
10000b8c:	2301      	movs	r3, #1
10000b8e:	7023      	strb	r3, [r4, #0]
10000b90:	0029      	movs	r1, r5
10000b92:	4803      	ldr	r0, [pc, #12]	; (10000ba0 <DebugLog+0x24>)
10000b94:	f004 fe30 	bl	100057f8 <__wrap_printf>
10000b98:	bd70      	pop	{r4, r5, r6, pc}
10000b9a:	46c0      	nop			; (mov r8, r8)
10000b9c:	2000171a 	.word	0x2000171a
10000ba0:	1000912c 	.word	0x1000912c

10000ba4 <_ZN6tflite16ticks_per_secondEv>:
10000ba4:	4800      	ldr	r0, [pc, #0]	; (10000ba8 <_ZN6tflite16ticks_per_secondEv+0x4>)
10000ba6:	4770      	bx	lr
10000ba8:	000f4240 	.word	0x000f4240

10000bac <_ZN6tflite19GetCurrentTimeTicksEv>:
10000bac:	4b01      	ldr	r3, [pc, #4]	; (10000bb4 <_ZN6tflite19GetCurrentTimeTicksEv+0x8>)
10000bae:	6a98      	ldr	r0, [r3, #40]	; 0x28
10000bb0:	4770      	bx	lr
10000bb2:	46c0      	nop			; (mov r8, r8)
10000bb4:	40054000 	.word	0x40054000

10000bb8 <gpio_set_function>:
10000bb8:	4a09      	ldr	r2, [pc, #36]	; (10000be0 <gpio_set_function+0x28>)
10000bba:	0083      	lsls	r3, r0, #2
10000bbc:	4694      	mov	ip, r2
10000bbe:	2240      	movs	r2, #64	; 0x40
10000bc0:	4463      	add	r3, ip
10000bc2:	b510      	push	{r4, lr}
10000bc4:	681c      	ldr	r4, [r3, #0]
10000bc6:	00c0      	lsls	r0, r0, #3
10000bc8:	4062      	eors	r2, r4
10000bca:	24c0      	movs	r4, #192	; 0xc0
10000bcc:	4014      	ands	r4, r2
10000bce:	2280      	movs	r2, #128	; 0x80
10000bd0:	0152      	lsls	r2, r2, #5
10000bd2:	4313      	orrs	r3, r2
10000bd4:	601c      	str	r4, [r3, #0]
10000bd6:	4b03      	ldr	r3, [pc, #12]	; (10000be4 <gpio_set_function+0x2c>)
10000bd8:	469c      	mov	ip, r3
10000bda:	4460      	add	r0, ip
10000bdc:	6041      	str	r1, [r0, #4]
10000bde:	bd10      	pop	{r4, pc}
10000be0:	4001c004 	.word	0x4001c004
10000be4:	40014000 	.word	0x40014000

10000be8 <gpio_set_pulls>:
10000be8:	4b0b      	ldr	r3, [pc, #44]	; (10000c18 <gpio_set_pulls+0x30>)
10000bea:	0080      	lsls	r0, r0, #2
10000bec:	469c      	mov	ip, r3
10000bee:	4460      	add	r0, ip
10000bf0:	2900      	cmp	r1, #0
10000bf2:	d00d      	beq.n	10000c10 <gpio_set_pulls+0x28>
10000bf4:	210c      	movs	r1, #12
10000bf6:	2308      	movs	r3, #8
10000bf8:	2a00      	cmp	r2, #0
10000bfa:	d000      	beq.n	10000bfe <gpio_set_pulls+0x16>
10000bfc:	000b      	movs	r3, r1
10000bfe:	6802      	ldr	r2, [r0, #0]
10000c00:	4053      	eors	r3, r2
10000c02:	220c      	movs	r2, #12
10000c04:	401a      	ands	r2, r3
10000c06:	2380      	movs	r3, #128	; 0x80
10000c08:	015b      	lsls	r3, r3, #5
10000c0a:	4318      	orrs	r0, r3
10000c0c:	6002      	str	r2, [r0, #0]
10000c0e:	4770      	bx	lr
10000c10:	2104      	movs	r1, #4
10000c12:	2300      	movs	r3, #0
10000c14:	e7f0      	b.n	10000bf8 <gpio_set_pulls+0x10>
10000c16:	46c0      	nop			; (mov r8, r8)
10000c18:	4001c004 	.word	0x4001c004

10000c1c <gpio_init>:
10000c1c:	2301      	movs	r3, #1
10000c1e:	22d0      	movs	r2, #208	; 0xd0
10000c20:	4083      	lsls	r3, r0
10000c22:	0612      	lsls	r2, r2, #24
10000c24:	6293      	str	r3, [r2, #40]	; 0x28
10000c26:	6193      	str	r3, [r2, #24]
10000c28:	4a09      	ldr	r2, [pc, #36]	; (10000c50 <gpio_init+0x34>)
10000c2a:	0083      	lsls	r3, r0, #2
10000c2c:	4694      	mov	ip, r2
10000c2e:	2240      	movs	r2, #64	; 0x40
10000c30:	4463      	add	r3, ip
10000c32:	6819      	ldr	r1, [r3, #0]
10000c34:	00c0      	lsls	r0, r0, #3
10000c36:	404a      	eors	r2, r1
10000c38:	21c0      	movs	r1, #192	; 0xc0
10000c3a:	4011      	ands	r1, r2
10000c3c:	2280      	movs	r2, #128	; 0x80
10000c3e:	0152      	lsls	r2, r2, #5
10000c40:	4313      	orrs	r3, r2
10000c42:	6019      	str	r1, [r3, #0]
10000c44:	4b03      	ldr	r3, [pc, #12]	; (10000c54 <gpio_init+0x38>)
10000c46:	469c      	mov	ip, r3
10000c48:	2305      	movs	r3, #5
10000c4a:	4460      	add	r0, ip
10000c4c:	6043      	str	r3, [r0, #4]
10000c4e:	4770      	bx	lr
10000c50:	4001c004 	.word	0x4001c004
10000c54:	40014000 	.word	0x40014000

10000c58 <hw_claim_or_assert>:
10000c58:	b5f8      	push	{r3, r4, r5, r6, r7, lr}
10000c5a:	f3ef 8c10 	mrs	ip, PRIMASK
10000c5e:	b672      	cpsid	i
10000c60:	4f0d      	ldr	r7, [pc, #52]	; (10000c98 <hw_claim_or_assert+0x40>)
10000c62:	683b      	ldr	r3, [r7, #0]
10000c64:	2b00      	cmp	r3, #0
10000c66:	d0fc      	beq.n	10000c62 <hw_claim_or_assert+0xa>
10000c68:	f3bf 8f5f 	dmb	sy
10000c6c:	08cb      	lsrs	r3, r1, #3
10000c6e:	18c0      	adds	r0, r0, r3
10000c70:	7805      	ldrb	r5, [r0, #0]
10000c72:	2407      	movs	r4, #7
10000c74:	002b      	movs	r3, r5
10000c76:	400c      	ands	r4, r1
10000c78:	40e3      	lsrs	r3, r4
10000c7a:	2601      	movs	r6, #1
10000c7c:	4033      	ands	r3, r6
10000c7e:	d108      	bne.n	10000c92 <hw_claim_or_assert+0x3a>
10000c80:	40a6      	lsls	r6, r4
10000c82:	4335      	orrs	r5, r6
10000c84:	7005      	strb	r5, [r0, #0]
10000c86:	f3bf 8f5f 	dmb	sy
10000c8a:	603b      	str	r3, [r7, #0]
10000c8c:	f38c 8810 	msr	PRIMASK, ip
10000c90:	bdf8      	pop	{r3, r4, r5, r6, r7, pc}
10000c92:	0010      	movs	r0, r2
10000c94:	f001 f9da 	bl	1000204c <panic>
10000c98:	d000012c 	.word	0xd000012c

10000c9c <hw_claim_unused_from_range>:
10000c9c:	b5f8      	push	{r3, r4, r5, r6, r7, lr}
10000c9e:	4647      	mov	r7, r8
10000ca0:	46ce      	mov	lr, r9
10000ca2:	4688      	mov	r8, r1
10000ca4:	b580      	push	{r7, lr}
10000ca6:	f3ef 8c10 	mrs	ip, PRIMASK
10000caa:	b672      	cpsid	i
10000cac:	4d21      	ldr	r5, [pc, #132]	; (10000d34 <hw_claim_unused_from_range+0x98>)
10000cae:	682c      	ldr	r4, [r5, #0]
10000cb0:	2c00      	cmp	r4, #0
10000cb2:	d0fc      	beq.n	10000cae <hw_claim_unused_from_range+0x12>
10000cb4:	f3bf 8f5f 	dmb	sy
10000cb8:	429a      	cmp	r2, r3
10000cba:	d82d      	bhi.n	10000d18 <hw_claim_unused_from_range+0x7c>
10000cbc:	08d4      	lsrs	r4, r2, #3
10000cbe:	1904      	adds	r4, r0, r4
10000cc0:	7826      	ldrb	r6, [r4, #0]
10000cc2:	2507      	movs	r5, #7
10000cc4:	0037      	movs	r7, r6
10000cc6:	4015      	ands	r5, r2
10000cc8:	40ef      	lsrs	r7, r5
10000cca:	07f9      	lsls	r1, r7, #31
10000ccc:	d51e      	bpl.n	10000d0c <hw_claim_unused_from_range+0x70>
10000cce:	2107      	movs	r1, #7
10000cd0:	4689      	mov	r9, r1
10000cd2:	3906      	subs	r1, #6
10000cd4:	e008      	b.n	10000ce8 <hw_claim_unused_from_range+0x4c>
10000cd6:	08d4      	lsrs	r4, r2, #3
10000cd8:	1904      	adds	r4, r0, r4
10000cda:	7826      	ldrb	r6, [r4, #0]
10000cdc:	464d      	mov	r5, r9
10000cde:	0037      	movs	r7, r6
10000ce0:	4015      	ands	r5, r2
10000ce2:	40ef      	lsrs	r7, r5
10000ce4:	4239      	tst	r1, r7
10000ce6:	d011      	beq.n	10000d0c <hw_claim_unused_from_range+0x70>
10000ce8:	3201      	adds	r2, #1
10000cea:	4293      	cmp	r3, r2
10000cec:	d2f3      	bcs.n	10000cd6 <hw_claim_unused_from_range+0x3a>
10000cee:	2001      	movs	r0, #1
10000cf0:	4240      	negs	r0, r0
10000cf2:	f3bf 8f5f 	dmb	sy
10000cf6:	2200      	movs	r2, #0
10000cf8:	4b0e      	ldr	r3, [pc, #56]	; (10000d34 <hw_claim_unused_from_range+0x98>)
10000cfa:	601a      	str	r2, [r3, #0]
10000cfc:	f38c 8810 	msr	PRIMASK, ip
10000d00:	2800      	cmp	r0, #0
10000d02:	db11      	blt.n	10000d28 <hw_claim_unused_from_range+0x8c>
10000d04:	bc0c      	pop	{r2, r3}
10000d06:	4690      	mov	r8, r2
10000d08:	4699      	mov	r9, r3
10000d0a:	bdf8      	pop	{r3, r4, r5, r6, r7, pc}
10000d0c:	2301      	movs	r3, #1
10000d0e:	40ab      	lsls	r3, r5
10000d10:	431e      	orrs	r6, r3
10000d12:	7026      	strb	r6, [r4, #0]
10000d14:	0010      	movs	r0, r2
10000d16:	e7ec      	b.n	10000cf2 <hw_claim_unused_from_range+0x56>
10000d18:	f3bf 8f5f 	dmb	sy
10000d1c:	2300      	movs	r3, #0
10000d1e:	602b      	str	r3, [r5, #0]
10000d20:	f38c 8810 	msr	PRIMASK, ip
10000d24:	2001      	movs	r0, #1
10000d26:	4240      	negs	r0, r0
10000d28:	4643      	mov	r3, r8
10000d2a:	2b00      	cmp	r3, #0
10000d2c:	d0ea      	beq.n	10000d04 <hw_claim_unused_from_range+0x68>
10000d2e:	9808      	ldr	r0, [sp, #32]
10000d30:	f001 f98c 	bl	1000204c <panic>
10000d34:	d000012c 	.word	0xd000012c

10000d38 <spin_locks_reset>:
10000d38:	2100      	movs	r1, #0
10000d3a:	4b04      	ldr	r3, [pc, #16]	; (10000d4c <spin_locks_reset+0x14>)
10000d3c:	4a04      	ldr	r2, [pc, #16]	; (10000d50 <spin_locks_reset+0x18>)
10000d3e:	f3bf 8f5f 	dmb	sy
10000d42:	c302      	stmia	r3!, {r1}
10000d44:	4293      	cmp	r3, r2
10000d46:	d1fa      	bne.n	10000d3e <spin_locks_reset+0x6>
10000d48:	4770      	bx	lr
10000d4a:	46c0      	nop			; (mov r8, r8)
10000d4c:	d0000100 	.word	0xd0000100
10000d50:	d0000180 	.word	0xd0000180

10000d54 <next_striped_spin_lock_num>:
10000d54:	4a04      	ldr	r2, [pc, #16]	; (10000d68 <next_striped_spin_lock_num+0x14>)
10000d56:	7810      	ldrb	r0, [r2, #0]
10000d58:	1c43      	adds	r3, r0, #1
10000d5a:	b2db      	uxtb	r3, r3
10000d5c:	2b17      	cmp	r3, #23
10000d5e:	d900      	bls.n	10000d62 <next_striped_spin_lock_num+0xe>
10000d60:	2310      	movs	r3, #16
10000d62:	7013      	strb	r3, [r2, #0]
10000d64:	4770      	bx	lr
10000d66:	46c0      	nop			; (mov r8, r8)
10000d68:	200002d9 	.word	0x200002d9

10000d6c <spin_lock_claim_unused>:
10000d6c:	b500      	push	{lr}
10000d6e:	4b05      	ldr	r3, [pc, #20]	; (10000d84 <spin_lock_claim_unused+0x18>)
10000d70:	b083      	sub	sp, #12
10000d72:	0001      	movs	r1, r0
10000d74:	9300      	str	r3, [sp, #0]
10000d76:	2218      	movs	r2, #24
10000d78:	231f      	movs	r3, #31
10000d7a:	4803      	ldr	r0, [pc, #12]	; (10000d88 <spin_lock_claim_unused+0x1c>)
10000d7c:	f7ff ff8e 	bl	10000c9c <hw_claim_unused_from_range>
10000d80:	b003      	add	sp, #12
10000d82:	bd00      	pop	{pc}
10000d84:	10009130 	.word	0x10009130
10000d88:	20001004 	.word	0x20001004

10000d8c <running_on_fpga>:
10000d8c:	4b02      	ldr	r3, [pc, #8]	; (10000d98 <running_on_fpga+0xc>)
10000d8e:	6818      	ldr	r0, [r3, #0]
10000d90:	0780      	lsls	r0, r0, #30
10000d92:	0fc0      	lsrs	r0, r0, #31
10000d94:	4770      	bx	lr
10000d96:	46c0      	nop			; (mov r8, r8)
10000d98:	4006c000 	.word	0x4006c000

10000d9c <timer_pool_entry_comparator>:
10000d9c:	6883      	ldr	r3, [r0, #8]
10000d9e:	480b      	ldr	r0, [pc, #44]	; (10000dcc <timer_pool_entry_comparator+0x30>)
10000da0:	b510      	push	{r4, lr}
10000da2:	4684      	mov	ip, r0
10000da4:	4461      	add	r1, ip
10000da6:	4462      	add	r2, ip
10000da8:	0109      	lsls	r1, r1, #4
10000daa:	0112      	lsls	r2, r2, #4
10000dac:	189a      	adds	r2, r3, r2
10000dae:	1859      	adds	r1, r3, r1
10000db0:	6854      	ldr	r4, [r2, #4]
10000db2:	684b      	ldr	r3, [r1, #4]
10000db4:	2001      	movs	r0, #1
10000db6:	429c      	cmp	r4, r3
10000db8:	d801      	bhi.n	10000dbe <timer_pool_entry_comparator+0x22>
10000dba:	d002      	beq.n	10000dc2 <timer_pool_entry_comparator+0x26>
10000dbc:	2000      	movs	r0, #0
10000dbe:	b2c0      	uxtb	r0, r0
10000dc0:	bd10      	pop	{r4, pc}
10000dc2:	6812      	ldr	r2, [r2, #0]
10000dc4:	680b      	ldr	r3, [r1, #0]
10000dc6:	429a      	cmp	r2, r3
10000dc8:	d8f9      	bhi.n	10000dbe <timer_pool_entry_comparator+0x22>
10000dca:	e7f7      	b.n	10000dbc <timer_pool_entry_comparator+0x20>
10000dcc:	0fffffff 	.word	0x0fffffff

10000dd0 <sev_callback>:
10000dd0:	bf40      	sev
10000dd2:	2000      	movs	r0, #0
10000dd4:	2100      	movs	r1, #0
10000dd6:	4770      	bx	lr

10000dd8 <add_alarm_under_lock>:
10000dd8:	b5f0      	push	{r4, r5, r6, r7, lr}
10000dda:	4657      	mov	r7, sl
10000ddc:	4645      	mov	r5, r8
10000dde:	464e      	mov	r6, r9
10000de0:	46de      	mov	lr, fp
10000de2:	b5e0      	push	{r5, r6, r7, lr}
10000de4:	b083      	sub	sp, #12
10000de6:	001f      	movs	r7, r3
10000de8:	ab0f      	add	r3, sp, #60	; 0x3c
10000dea:	781b      	ldrb	r3, [r3, #0]
10000dec:	9c0e      	ldr	r4, [sp, #56]	; 0x38
10000dee:	4680      	mov	r8, r0
10000df0:	0016      	movs	r6, r2
10000df2:	469a      	mov	sl, r3
10000df4:	6805      	ldr	r5, [r0, #0]
10000df6:	2c00      	cmp	r4, #0
10000df8:	d040      	beq.n	10000e7c <add_alarm_under_lock+0xa4>
10000dfa:	4642      	mov	r2, r8
10000dfc:	6892      	ldr	r2, [r2, #8]
10000dfe:	b2e3      	uxtb	r3, r4
10000e00:	4694      	mov	ip, r2
10000e02:	469b      	mov	fp, r3
10000e04:	4b39      	ldr	r3, [pc, #228]	; (10000eec <add_alarm_under_lock+0x114>)
10000e06:	9a0c      	ldr	r2, [sp, #48]	; 0x30
10000e08:	18e3      	adds	r3, r4, r3
10000e0a:	011b      	lsls	r3, r3, #4
10000e0c:	4463      	add	r3, ip
10000e0e:	609a      	str	r2, [r3, #8]
10000e10:	9a0d      	ldr	r2, [sp, #52]	; 0x34
10000e12:	601e      	str	r6, [r3, #0]
10000e14:	605f      	str	r7, [r3, #4]
10000e16:	60da      	str	r2, [r3, #12]
10000e18:	0063      	lsls	r3, r4, #1
10000e1a:	191b      	adds	r3, r3, r4
10000e1c:	1eda      	subs	r2, r3, #3
10000e1e:	4694      	mov	ip, r2
10000e20:	9201      	str	r2, [sp, #4]
10000e22:	2200      	movs	r2, #0
10000e24:	682b      	ldr	r3, [r5, #0]
10000e26:	4463      	add	r3, ip
10000e28:	709a      	strb	r2, [r3, #2]
10000e2a:	705a      	strb	r2, [r3, #1]
10000e2c:	701a      	strb	r2, [r3, #0]
10000e2e:	7b6b      	ldrb	r3, [r5, #13]
10000e30:	4699      	mov	r9, r3
10000e32:	2b00      	cmp	r3, #0
10000e34:	d03e      	beq.n	10000eb4 <add_alarm_under_lock+0xdc>
10000e36:	0019      	movs	r1, r3
10000e38:	465a      	mov	r2, fp
10000e3a:	686b      	ldr	r3, [r5, #4]
10000e3c:	68a8      	ldr	r0, [r5, #8]
10000e3e:	4798      	blx	r3
10000e40:	464b      	mov	r3, r9
10000e42:	005b      	lsls	r3, r3, #1
10000e44:	444b      	add	r3, r9
10000e46:	3b03      	subs	r3, #3
10000e48:	2800      	cmp	r0, #0
10000e4a:	d027      	beq.n	10000e9c <add_alarm_under_lock+0xc4>
10000e4c:	9901      	ldr	r1, [sp, #4]
10000e4e:	682a      	ldr	r2, [r5, #0]
10000e50:	468c      	mov	ip, r1
10000e52:	4649      	mov	r1, r9
10000e54:	18d3      	adds	r3, r2, r3
10000e56:	4462      	add	r2, ip
10000e58:	7091      	strb	r1, [r2, #2]
10000e5a:	7819      	ldrb	r1, [r3, #0]
10000e5c:	2900      	cmp	r1, #0
10000e5e:	d141      	bne.n	10000ee4 <add_alarm_under_lock+0x10c>
10000e60:	465a      	mov	r2, fp
10000e62:	701a      	strb	r2, [r3, #0]
10000e64:	464b      	mov	r3, r9
10000e66:	0020      	movs	r0, r4
10000e68:	736b      	strb	r3, [r5, #13]
10000e6a:	45a1      	cmp	r9, r4
10000e6c:	d024      	beq.n	10000eb8 <add_alarm_under_lock+0xe0>
10000e6e:	b003      	add	sp, #12
10000e70:	bc3c      	pop	{r2, r3, r4, r5}
10000e72:	4690      	mov	r8, r2
10000e74:	4699      	mov	r9, r3
10000e76:	46a2      	mov	sl, r4
10000e78:	46ab      	mov	fp, r5
10000e7a:	bdf0      	pop	{r4, r5, r6, r7, pc}
10000e7c:	7bac      	ldrb	r4, [r5, #14]
10000e7e:	2000      	movs	r0, #0
10000e80:	2c00      	cmp	r4, #0
10000e82:	d0f4      	beq.n	10000e6e <add_alarm_under_lock+0x96>
10000e84:	682a      	ldr	r2, [r5, #0]
10000e86:	0063      	lsls	r3, r4, #1
10000e88:	4694      	mov	ip, r2
10000e8a:	191b      	adds	r3, r3, r4
10000e8c:	4463      	add	r3, ip
10000e8e:	3b03      	subs	r3, #3
10000e90:	785b      	ldrb	r3, [r3, #1]
10000e92:	73ab      	strb	r3, [r5, #14]
10000e94:	2b00      	cmp	r3, #0
10000e96:	d1b0      	bne.n	10000dfa <add_alarm_under_lock+0x22>
10000e98:	73eb      	strb	r3, [r5, #15]
10000e9a:	e7ae      	b.n	10000dfa <add_alarm_under_lock+0x22>
10000e9c:	6829      	ldr	r1, [r5, #0]
10000e9e:	9a01      	ldr	r2, [sp, #4]
10000ea0:	18cb      	adds	r3, r1, r3
10000ea2:	188a      	adds	r2, r1, r2
10000ea4:	4659      	mov	r1, fp
10000ea6:	7099      	strb	r1, [r3, #2]
10000ea8:	7811      	ldrb	r1, [r2, #0]
10000eaa:	2900      	cmp	r1, #0
10000eac:	d000      	beq.n	10000eb0 <add_alarm_under_lock+0xd8>
10000eae:	7059      	strb	r1, [r3, #1]
10000eb0:	464b      	mov	r3, r9
10000eb2:	7013      	strb	r3, [r2, #0]
10000eb4:	465b      	mov	r3, fp
10000eb6:	736b      	strb	r3, [r5, #13]
10000eb8:	4643      	mov	r3, r8
10000eba:	0032      	movs	r2, r6
10000ebc:	7d18      	ldrb	r0, [r3, #20]
10000ebe:	003b      	movs	r3, r7
10000ec0:	f000 fcb4 	bl	1000182c <hardware_alarm_set_target>
10000ec4:	1e05      	subs	r5, r0, #0
10000ec6:	d007      	beq.n	10000ed8 <add_alarm_under_lock+0x100>
10000ec8:	4653      	mov	r3, sl
10000eca:	2b00      	cmp	r3, #0
10000ecc:	d104      	bne.n	10000ed8 <add_alarm_under_lock+0x100>
10000ece:	4643      	mov	r3, r8
10000ed0:	4659      	mov	r1, fp
10000ed2:	6818      	ldr	r0, [r3, #0]
10000ed4:	f000 fe88 	bl	10001be8 <ph_delete>
10000ed8:	9b10      	ldr	r3, [sp, #64]	; 0x40
10000eda:	2b00      	cmp	r3, #0
10000edc:	d004      	beq.n	10000ee8 <add_alarm_under_lock+0x110>
10000ede:	701d      	strb	r5, [r3, #0]
10000ee0:	0020      	movs	r0, r4
10000ee2:	e7c4      	b.n	10000e6e <add_alarm_under_lock+0x96>
10000ee4:	7051      	strb	r1, [r2, #1]
10000ee6:	e7bb      	b.n	10000e60 <add_alarm_under_lock+0x88>
10000ee8:	0020      	movs	r0, r4
10000eea:	e7c0      	b.n	10000e6e <add_alarm_under_lock+0x96>
10000eec:	0fffffff 	.word	0x0fffffff

10000ef0 <alarm_pool_alarm_callback>:
10000ef0:	b5f0      	push	{r4, r5, r6, r7, lr}
10000ef2:	46de      	mov	lr, fp
10000ef4:	4645      	mov	r5, r8
10000ef6:	4657      	mov	r7, sl
10000ef8:	464e      	mov	r6, r9
10000efa:	4b72      	ldr	r3, [pc, #456]	; (100010c4 <alarm_pool_alarm_callback+0x1d4>)
10000efc:	0082      	lsls	r2, r0, #2
10000efe:	b5e0      	push	{r5, r6, r7, lr}
10000f00:	58d5      	ldr	r5, [r2, r3]
10000f02:	2300      	movs	r3, #0
10000f04:	b08d      	sub	sp, #52	; 0x34
10000f06:	900b      	str	r0, [sp, #44]	; 0x2c
10000f08:	469b      	mov	fp, r3
10000f0a:	e027      	b.n	10000f5c <alarm_pool_alarm_callback+0x6c>
10000f0c:	9a06      	ldr	r2, [sp, #24]
10000f0e:	9b07      	ldr	r3, [sp, #28]
10000f10:	0011      	movs	r1, r2
10000f12:	4319      	orrs	r1, r3
10000f14:	d003      	beq.n	10000f1e <alarm_pool_alarm_callback+0x2e>
10000f16:	692b      	ldr	r3, [r5, #16]
10000f18:	2b00      	cmp	r3, #0
10000f1a:	d000      	beq.n	10000f1e <alarm_pool_alarm_callback+0x2e>
10000f1c:	e093      	b.n	10001046 <alarm_pool_alarm_callback+0x156>
10000f1e:	682b      	ldr	r3, [r5, #0]
10000f20:	7bda      	ldrb	r2, [r3, #15]
10000f22:	2a00      	cmp	r2, #0
10000f24:	d007      	beq.n	10000f36 <alarm_pool_alarm_callback+0x46>
10000f26:	0051      	lsls	r1, r2, #1
10000f28:	188a      	adds	r2, r1, r2
10000f2a:	6819      	ldr	r1, [r3, #0]
10000f2c:	468c      	mov	ip, r1
10000f2e:	4649      	mov	r1, r9
10000f30:	4462      	add	r2, ip
10000f32:	3a03      	subs	r2, #3
10000f34:	7051      	strb	r1, [r2, #1]
10000f36:	464a      	mov	r2, r9
10000f38:	73da      	strb	r2, [r3, #15]
10000f3a:	68ea      	ldr	r2, [r5, #12]
10000f3c:	464b      	mov	r3, r9
10000f3e:	4694      	mov	ip, r2
10000f40:	3b01      	subs	r3, #1
10000f42:	4463      	add	r3, ip
10000f44:	781a      	ldrb	r2, [r3, #0]
10000f46:	3201      	adds	r2, #1
10000f48:	701a      	strb	r2, [r3, #0]
10000f4a:	465b      	mov	r3, fp
10000f4c:	612b      	str	r3, [r5, #16]
10000f4e:	686b      	ldr	r3, [r5, #4]
10000f50:	f3bf 8f5f 	dmb	sy
10000f54:	465a      	mov	r2, fp
10000f56:	601a      	str	r2, [r3, #0]
10000f58:	f384 8810 	msr	PRIMASK, r4
10000f5c:	f000 fc04 	bl	10001768 <time_us_64>
10000f60:	686a      	ldr	r2, [r5, #4]
10000f62:	f3ef 8410 	mrs	r4, PRIMASK
10000f66:	b672      	cpsid	i
10000f68:	6813      	ldr	r3, [r2, #0]
10000f6a:	2b00      	cmp	r3, #0
10000f6c:	d0fc      	beq.n	10000f68 <alarm_pool_alarm_callback+0x78>
10000f6e:	f3bf 8f5f 	dmb	sy
10000f72:	682b      	ldr	r3, [r5, #0]
10000f74:	469c      	mov	ip, r3
10000f76:	7b5b      	ldrb	r3, [r3, #13]
10000f78:	4699      	mov	r9, r3
10000f7a:	2b00      	cmp	r3, #0
10000f7c:	d05b      	beq.n	10001036 <alarm_pool_alarm_callback+0x146>
10000f7e:	68aa      	ldr	r2, [r5, #8]
10000f80:	4b51      	ldr	r3, [pc, #324]	; (100010c8 <alarm_pool_alarm_callback+0x1d8>)
10000f82:	4690      	mov	r8, r2
10000f84:	444b      	add	r3, r9
10000f86:	011b      	lsls	r3, r3, #4
10000f88:	4498      	add	r8, r3
10000f8a:	4643      	mov	r3, r8
10000f8c:	681a      	ldr	r2, [r3, #0]
10000f8e:	685b      	ldr	r3, [r3, #4]
10000f90:	0016      	movs	r6, r2
10000f92:	001f      	movs	r7, r3
10000f94:	1a36      	subs	r6, r6, r0
10000f96:	418f      	sbcs	r7, r1
10000f98:	2f00      	cmp	r7, #0
10000f9a:	dd6e      	ble.n	1000107a <alarm_pool_alarm_callback+0x18a>
10000f9c:	980b      	ldr	r0, [sp, #44]	; 0x2c
10000f9e:	f000 fc45 	bl	1000182c <hardware_alarm_set_target>
10000fa2:	2200      	movs	r2, #0
10000fa4:	2300      	movs	r3, #0
10000fa6:	2700      	movs	r7, #0
10000fa8:	2600      	movs	r6, #0
10000faa:	9208      	str	r2, [sp, #32]
10000fac:	9309      	str	r3, [sp, #36]	; 0x24
10000fae:	686b      	ldr	r3, [r5, #4]
10000fb0:	f3bf 8f5f 	dmb	sy
10000fb4:	465a      	mov	r2, fp
10000fb6:	601a      	str	r2, [r3, #0]
10000fb8:	f384 8810 	msr	PRIMASK, r4
10000fbc:	2e00      	cmp	r6, #0
10000fbe:	d076      	beq.n	100010ae <alarm_pool_alarm_callback+0x1be>
10000fc0:	4653      	mov	r3, sl
10000fc2:	0218      	lsls	r0, r3, #8
10000fc4:	464b      	mov	r3, r9
10000fc6:	0039      	movs	r1, r7
10000fc8:	4318      	orrs	r0, r3
10000fca:	47b0      	blx	r6
10000fcc:	686a      	ldr	r2, [r5, #4]
10000fce:	9006      	str	r0, [sp, #24]
10000fd0:	9107      	str	r1, [sp, #28]
10000fd2:	f3ef 8410 	mrs	r4, PRIMASK
10000fd6:	b672      	cpsid	i
10000fd8:	6813      	ldr	r3, [r2, #0]
10000fda:	2b00      	cmp	r3, #0
10000fdc:	d0fc      	beq.n	10000fd8 <alarm_pool_alarm_callback+0xe8>
10000fde:	f3bf 8f5f 	dmb	sy
10000fe2:	9b07      	ldr	r3, [sp, #28]
10000fe4:	2b00      	cmp	r3, #0
10000fe6:	da91      	bge.n	10000f0c <alarm_pool_alarm_callback+0x1c>
10000fe8:	692b      	ldr	r3, [r5, #16]
10000fea:	2b00      	cmp	r3, #0
10000fec:	d097      	beq.n	10000f1e <alarm_pool_alarm_callback+0x2e>
10000fee:	9806      	ldr	r0, [sp, #24]
10000ff0:	9907      	ldr	r1, [sp, #28]
10000ff2:	9a08      	ldr	r2, [sp, #32]
10000ff4:	9b09      	ldr	r3, [sp, #36]	; 0x24
10000ff6:	1a12      	subs	r2, r2, r0
10000ff8:	418b      	sbcs	r3, r1
10000ffa:	9808      	ldr	r0, [sp, #32]
10000ffc:	9909      	ldr	r1, [sp, #36]	; 0x24
10000ffe:	9206      	str	r2, [sp, #24]
10001000:	9307      	str	r3, [sp, #28]
10001002:	9a07      	ldr	r2, [sp, #28]
10001004:	4291      	cmp	r1, r2
10001006:	d803      	bhi.n	10001010 <alarm_pool_alarm_callback+0x120>
10001008:	d107      	bne.n	1000101a <alarm_pool_alarm_callback+0x12a>
1000100a:	9a06      	ldr	r2, [sp, #24]
1000100c:	4290      	cmp	r0, r2
1000100e:	d904      	bls.n	1000101a <alarm_pool_alarm_callback+0x12a>
10001010:	2201      	movs	r2, #1
10001012:	4252      	negs	r2, r2
10001014:	17d3      	asrs	r3, r2, #31
10001016:	9206      	str	r2, [sp, #24]
10001018:	9307      	str	r3, [sp, #28]
1000101a:	465b      	mov	r3, fp
1000101c:	2101      	movs	r1, #1
1000101e:	9304      	str	r3, [sp, #16]
10001020:	464b      	mov	r3, r9
10001022:	9103      	str	r1, [sp, #12]
10001024:	9302      	str	r3, [sp, #8]
10001026:	9701      	str	r7, [sp, #4]
10001028:	9600      	str	r6, [sp, #0]
1000102a:	9a06      	ldr	r2, [sp, #24]
1000102c:	9b07      	ldr	r3, [sp, #28]
1000102e:	0028      	movs	r0, r5
10001030:	f7ff fed2 	bl	10000dd8 <add_alarm_under_lock>
10001034:	e789      	b.n	10000f4a <alarm_pool_alarm_callback+0x5a>
10001036:	2200      	movs	r2, #0
10001038:	2300      	movs	r3, #0
1000103a:	2700      	movs	r7, #0
1000103c:	9208      	str	r2, [sp, #32]
1000103e:	9309      	str	r3, [sp, #36]	; 0x24
10001040:	2600      	movs	r6, #0
10001042:	2000      	movs	r0, #0
10001044:	e7b3      	b.n	10000fae <alarm_pool_alarm_callback+0xbe>
10001046:	f000 fb8f 	bl	10001768 <time_us_64>
1000104a:	9a06      	ldr	r2, [sp, #24]
1000104c:	9b07      	ldr	r3, [sp, #28]
1000104e:	1812      	adds	r2, r2, r0
10001050:	414b      	adcs	r3, r1
10001052:	4299      	cmp	r1, r3
10001054:	d802      	bhi.n	1000105c <alarm_pool_alarm_callback+0x16c>
10001056:	d104      	bne.n	10001062 <alarm_pool_alarm_callback+0x172>
10001058:	4290      	cmp	r0, r2
1000105a:	d902      	bls.n	10001062 <alarm_pool_alarm_callback+0x172>
1000105c:	2201      	movs	r2, #1
1000105e:	4252      	negs	r2, r2
10001060:	17d3      	asrs	r3, r2, #31
10001062:	4659      	mov	r1, fp
10001064:	9104      	str	r1, [sp, #16]
10001066:	2101      	movs	r1, #1
10001068:	9103      	str	r1, [sp, #12]
1000106a:	4649      	mov	r1, r9
1000106c:	9701      	str	r7, [sp, #4]
1000106e:	9102      	str	r1, [sp, #8]
10001070:	9600      	str	r6, [sp, #0]
10001072:	0028      	movs	r0, r5
10001074:	f7ff feb0 	bl	10000dd8 <add_alarm_under_lock>
10001078:	e767      	b.n	10000f4a <alarm_pool_alarm_callback+0x5a>
1000107a:	2f00      	cmp	r7, #0
1000107c:	d101      	bne.n	10001082 <alarm_pool_alarm_callback+0x192>
1000107e:	2e00      	cmp	r6, #0
10001080:	d18c      	bne.n	10000f9c <alarm_pool_alarm_callback+0xac>
10001082:	2101      	movs	r1, #1
10001084:	4660      	mov	r0, ip
10001086:	f000 fd03 	bl	10001a90 <ph_remove_head_reserve>
1000108a:	4643      	mov	r3, r8
1000108c:	681a      	ldr	r2, [r3, #0]
1000108e:	685b      	ldr	r3, [r3, #4]
10001090:	9208      	str	r2, [sp, #32]
10001092:	9309      	str	r3, [sp, #36]	; 0x24
10001094:	4643      	mov	r3, r8
10001096:	689e      	ldr	r6, [r3, #8]
10001098:	68df      	ldr	r7, [r3, #12]
1000109a:	68eb      	ldr	r3, [r5, #12]
1000109c:	444b      	add	r3, r9
1000109e:	3b01      	subs	r3, #1
100010a0:	781b      	ldrb	r3, [r3, #0]
100010a2:	469a      	mov	sl, r3
100010a4:	021b      	lsls	r3, r3, #8
100010a6:	4318      	orrs	r0, r3
100010a8:	6128      	str	r0, [r5, #16]
100010aa:	2000      	movs	r0, #0
100010ac:	e77f      	b.n	10000fae <alarm_pool_alarm_callback+0xbe>
100010ae:	2800      	cmp	r0, #0
100010b0:	d000      	beq.n	100010b4 <alarm_pool_alarm_callback+0x1c4>
100010b2:	e753      	b.n	10000f5c <alarm_pool_alarm_callback+0x6c>
100010b4:	b00d      	add	sp, #52	; 0x34
100010b6:	bc3c      	pop	{r2, r3, r4, r5}
100010b8:	4690      	mov	r8, r2
100010ba:	4699      	mov	r9, r3
100010bc:	46a2      	mov	sl, r4
100010be:	46ab      	mov	fp, r5
100010c0:	bdf0      	pop	{r4, r5, r6, r7, pc}
100010c2:	46c0      	nop			; (mov r8, r8)
100010c4:	200016f0 	.word	0x200016f0
100010c8:	0fffffff 	.word	0x0fffffff

100010cc <alarm_pool_init_default>:
100010cc:	b570      	push	{r4, r5, r6, lr}
100010ce:	4c18      	ldr	r4, [pc, #96]	; (10001130 <alarm_pool_init_default+0x64>)
100010d0:	6823      	ldr	r3, [r4, #0]
100010d2:	2b00      	cmp	r3, #0
100010d4:	d000      	beq.n	100010d8 <alarm_pool_init_default+0xc>
100010d6:	bd70      	pop	{r4, r5, r6, pc}
100010d8:	2003      	movs	r0, #3
100010da:	f000 fb39 	bl	10001750 <hardware_alarm_claim>
100010de:	2003      	movs	r0, #3
100010e0:	f000 fbfe 	bl	100018e0 <hardware_alarm_cancel>
100010e4:	4913      	ldr	r1, [pc, #76]	; (10001134 <alarm_pool_init_default+0x68>)
100010e6:	2003      	movs	r0, #3
100010e8:	f000 fb5a 	bl	100017a0 <hardware_alarm_set_callback>
100010ec:	2018      	movs	r0, #24
100010ee:	f004 f975 	bl	100053dc <__wrap_malloc>
100010f2:	0005      	movs	r5, r0
100010f4:	f7ff fe2e 	bl	10000d54 <next_striped_spin_lock_num>
100010f8:	4b0f      	ldr	r3, [pc, #60]	; (10001138 <alarm_pool_init_default+0x6c>)
100010fa:	002a      	movs	r2, r5
100010fc:	469c      	mov	ip, r3
100010fe:	4460      	add	r0, ip
10001100:	0080      	lsls	r0, r0, #2
10001102:	6068      	str	r0, [r5, #4]
10001104:	490d      	ldr	r1, [pc, #52]	; (1000113c <alarm_pool_init_default+0x70>)
10001106:	2010      	movs	r0, #16
10001108:	f000 fc92 	bl	10001a30 <ph_create>
1000110c:	2110      	movs	r1, #16
1000110e:	6028      	str	r0, [r5, #0]
10001110:	2010      	movs	r0, #16
10001112:	f004 f967 	bl	100053e4 <__wrap_calloc>
10001116:	2101      	movs	r1, #1
10001118:	60a8      	str	r0, [r5, #8]
1000111a:	2010      	movs	r0, #16
1000111c:	f004 f962 	bl	100053e4 <__wrap_calloc>
10001120:	2303      	movs	r3, #3
10001122:	752b      	strb	r3, [r5, #20]
10001124:	4b06      	ldr	r3, [pc, #24]	; (10001140 <alarm_pool_init_default+0x74>)
10001126:	60e8      	str	r0, [r5, #12]
10001128:	60dd      	str	r5, [r3, #12]
1000112a:	6025      	str	r5, [r4, #0]
1000112c:	e7d3      	b.n	100010d6 <alarm_pool_init_default+0xa>
1000112e:	46c0      	nop			; (mov r8, r8)
10001130:	20001030 	.word	0x20001030
10001134:	10000ef1 	.word	0x10000ef1
10001138:	34000040 	.word	0x34000040
1000113c:	10000d9d 	.word	0x10000d9d
10001140:	200016f0 	.word	0x200016f0

10001144 <alarm_pool_get_default>:
10001144:	4b01      	ldr	r3, [pc, #4]	; (1000114c <alarm_pool_get_default+0x8>)
10001146:	6818      	ldr	r0, [r3, #0]
10001148:	4770      	bx	lr
1000114a:	46c0      	nop			; (mov r8, r8)
1000114c:	20001030 	.word	0x20001030

10001150 <alarm_pool_add_alarm_at>:
10001150:	b5f0      	push	{r4, r5, r6, r7, lr}
10001152:	4645      	mov	r5, r8
10001154:	46de      	mov	lr, fp
10001156:	4657      	mov	r7, sl
10001158:	464e      	mov	r6, r9
1000115a:	b5e0      	push	{r5, r6, r7, lr}
1000115c:	b085      	sub	sp, #20
1000115e:	9200      	str	r2, [sp, #0]
10001160:	9301      	str	r3, [sp, #4]
10001162:	ab10      	add	r3, sp, #64	; 0x40
10001164:	781b      	ldrb	r3, [r3, #0]
10001166:	0005      	movs	r5, r0
10001168:	469b      	mov	fp, r3
1000116a:	2300      	movs	r3, #0
1000116c:	469a      	mov	sl, r3
1000116e:	4698      	mov	r8, r3
10001170:	686a      	ldr	r2, [r5, #4]
10001172:	f3ef 8910 	mrs	r9, PRIMASK
10001176:	b672      	cpsid	i
10001178:	6813      	ldr	r3, [r2, #0]
1000117a:	2b00      	cmp	r3, #0
1000117c:	d0fc      	beq.n	10001178 <alarm_pool_add_alarm_at+0x28>
1000117e:	f3bf 8f5f 	dmb	sy
10001182:	682e      	ldr	r6, [r5, #0]
10001184:	7bb4      	ldrb	r4, [r6, #14]
10001186:	2c00      	cmp	r4, #0
10001188:	d10e      	bne.n	100011a8 <alarm_pool_add_alarm_at+0x58>
1000118a:	686b      	ldr	r3, [r5, #4]
1000118c:	f3bf 8f5f 	dmb	sy
10001190:	601c      	str	r4, [r3, #0]
10001192:	f389 8810 	msr	PRIMASK, r9
10001196:	2001      	movs	r0, #1
10001198:	4240      	negs	r0, r0
1000119a:	b005      	add	sp, #20
1000119c:	bc3c      	pop	{r2, r3, r4, r5}
1000119e:	4690      	mov	r8, r2
100011a0:	4699      	mov	r9, r3
100011a2:	46a2      	mov	sl, r4
100011a4:	46ab      	mov	fp, r5
100011a6:	bdf0      	pop	{r4, r5, r6, r7, pc}
100011a8:	0067      	lsls	r7, r4, #1
100011aa:	193f      	adds	r7, r7, r4
100011ac:	6833      	ldr	r3, [r6, #0]
100011ae:	3f03      	subs	r7, #3
100011b0:	19db      	adds	r3, r3, r7
100011b2:	785b      	ldrb	r3, [r3, #1]
100011b4:	73b3      	strb	r3, [r6, #14]
100011b6:	2b00      	cmp	r3, #0
100011b8:	d100      	bne.n	100011bc <alarm_pool_add_alarm_at+0x6c>
100011ba:	73f3      	strb	r3, [r6, #15]
100011bc:	68aa      	ldr	r2, [r5, #8]
100011be:	4b49      	ldr	r3, [pc, #292]	; (100012e4 <alarm_pool_add_alarm_at+0x194>)
100011c0:	4694      	mov	ip, r2
100011c2:	9900      	ldr	r1, [sp, #0]
100011c4:	9a01      	ldr	r2, [sp, #4]
100011c6:	18e3      	adds	r3, r4, r3
100011c8:	011b      	lsls	r3, r3, #4
100011ca:	4463      	add	r3, ip
100011cc:	6019      	str	r1, [r3, #0]
100011ce:	605a      	str	r2, [r3, #4]
100011d0:	9a0e      	ldr	r2, [sp, #56]	; 0x38
100011d2:	609a      	str	r2, [r3, #8]
100011d4:	9a0f      	ldr	r2, [sp, #60]	; 0x3c
100011d6:	60da      	str	r2, [r3, #12]
100011d8:	4642      	mov	r2, r8
100011da:	6833      	ldr	r3, [r6, #0]
100011dc:	19db      	adds	r3, r3, r7
100011de:	709a      	strb	r2, [r3, #2]
100011e0:	705a      	strb	r2, [r3, #1]
100011e2:	701a      	strb	r2, [r3, #0]
100011e4:	7b73      	ldrb	r3, [r6, #13]
100011e6:	9303      	str	r3, [sp, #12]
100011e8:	2b00      	cmp	r3, #0
100011ea:	d064      	beq.n	100012b6 <alarm_pool_add_alarm_at+0x166>
100011ec:	0019      	movs	r1, r3
100011ee:	0022      	movs	r2, r4
100011f0:	6873      	ldr	r3, [r6, #4]
100011f2:	68b0      	ldr	r0, [r6, #8]
100011f4:	4798      	blx	r3
100011f6:	9903      	ldr	r1, [sp, #12]
100011f8:	6832      	ldr	r2, [r6, #0]
100011fa:	468c      	mov	ip, r1
100011fc:	004b      	lsls	r3, r1, #1
100011fe:	4463      	add	r3, ip
10001200:	3b03      	subs	r3, #3
10001202:	2800      	cmp	r0, #0
10001204:	d050      	beq.n	100012a8 <alarm_pool_add_alarm_at+0x158>
10001206:	19d7      	adds	r7, r2, r7
10001208:	18d3      	adds	r3, r2, r3
1000120a:	70b9      	strb	r1, [r7, #2]
1000120c:	781a      	ldrb	r2, [r3, #0]
1000120e:	2a00      	cmp	r2, #0
10001210:	d164      	bne.n	100012dc <alarm_pool_add_alarm_at+0x18c>
10001212:	701c      	strb	r4, [r3, #0]
10001214:	7371      	strb	r1, [r6, #13]
10001216:	428c      	cmp	r4, r1
10001218:	d04e      	beq.n	100012b8 <alarm_pool_add_alarm_at+0x168>
1000121a:	68eb      	ldr	r3, [r5, #12]
1000121c:	191b      	adds	r3, r3, r4
1000121e:	3b01      	subs	r3, #1
10001220:	7818      	ldrb	r0, [r3, #0]
10001222:	686b      	ldr	r3, [r5, #4]
10001224:	f3bf 8f5f 	dmb	sy
10001228:	4642      	mov	r2, r8
1000122a:	601a      	str	r2, [r3, #0]
1000122c:	f389 8810 	msr	PRIMASK, r9
10001230:	4653      	mov	r3, sl
10001232:	2b00      	cmp	r3, #0
10001234:	d102      	bne.n	1000123c <alarm_pool_add_alarm_at+0xec>
10001236:	0200      	lsls	r0, r0, #8
10001238:	4320      	orrs	r0, r4
1000123a:	e7ae      	b.n	1000119a <alarm_pool_add_alarm_at+0x4a>
1000123c:	465b      	mov	r3, fp
1000123e:	2b00      	cmp	r3, #0
10001240:	d04e      	beq.n	100012e0 <alarm_pool_add_alarm_at+0x190>
10001242:	9b0e      	ldr	r3, [sp, #56]	; 0x38
10001244:	990f      	ldr	r1, [sp, #60]	; 0x3c
10001246:	2000      	movs	r0, #0
10001248:	4798      	blx	r3
1000124a:	0003      	movs	r3, r0
1000124c:	430b      	orrs	r3, r1
1000124e:	d047      	beq.n	100012e0 <alarm_pool_add_alarm_at+0x190>
10001250:	0006      	movs	r6, r0
10001252:	1e0f      	subs	r7, r1, #0
10001254:	da15      	bge.n	10001282 <alarm_pool_add_alarm_at+0x132>
10001256:	9800      	ldr	r0, [sp, #0]
10001258:	9901      	ldr	r1, [sp, #4]
1000125a:	0002      	movs	r2, r0
1000125c:	000b      	movs	r3, r1
1000125e:	1b92      	subs	r2, r2, r6
10001260:	41bb      	sbcs	r3, r7
10001262:	4299      	cmp	r1, r3
10001264:	d802      	bhi.n	1000126c <alarm_pool_add_alarm_at+0x11c>
10001266:	d108      	bne.n	1000127a <alarm_pool_add_alarm_at+0x12a>
10001268:	4290      	cmp	r0, r2
1000126a:	d906      	bls.n	1000127a <alarm_pool_add_alarm_at+0x12a>
1000126c:	2301      	movs	r3, #1
1000126e:	425b      	negs	r3, r3
10001270:	17dc      	asrs	r4, r3, #31
10001272:	9300      	str	r3, [sp, #0]
10001274:	9401      	str	r4, [sp, #4]
10001276:	46da      	mov	sl, fp
10001278:	e77a      	b.n	10001170 <alarm_pool_add_alarm_at+0x20>
1000127a:	9200      	str	r2, [sp, #0]
1000127c:	9301      	str	r3, [sp, #4]
1000127e:	46da      	mov	sl, fp
10001280:	e776      	b.n	10001170 <alarm_pool_add_alarm_at+0x20>
10001282:	f000 fa71 	bl	10001768 <time_us_64>
10001286:	1836      	adds	r6, r6, r0
10001288:	414f      	adcs	r7, r1
1000128a:	0033      	movs	r3, r6
1000128c:	003c      	movs	r4, r7
1000128e:	9300      	str	r3, [sp, #0]
10001290:	9401      	str	r4, [sp, #4]
10001292:	42b9      	cmp	r1, r7
10001294:	d8ea      	bhi.n	1000126c <alarm_pool_add_alarm_at+0x11c>
10001296:	d1ee      	bne.n	10001276 <alarm_pool_add_alarm_at+0x126>
10001298:	42b0      	cmp	r0, r6
1000129a:	d9ec      	bls.n	10001276 <alarm_pool_add_alarm_at+0x126>
1000129c:	2301      	movs	r3, #1
1000129e:	425b      	negs	r3, r3
100012a0:	17dc      	asrs	r4, r3, #31
100012a2:	9300      	str	r3, [sp, #0]
100012a4:	9401      	str	r4, [sp, #4]
100012a6:	e7e6      	b.n	10001276 <alarm_pool_add_alarm_at+0x126>
100012a8:	18d3      	adds	r3, r2, r3
100012aa:	19d7      	adds	r7, r2, r7
100012ac:	709c      	strb	r4, [r3, #2]
100012ae:	783a      	ldrb	r2, [r7, #0]
100012b0:	2a00      	cmp	r2, #0
100012b2:	d10e      	bne.n	100012d2 <alarm_pool_add_alarm_at+0x182>
100012b4:	7039      	strb	r1, [r7, #0]
100012b6:	7374      	strb	r4, [r6, #13]
100012b8:	7d28      	ldrb	r0, [r5, #20]
100012ba:	9a00      	ldr	r2, [sp, #0]
100012bc:	9b01      	ldr	r3, [sp, #4]
100012be:	f000 fab5 	bl	1000182c <hardware_alarm_set_target>
100012c2:	4682      	mov	sl, r0
100012c4:	2800      	cmp	r0, #0
100012c6:	d0a8      	beq.n	1000121a <alarm_pool_add_alarm_at+0xca>
100012c8:	0021      	movs	r1, r4
100012ca:	6828      	ldr	r0, [r5, #0]
100012cc:	f000 fc8c 	bl	10001be8 <ph_delete>
100012d0:	e7a3      	b.n	1000121a <alarm_pool_add_alarm_at+0xca>
100012d2:	705a      	strb	r2, [r3, #1]
100012d4:	9b03      	ldr	r3, [sp, #12]
100012d6:	703b      	strb	r3, [r7, #0]
100012d8:	7374      	strb	r4, [r6, #13]
100012da:	e7ed      	b.n	100012b8 <alarm_pool_add_alarm_at+0x168>
100012dc:	707a      	strb	r2, [r7, #1]
100012de:	e798      	b.n	10001212 <alarm_pool_add_alarm_at+0xc2>
100012e0:	2000      	movs	r0, #0
100012e2:	e75a      	b.n	1000119a <alarm_pool_add_alarm_at+0x4a>
100012e4:	0fffffff 	.word	0x0fffffff

100012e8 <sleep_until>:
100012e8:	b5f0      	push	{r4, r5, r6, r7, lr}
100012ea:	4657      	mov	r7, sl
100012ec:	464e      	mov	r6, r9
100012ee:	4645      	mov	r5, r8
100012f0:	46de      	mov	lr, fp
100012f2:	0004      	movs	r4, r0
100012f4:	b5e0      	push	{r5, r6, r7, lr}
100012f6:	000d      	movs	r5, r1
100012f8:	2606      	movs	r6, #6
100012fa:	4276      	negs	r6, r6
100012fc:	17f7      	asrs	r7, r6, #31
100012fe:	1936      	adds	r6, r6, r4
10001300:	416f      	adcs	r7, r5
10001302:	b083      	sub	sp, #12
10001304:	428f      	cmp	r7, r1
10001306:	d830      	bhi.n	1000136a <sleep_until+0x82>
10001308:	d02d      	beq.n	10001366 <sleep_until+0x7e>
1000130a:	f000 fa2d 	bl	10001768 <time_us_64>
1000130e:	0032      	movs	r2, r6
10001310:	003b      	movs	r3, r7
10001312:	1a12      	subs	r2, r2, r0
10001314:	418b      	sbcs	r3, r1
10001316:	2b00      	cmp	r3, #0
10001318:	dd31      	ble.n	1000137e <sleep_until+0x96>
1000131a:	4b5b      	ldr	r3, [pc, #364]	; (10001488 <sleep_until+0x1a0>)
1000131c:	681b      	ldr	r3, [r3, #0]
1000131e:	4699      	mov	r9, r3
10001320:	685a      	ldr	r2, [r3, #4]
10001322:	f3ef 8b10 	mrs	fp, PRIMASK
10001326:	b672      	cpsid	i
10001328:	6813      	ldr	r3, [r2, #0]
1000132a:	2b00      	cmp	r3, #0
1000132c:	d0fc      	beq.n	10001328 <sleep_until+0x40>
1000132e:	f3bf 8f5f 	dmb	sy
10001332:	464b      	mov	r3, r9
10001334:	681b      	ldr	r3, [r3, #0]
10001336:	4698      	mov	r8, r3
10001338:	7b9b      	ldrb	r3, [r3, #14]
1000133a:	469a      	mov	sl, r3
1000133c:	2b00      	cmp	r3, #0
1000133e:	d123      	bne.n	10001388 <sleep_until+0xa0>
10001340:	464b      	mov	r3, r9
10001342:	685b      	ldr	r3, [r3, #4]
10001344:	f3bf 8f5f 	dmb	sy
10001348:	4652      	mov	r2, sl
1000134a:	601a      	str	r2, [r3, #0]
1000134c:	f38b 8810 	msr	PRIMASK, fp
10001350:	0020      	movs	r0, r4
10001352:	0029      	movs	r1, r5
10001354:	f000 fa14 	bl	10001780 <busy_wait_until>
10001358:	b003      	add	sp, #12
1000135a:	bc3c      	pop	{r2, r3, r4, r5}
1000135c:	4690      	mov	r8, r2
1000135e:	4699      	mov	r9, r3
10001360:	46a2      	mov	sl, r4
10001362:	46ab      	mov	fp, r5
10001364:	bdf0      	pop	{r4, r5, r6, r7, pc}
10001366:	4286      	cmp	r6, r0
10001368:	d9cf      	bls.n	1000130a <sleep_until+0x22>
1000136a:	2600      	movs	r6, #0
1000136c:	2700      	movs	r7, #0
1000136e:	f000 f9fb 	bl	10001768 <time_us_64>
10001372:	0032      	movs	r2, r6
10001374:	003b      	movs	r3, r7
10001376:	1a12      	subs	r2, r2, r0
10001378:	418b      	sbcs	r3, r1
1000137a:	2b00      	cmp	r3, #0
1000137c:	dccd      	bgt.n	1000131a <sleep_until+0x32>
1000137e:	2b00      	cmp	r3, #0
10001380:	d1e6      	bne.n	10001350 <sleep_until+0x68>
10001382:	2a00      	cmp	r2, #0
10001384:	d1c9      	bne.n	1000131a <sleep_until+0x32>
10001386:	e7e3      	b.n	10001350 <sleep_until+0x68>
10001388:	005b      	lsls	r3, r3, #1
1000138a:	4453      	add	r3, sl
1000138c:	1eda      	subs	r2, r3, #3
1000138e:	4643      	mov	r3, r8
10001390:	4694      	mov	ip, r2
10001392:	9200      	str	r2, [sp, #0]
10001394:	4642      	mov	r2, r8
10001396:	681b      	ldr	r3, [r3, #0]
10001398:	4463      	add	r3, ip
1000139a:	785b      	ldrb	r3, [r3, #1]
1000139c:	7393      	strb	r3, [r2, #14]
1000139e:	2b00      	cmp	r3, #0
100013a0:	d100      	bne.n	100013a4 <sleep_until+0xbc>
100013a2:	73d3      	strb	r3, [r2, #15]
100013a4:	464a      	mov	r2, r9
100013a6:	6892      	ldr	r2, [r2, #8]
100013a8:	4b38      	ldr	r3, [pc, #224]	; (1000148c <sleep_until+0x1a4>)
100013aa:	4694      	mov	ip, r2
100013ac:	4453      	add	r3, sl
100013ae:	4a38      	ldr	r2, [pc, #224]	; (10001490 <sleep_until+0x1a8>)
100013b0:	011b      	lsls	r3, r3, #4
100013b2:	4463      	add	r3, ip
100013b4:	609a      	str	r2, [r3, #8]
100013b6:	2200      	movs	r2, #0
100013b8:	601e      	str	r6, [r3, #0]
100013ba:	605f      	str	r7, [r3, #4]
100013bc:	60da      	str	r2, [r3, #12]
100013be:	9900      	ldr	r1, [sp, #0]
100013c0:	4643      	mov	r3, r8
100013c2:	468c      	mov	ip, r1
100013c4:	681b      	ldr	r3, [r3, #0]
100013c6:	4463      	add	r3, ip
100013c8:	709a      	strb	r2, [r3, #2]
100013ca:	705a      	strb	r2, [r3, #1]
100013cc:	701a      	strb	r2, [r3, #0]
100013ce:	4643      	mov	r3, r8
100013d0:	7b5b      	ldrb	r3, [r3, #13]
100013d2:	9301      	str	r3, [sp, #4]
100013d4:	2b00      	cmp	r3, #0
100013d6:	d037      	beq.n	10001448 <sleep_until+0x160>
100013d8:	0019      	movs	r1, r3
100013da:	4643      	mov	r3, r8
100013dc:	4652      	mov	r2, sl
100013de:	6898      	ldr	r0, [r3, #8]
100013e0:	685b      	ldr	r3, [r3, #4]
100013e2:	4798      	blx	r3
100013e4:	9901      	ldr	r1, [sp, #4]
100013e6:	4642      	mov	r2, r8
100013e8:	468c      	mov	ip, r1
100013ea:	004b      	lsls	r3, r1, #1
100013ec:	4463      	add	r3, ip
100013ee:	3b03      	subs	r3, #3
100013f0:	6812      	ldr	r2, [r2, #0]
100013f2:	2800      	cmp	r0, #0
100013f4:	d039      	beq.n	1000146a <sleep_until+0x182>
100013f6:	9800      	ldr	r0, [sp, #0]
100013f8:	18d3      	adds	r3, r2, r3
100013fa:	4684      	mov	ip, r0
100013fc:	4462      	add	r2, ip
100013fe:	7091      	strb	r1, [r2, #2]
10001400:	7819      	ldrb	r1, [r3, #0]
10001402:	2900      	cmp	r1, #0
10001404:	d000      	beq.n	10001408 <sleep_until+0x120>
10001406:	7051      	strb	r1, [r2, #1]
10001408:	4652      	mov	r2, sl
1000140a:	701a      	strb	r2, [r3, #0]
1000140c:	4642      	mov	r2, r8
1000140e:	9b01      	ldr	r3, [sp, #4]
10001410:	7353      	strb	r3, [r2, #13]
10001412:	459a      	cmp	sl, r3
10001414:	d01b      	beq.n	1000144e <sleep_until+0x166>
10001416:	464b      	mov	r3, r9
10001418:	685b      	ldr	r3, [r3, #4]
1000141a:	f3bf 8f5f 	dmb	sy
1000141e:	2200      	movs	r2, #0
10001420:	601a      	str	r2, [r3, #0]
10001422:	f38b 8810 	msr	PRIMASK, fp
10001426:	4a1b      	ldr	r2, [pc, #108]	; (10001494 <sleep_until+0x1ac>)
10001428:	0039      	movs	r1, r7
1000142a:	e003      	b.n	10001434 <sleep_until+0x14c>
1000142c:	4299      	cmp	r1, r3
1000142e:	d000      	beq.n	10001432 <sleep_until+0x14a>
10001430:	e78e      	b.n	10001350 <sleep_until+0x68>
10001432:	bf20      	wfe
10001434:	6a53      	ldr	r3, [r2, #36]	; 0x24
10001436:	4299      	cmp	r1, r3
10001438:	d8fb      	bhi.n	10001432 <sleep_until+0x14a>
1000143a:	6a90      	ldr	r0, [r2, #40]	; 0x28
1000143c:	42b0      	cmp	r0, r6
1000143e:	d300      	bcc.n	10001442 <sleep_until+0x15a>
10001440:	e786      	b.n	10001350 <sleep_until+0x68>
10001442:	e7f3      	b.n	1000142c <sleep_until+0x144>
10001444:	9b01      	ldr	r3, [sp, #4]
10001446:	700b      	strb	r3, [r1, #0]
10001448:	4643      	mov	r3, r8
1000144a:	4652      	mov	r2, sl
1000144c:	735a      	strb	r2, [r3, #13]
1000144e:	464b      	mov	r3, r9
10001450:	0032      	movs	r2, r6
10001452:	7d18      	ldrb	r0, [r3, #20]
10001454:	003b      	movs	r3, r7
10001456:	f000 f9e9 	bl	1000182c <hardware_alarm_set_target>
1000145a:	2800      	cmp	r0, #0
1000145c:	d0db      	beq.n	10001416 <sleep_until+0x12e>
1000145e:	464b      	mov	r3, r9
10001460:	4651      	mov	r1, sl
10001462:	6818      	ldr	r0, [r3, #0]
10001464:	f000 fbc0 	bl	10001be8 <ph_delete>
10001468:	e7d5      	b.n	10001416 <sleep_until+0x12e>
1000146a:	9900      	ldr	r1, [sp, #0]
1000146c:	18d3      	adds	r3, r2, r3
1000146e:	1851      	adds	r1, r2, r1
10001470:	4652      	mov	r2, sl
10001472:	709a      	strb	r2, [r3, #2]
10001474:	780a      	ldrb	r2, [r1, #0]
10001476:	2a00      	cmp	r2, #0
10001478:	d0e4      	beq.n	10001444 <sleep_until+0x15c>
1000147a:	705a      	strb	r2, [r3, #1]
1000147c:	9b01      	ldr	r3, [sp, #4]
1000147e:	4652      	mov	r2, sl
10001480:	700b      	strb	r3, [r1, #0]
10001482:	4643      	mov	r3, r8
10001484:	735a      	strb	r2, [r3, #13]
10001486:	e7e2      	b.n	1000144e <sleep_until+0x166>
10001488:	20001030 	.word	0x20001030
1000148c:	0fffffff 	.word	0x0fffffff
10001490:	10000dd1 	.word	0x10000dd1
10001494:	40054000 	.word	0x40054000

10001498 <sleep_ms>:
10001498:	b570      	push	{r4, r5, r6, lr}
1000149a:	0006      	movs	r6, r0
1000149c:	f000 f964 	bl	10001768 <time_us_64>
100014a0:	22fa      	movs	r2, #250	; 0xfa
100014a2:	0004      	movs	r4, r0
100014a4:	000d      	movs	r5, r1
100014a6:	0092      	lsls	r2, r2, #2
100014a8:	2300      	movs	r3, #0
100014aa:	0030      	movs	r0, r6
100014ac:	2100      	movs	r1, #0
100014ae:	f003 fee1 	bl	10005274 <__wrap___aeabi_lmul>
100014b2:	1900      	adds	r0, r0, r4
100014b4:	4169      	adcs	r1, r5
100014b6:	428d      	cmp	r5, r1
100014b8:	d905      	bls.n	100014c6 <sleep_ms+0x2e>
100014ba:	2001      	movs	r0, #1
100014bc:	4240      	negs	r0, r0
100014be:	17c1      	asrs	r1, r0, #31
100014c0:	f7ff ff12 	bl	100012e8 <sleep_until>
100014c4:	bd70      	pop	{r4, r5, r6, pc}
100014c6:	428d      	cmp	r5, r1
100014c8:	d1fa      	bne.n	100014c0 <sleep_ms+0x28>
100014ca:	4284      	cmp	r4, r0
100014cc:	d8f5      	bhi.n	100014ba <sleep_ms+0x22>
100014ce:	e7f7      	b.n	100014c0 <sleep_ms+0x28>

100014d0 <best_effort_wfe_or_timeout>:
100014d0:	b5f0      	push	{r4, r5, r6, r7, lr}
100014d2:	4657      	mov	r7, sl
100014d4:	4645      	mov	r5, r8
100014d6:	46de      	mov	lr, fp
100014d8:	464e      	mov	r6, r9
100014da:	b5e0      	push	{r5, r6, r7, lr}
100014dc:	4b6c      	ldr	r3, [pc, #432]	; (10001690 <best_effort_wfe_or_timeout+0x1c0>)
100014de:	b083      	sub	sp, #12
100014e0:	681d      	ldr	r5, [r3, #0]
100014e2:	4682      	mov	sl, r0
100014e4:	000f      	movs	r7, r1
100014e6:	4698      	mov	r8, r3
100014e8:	686a      	ldr	r2, [r5, #4]
100014ea:	f3ef 8910 	mrs	r9, PRIMASK
100014ee:	b672      	cpsid	i
100014f0:	6813      	ldr	r3, [r2, #0]
100014f2:	2b00      	cmp	r3, #0
100014f4:	d0fc      	beq.n	100014f0 <best_effort_wfe_or_timeout+0x20>
100014f6:	f3bf 8f5f 	dmb	sy
100014fa:	682e      	ldr	r6, [r5, #0]
100014fc:	7bb4      	ldrb	r4, [r6, #14]
100014fe:	2c00      	cmp	r4, #0
10001500:	d11a      	bne.n	10001538 <best_effort_wfe_or_timeout+0x68>
10001502:	686b      	ldr	r3, [r5, #4]
10001504:	f3bf 8f5f 	dmb	sy
10001508:	601c      	str	r4, [r3, #0]
1000150a:	f389 8810 	msr	PRIMASK, r9
1000150e:	4a61      	ldr	r2, [pc, #388]	; (10001694 <best_effort_wfe_or_timeout+0x1c4>)
10001510:	2600      	movs	r6, #0
10001512:	6a53      	ldr	r3, [r2, #36]	; 0x24
10001514:	429f      	cmp	r7, r3
10001516:	d807      	bhi.n	10001528 <best_effort_wfe_or_timeout+0x58>
10001518:	6a92      	ldr	r2, [r2, #40]	; 0x28
1000151a:	3601      	adds	r6, #1
1000151c:	4552      	cmp	r2, sl
1000151e:	d203      	bcs.n	10001528 <best_effort_wfe_or_timeout+0x58>
10001520:	1aff      	subs	r7, r7, r3
10001522:	1e7b      	subs	r3, r7, #1
10001524:	419f      	sbcs	r7, r3
10001526:	b2fe      	uxtb	r6, r7
10001528:	0030      	movs	r0, r6
1000152a:	b003      	add	sp, #12
1000152c:	bc3c      	pop	{r2, r3, r4, r5}
1000152e:	4690      	mov	r8, r2
10001530:	4699      	mov	r9, r3
10001532:	46a2      	mov	sl, r4
10001534:	46ab      	mov	fp, r5
10001536:	bdf0      	pop	{r4, r5, r6, r7, pc}
10001538:	0063      	lsls	r3, r4, #1
1000153a:	191b      	adds	r3, r3, r4
1000153c:	1eda      	subs	r2, r3, #3
1000153e:	4694      	mov	ip, r2
10001540:	6833      	ldr	r3, [r6, #0]
10001542:	9201      	str	r2, [sp, #4]
10001544:	4463      	add	r3, ip
10001546:	785b      	ldrb	r3, [r3, #1]
10001548:	73b3      	strb	r3, [r6, #14]
1000154a:	2b00      	cmp	r3, #0
1000154c:	d100      	bne.n	10001550 <best_effort_wfe_or_timeout+0x80>
1000154e:	73f3      	strb	r3, [r6, #15]
10001550:	68aa      	ldr	r2, [r5, #8]
10001552:	4b51      	ldr	r3, [pc, #324]	; (10001698 <best_effort_wfe_or_timeout+0x1c8>)
10001554:	4694      	mov	ip, r2
10001556:	4652      	mov	r2, sl
10001558:	18e3      	adds	r3, r4, r3
1000155a:	011b      	lsls	r3, r3, #4
1000155c:	4463      	add	r3, ip
1000155e:	601a      	str	r2, [r3, #0]
10001560:	4a4e      	ldr	r2, [pc, #312]	; (1000169c <best_effort_wfe_or_timeout+0x1cc>)
10001562:	9901      	ldr	r1, [sp, #4]
10001564:	609a      	str	r2, [r3, #8]
10001566:	2200      	movs	r2, #0
10001568:	468c      	mov	ip, r1
1000156a:	60da      	str	r2, [r3, #12]
1000156c:	605f      	str	r7, [r3, #4]
1000156e:	6833      	ldr	r3, [r6, #0]
10001570:	4463      	add	r3, ip
10001572:	709a      	strb	r2, [r3, #2]
10001574:	705a      	strb	r2, [r3, #1]
10001576:	701a      	strb	r2, [r3, #0]
10001578:	7b73      	ldrb	r3, [r6, #13]
1000157a:	469b      	mov	fp, r3
1000157c:	2b00      	cmp	r3, #0
1000157e:	d06a      	beq.n	10001656 <best_effort_wfe_or_timeout+0x186>
10001580:	0022      	movs	r2, r4
10001582:	6873      	ldr	r3, [r6, #4]
10001584:	4659      	mov	r1, fp
10001586:	68b0      	ldr	r0, [r6, #8]
10001588:	4798      	blx	r3
1000158a:	465b      	mov	r3, fp
1000158c:	005b      	lsls	r3, r3, #1
1000158e:	445b      	add	r3, fp
10001590:	3b03      	subs	r3, #3
10001592:	6832      	ldr	r2, [r6, #0]
10001594:	2800      	cmp	r0, #0
10001596:	d055      	beq.n	10001644 <best_effort_wfe_or_timeout+0x174>
10001598:	9901      	ldr	r1, [sp, #4]
1000159a:	18d3      	adds	r3, r2, r3
1000159c:	468c      	mov	ip, r1
1000159e:	4659      	mov	r1, fp
100015a0:	4462      	add	r2, ip
100015a2:	7091      	strb	r1, [r2, #2]
100015a4:	7819      	ldrb	r1, [r3, #0]
100015a6:	2900      	cmp	r1, #0
100015a8:	d16c      	bne.n	10001684 <best_effort_wfe_or_timeout+0x1b4>
100015aa:	701c      	strb	r4, [r3, #0]
100015ac:	465b      	mov	r3, fp
100015ae:	7373      	strb	r3, [r6, #13]
100015b0:	455c      	cmp	r4, fp
100015b2:	d051      	beq.n	10001658 <best_effort_wfe_or_timeout+0x188>
100015b4:	2600      	movs	r6, #0
100015b6:	68eb      	ldr	r3, [r5, #12]
100015b8:	686a      	ldr	r2, [r5, #4]
100015ba:	191b      	adds	r3, r3, r4
100015bc:	3b01      	subs	r3, #1
100015be:	781b      	ldrb	r3, [r3, #0]
100015c0:	f3bf 8f5f 	dmb	sy
100015c4:	2100      	movs	r1, #0
100015c6:	6011      	str	r1, [r2, #0]
100015c8:	f389 8810 	msr	PRIMASK, r9
100015cc:	2e00      	cmp	r6, #0
100015ce:	d19e      	bne.n	1000150e <best_effort_wfe_or_timeout+0x3e>
100015d0:	021b      	lsls	r3, r3, #8
100015d2:	431c      	orrs	r4, r3
100015d4:	bf20      	wfe
100015d6:	4643      	mov	r3, r8
100015d8:	681d      	ldr	r5, [r3, #0]
100015da:	686a      	ldr	r2, [r5, #4]
100015dc:	f3ef 8810 	mrs	r8, PRIMASK
100015e0:	b672      	cpsid	i
100015e2:	6813      	ldr	r3, [r2, #0]
100015e4:	2b00      	cmp	r3, #0
100015e6:	d0fc      	beq.n	100015e2 <best_effort_wfe_or_timeout+0x112>
100015e8:	f3bf 8f5f 	dmb	sy
100015ec:	23ff      	movs	r3, #255	; 0xff
100015ee:	6828      	ldr	r0, [r5, #0]
100015f0:	b2e1      	uxtb	r1, r4
100015f2:	7b42      	ldrb	r2, [r0, #13]
100015f4:	4023      	ands	r3, r4
100015f6:	428a      	cmp	r2, r1
100015f8:	d00a      	beq.n	10001610 <best_effort_wfe_or_timeout+0x140>
100015fa:	005a      	lsls	r2, r3, #1
100015fc:	4691      	mov	r9, r2
100015fe:	6802      	ldr	r2, [r0, #0]
10001600:	4499      	add	r9, r3
10001602:	4694      	mov	ip, r2
10001604:	464a      	mov	r2, r9
10001606:	4462      	add	r2, ip
10001608:	3a03      	subs	r2, #3
1000160a:	7892      	ldrb	r2, [r2, #2]
1000160c:	2a00      	cmp	r2, #0
1000160e:	d02f      	beq.n	10001670 <best_effort_wfe_or_timeout+0x1a0>
10001610:	68ea      	ldr	r2, [r5, #12]
10001612:	0a24      	lsrs	r4, r4, #8
10001614:	4694      	mov	ip, r2
10001616:	4463      	add	r3, ip
10001618:	3b01      	subs	r3, #1
1000161a:	781b      	ldrb	r3, [r3, #0]
1000161c:	42a3      	cmp	r3, r4
1000161e:	d033      	beq.n	10001688 <best_effort_wfe_or_timeout+0x1b8>
10001620:	686b      	ldr	r3, [r5, #4]
10001622:	f3bf 8f5f 	dmb	sy
10001626:	2200      	movs	r2, #0
10001628:	601a      	str	r2, [r3, #0]
1000162a:	f388 8810 	msr	PRIMASK, r8
1000162e:	4a19      	ldr	r2, [pc, #100]	; (10001694 <best_effort_wfe_or_timeout+0x1c4>)
10001630:	6a53      	ldr	r3, [r2, #36]	; 0x24
10001632:	429f      	cmp	r7, r3
10001634:	d900      	bls.n	10001638 <best_effort_wfe_or_timeout+0x168>
10001636:	e777      	b.n	10001528 <best_effort_wfe_or_timeout+0x58>
10001638:	6a92      	ldr	r2, [r2, #40]	; 0x28
1000163a:	2601      	movs	r6, #1
1000163c:	4552      	cmp	r2, sl
1000163e:	d300      	bcc.n	10001642 <best_effort_wfe_or_timeout+0x172>
10001640:	e772      	b.n	10001528 <best_effort_wfe_or_timeout+0x58>
10001642:	e76d      	b.n	10001520 <best_effort_wfe_or_timeout+0x50>
10001644:	9901      	ldr	r1, [sp, #4]
10001646:	18d3      	adds	r3, r2, r3
10001648:	1851      	adds	r1, r2, r1
1000164a:	709c      	strb	r4, [r3, #2]
1000164c:	780a      	ldrb	r2, [r1, #0]
1000164e:	2a00      	cmp	r2, #0
10001650:	d113      	bne.n	1000167a <best_effort_wfe_or_timeout+0x1aa>
10001652:	465b      	mov	r3, fp
10001654:	700b      	strb	r3, [r1, #0]
10001656:	7374      	strb	r4, [r6, #13]
10001658:	7d28      	ldrb	r0, [r5, #20]
1000165a:	4652      	mov	r2, sl
1000165c:	003b      	movs	r3, r7
1000165e:	f000 f8e5 	bl	1000182c <hardware_alarm_set_target>
10001662:	1e06      	subs	r6, r0, #0
10001664:	d0a6      	beq.n	100015b4 <best_effort_wfe_or_timeout+0xe4>
10001666:	0021      	movs	r1, r4
10001668:	6828      	ldr	r0, [r5, #0]
1000166a:	f000 fabd 	bl	10001be8 <ph_delete>
1000166e:	e7a2      	b.n	100015b6 <best_effort_wfe_or_timeout+0xe6>
10001670:	692b      	ldr	r3, [r5, #16]
10001672:	429c      	cmp	r4, r3
10001674:	d1d4      	bne.n	10001620 <best_effort_wfe_or_timeout+0x150>
10001676:	612a      	str	r2, [r5, #16]
10001678:	e7d2      	b.n	10001620 <best_effort_wfe_or_timeout+0x150>
1000167a:	705a      	strb	r2, [r3, #1]
1000167c:	465b      	mov	r3, fp
1000167e:	700b      	strb	r3, [r1, #0]
10001680:	7374      	strb	r4, [r6, #13]
10001682:	e7e9      	b.n	10001658 <best_effort_wfe_or_timeout+0x188>
10001684:	7051      	strb	r1, [r2, #1]
10001686:	e790      	b.n	100015aa <best_effort_wfe_or_timeout+0xda>
10001688:	f000 faae 	bl	10001be8 <ph_delete>
1000168c:	e7c8      	b.n	10001620 <best_effort_wfe_or_timeout+0x150>
1000168e:	46c0      	nop			; (mov r8, r8)
10001690:	20001030 	.word	0x20001030
10001694:	40054000 	.word	0x40054000
10001698:	0fffffff 	.word	0x0fffffff
1000169c:	10000dd1 	.word	0x10000dd1

100016a0 <hardware_alarm_irq_handler>:
100016a0:	b5f0      	push	{r4, r5, r6, r7, lr}
100016a2:	46c6      	mov	lr, r8
100016a4:	b500      	push	{lr}
100016a6:	f3ef 8305 	mrs	r3, IPSR
100016aa:	223f      	movs	r2, #63	; 0x3f
100016ac:	4013      	ands	r3, r2
100016ae:	0018      	movs	r0, r3
100016b0:	3810      	subs	r0, #16
100016b2:	f3ef 8710 	mrs	r7, PRIMASK
100016b6:	b672      	cpsid	i
100016b8:	4d1f      	ldr	r5, [pc, #124]	; (10001738 <hardware_alarm_irq_handler+0x98>)
100016ba:	682a      	ldr	r2, [r5, #0]
100016bc:	2a00      	cmp	r2, #0
100016be:	d0fc      	beq.n	100016ba <hardware_alarm_irq_handler+0x1a>
100016c0:	f3bf 8f5f 	dmb	sy
100016c4:	2201      	movs	r2, #1
100016c6:	0011      	movs	r1, r2
100016c8:	4081      	lsls	r1, r0
100016ca:	4688      	mov	r8, r1
100016cc:	4644      	mov	r4, r8
100016ce:	491b      	ldr	r1, [pc, #108]	; (1000173c <hardware_alarm_irq_handler+0x9c>)
100016d0:	634c      	str	r4, [r1, #52]	; 0x34
100016d2:	4c1b      	ldr	r4, [pc, #108]	; (10001740 <hardware_alarm_irq_handler+0xa0>)
100016d4:	7826      	ldrb	r6, [r4, #0]
100016d6:	46a4      	mov	ip, r4
100016d8:	0034      	movs	r4, r6
100016da:	40c4      	lsrs	r4, r0
100016dc:	4022      	ands	r2, r4
100016de:	d107      	bne.n	100016f0 <hardware_alarm_irq_handler+0x50>
100016e0:	f3bf 8f5f 	dmb	sy
100016e4:	602a      	str	r2, [r5, #0]
100016e6:	f387 8810 	msr	PRIMASK, r7
100016ea:	bc04      	pop	{r2}
100016ec:	4690      	mov	r8, r2
100016ee:	bdf0      	pop	{r4, r5, r6, r7, pc}
100016f0:	6a4c      	ldr	r4, [r1, #36]	; 0x24
100016f2:	4914      	ldr	r1, [pc, #80]	; (10001744 <hardware_alarm_irq_handler+0xa4>)
100016f4:	0082      	lsls	r2, r0, #2
100016f6:	5851      	ldr	r1, [r2, r1]
100016f8:	428c      	cmp	r4, r1
100016fa:	d30f      	bcc.n	1000171c <hardware_alarm_irq_handler+0x7c>
100016fc:	4b12      	ldr	r3, [pc, #72]	; (10001748 <hardware_alarm_irq_handler+0xa8>)
100016fe:	58d2      	ldr	r2, [r2, r3]
10001700:	4643      	mov	r3, r8
10001702:	439e      	bics	r6, r3
10001704:	4663      	mov	r3, ip
10001706:	701e      	strb	r6, [r3, #0]
10001708:	f3bf 8f5f 	dmb	sy
1000170c:	2300      	movs	r3, #0
1000170e:	602b      	str	r3, [r5, #0]
10001710:	f387 8810 	msr	PRIMASK, r7
10001714:	2a00      	cmp	r2, #0
10001716:	d0e8      	beq.n	100016ea <hardware_alarm_irq_handler+0x4a>
10001718:	4790      	blx	r2
1000171a:	e7e6      	b.n	100016ea <hardware_alarm_irq_handler+0x4a>
1000171c:	4a0b      	ldr	r2, [pc, #44]	; (1000174c <hardware_alarm_irq_handler+0xac>)
1000171e:	009b      	lsls	r3, r3, #2
10001720:	4694      	mov	ip, r2
10001722:	4463      	add	r3, ip
10001724:	681a      	ldr	r2, [r3, #0]
10001726:	601a      	str	r2, [r3, #0]
10001728:	f3bf 8f5f 	dmb	sy
1000172c:	2300      	movs	r3, #0
1000172e:	602b      	str	r3, [r5, #0]
10001730:	f387 8810 	msr	PRIMASK, r7
10001734:	e7d9      	b.n	100016ea <hardware_alarm_irq_handler+0x4a>
10001736:	46c0      	nop			; (mov r8, r8)
10001738:	d0000128 	.word	0xd0000128
1000173c:	40054000 	.word	0x40054000
10001740:	20001720 	.word	0x20001720
10001744:	20001708 	.word	0x20001708
10001748:	20000ff4 	.word	0x20000ff4
1000174c:	40053fd0 	.word	0x40053fd0

10001750 <hardware_alarm_claim>:
10001750:	b510      	push	{r4, lr}
10001752:	0001      	movs	r1, r0
10001754:	4a02      	ldr	r2, [pc, #8]	; (10001760 <hardware_alarm_claim+0x10>)
10001756:	4803      	ldr	r0, [pc, #12]	; (10001764 <hardware_alarm_claim+0x14>)
10001758:	f7ff fa7e 	bl	10000c58 <hw_claim_or_assert>
1000175c:	bd10      	pop	{r4, pc}
1000175e:	46c0      	nop			; (mov r8, r8)
10001760:	1000914c 	.word	0x1000914c
10001764:	2000171e 	.word	0x2000171e

10001768 <time_us_64>:
10001768:	4a04      	ldr	r2, [pc, #16]	; (1000177c <time_us_64+0x14>)
1000176a:	6a51      	ldr	r1, [r2, #36]	; 0x24
1000176c:	e000      	b.n	10001770 <time_us_64+0x8>
1000176e:	0019      	movs	r1, r3
10001770:	6a90      	ldr	r0, [r2, #40]	; 0x28
10001772:	6a53      	ldr	r3, [r2, #36]	; 0x24
10001774:	4299      	cmp	r1, r3
10001776:	d1fa      	bne.n	1000176e <time_us_64+0x6>
10001778:	4770      	bx	lr
1000177a:	46c0      	nop			; (mov r8, r8)
1000177c:	40054000 	.word	0x40054000

10001780 <busy_wait_until>:
10001780:	4a06      	ldr	r2, [pc, #24]	; (1000179c <busy_wait_until+0x1c>)
10001782:	6a53      	ldr	r3, [r2, #36]	; 0x24
10001784:	4299      	cmp	r1, r3
10001786:	d8fc      	bhi.n	10001782 <busy_wait_until+0x2>
10001788:	d107      	bne.n	1000179a <busy_wait_until+0x1a>
1000178a:	4b04      	ldr	r3, [pc, #16]	; (1000179c <busy_wait_until+0x1c>)
1000178c:	e002      	b.n	10001794 <busy_wait_until+0x14>
1000178e:	6a5a      	ldr	r2, [r3, #36]	; 0x24
10001790:	4291      	cmp	r1, r2
10001792:	d102      	bne.n	1000179a <busy_wait_until+0x1a>
10001794:	6a9a      	ldr	r2, [r3, #40]	; 0x28
10001796:	4282      	cmp	r2, r0
10001798:	d3f9      	bcc.n	1000178e <busy_wait_until+0xe>
1000179a:	4770      	bx	lr
1000179c:	40054000 	.word	0x40054000

100017a0 <hardware_alarm_set_callback>:
100017a0:	b570      	push	{r4, r5, r6, lr}
100017a2:	0004      	movs	r4, r0
100017a4:	000d      	movs	r5, r1
100017a6:	f3ef 8610 	mrs	r6, PRIMASK
100017aa:	b672      	cpsid	i
100017ac:	4a1a      	ldr	r2, [pc, #104]	; (10001818 <hardware_alarm_set_callback+0x78>)
100017ae:	6813      	ldr	r3, [r2, #0]
100017b0:	2b00      	cmp	r3, #0
100017b2:	d0fc      	beq.n	100017ae <hardware_alarm_set_callback+0xe>
100017b4:	f3bf 8f5f 	dmb	sy
100017b8:	2d00      	cmp	r5, #0
100017ba:	d01b      	beq.n	100017f4 <hardware_alarm_set_callback+0x54>
100017bc:	0020      	movs	r0, r4
100017be:	f000 fe3f 	bl	10002440 <irq_get_vtable_handler>
100017c2:	4916      	ldr	r1, [pc, #88]	; (1000181c <hardware_alarm_set_callback+0x7c>)
100017c4:	4288      	cmp	r0, r1
100017c6:	d00a      	beq.n	100017de <hardware_alarm_set_callback+0x3e>
100017c8:	0020      	movs	r0, r4
100017ca:	f000 fe41 	bl	10002450 <irq_set_exclusive_handler>
100017ce:	2101      	movs	r1, #1
100017d0:	0020      	movs	r0, r4
100017d2:	f000 fe1b 	bl	1000240c <irq_set_enabled>
100017d6:	2301      	movs	r3, #1
100017d8:	40a3      	lsls	r3, r4
100017da:	4a11      	ldr	r2, [pc, #68]	; (10001820 <hardware_alarm_set_callback+0x80>)
100017dc:	6013      	str	r3, [r2, #0]
100017de:	4b11      	ldr	r3, [pc, #68]	; (10001824 <hardware_alarm_set_callback+0x84>)
100017e0:	00a4      	lsls	r4, r4, #2
100017e2:	50e5      	str	r5, [r4, r3]
100017e4:	f3bf 8f5f 	dmb	sy
100017e8:	2200      	movs	r2, #0
100017ea:	4b0b      	ldr	r3, [pc, #44]	; (10001818 <hardware_alarm_set_callback+0x78>)
100017ec:	601a      	str	r2, [r3, #0]
100017ee:	f386 8810 	msr	PRIMASK, r6
100017f2:	bd70      	pop	{r4, r5, r6, pc}
100017f4:	4b0b      	ldr	r3, [pc, #44]	; (10001824 <hardware_alarm_set_callback+0x84>)
100017f6:	00a2      	lsls	r2, r4, #2
100017f8:	50d5      	str	r5, [r2, r3]
100017fa:	2201      	movs	r2, #1
100017fc:	40a2      	lsls	r2, r4
100017fe:	490a      	ldr	r1, [pc, #40]	; (10001828 <hardware_alarm_set_callback+0x88>)
10001800:	0020      	movs	r0, r4
10001802:	780b      	ldrb	r3, [r1, #0]
10001804:	4393      	bics	r3, r2
10001806:	700b      	strb	r3, [r1, #0]
10001808:	4904      	ldr	r1, [pc, #16]	; (1000181c <hardware_alarm_set_callback+0x7c>)
1000180a:	f000 fe4b 	bl	100024a4 <irq_remove_handler>
1000180e:	2100      	movs	r1, #0
10001810:	0020      	movs	r0, r4
10001812:	f000 fdfb 	bl	1000240c <irq_set_enabled>
10001816:	e7e5      	b.n	100017e4 <hardware_alarm_set_callback+0x44>
10001818:	d0000128 	.word	0xd0000128
1000181c:	100016a1 	.word	0x100016a1
10001820:	40056038 	.word	0x40056038
10001824:	20000ff4 	.word	0x20000ff4
10001828:	20001720 	.word	0x20001720

1000182c <hardware_alarm_set_target>:
1000182c:	b5f0      	push	{r4, r5, r6, r7, lr}
1000182e:	46ce      	mov	lr, r9
10001830:	4647      	mov	r7, r8
10001832:	4c27      	ldr	r4, [pc, #156]	; (100018d0 <hardware_alarm_set_target+0xa4>)
10001834:	b580      	push	{r7, lr}
10001836:	6a65      	ldr	r5, [r4, #36]	; 0x24
10001838:	e000      	b.n	1000183c <hardware_alarm_set_target+0x10>
1000183a:	000d      	movs	r5, r1
1000183c:	6aa6      	ldr	r6, [r4, #40]	; 0x28
1000183e:	6a61      	ldr	r1, [r4, #36]	; 0x24
10001840:	42a9      	cmp	r1, r5
10001842:	d1fa      	bne.n	1000183a <hardware_alarm_set_target+0xe>
10001844:	42ab      	cmp	r3, r5
10001846:	d935      	bls.n	100018b4 <hardware_alarm_set_target+0x88>
10001848:	f3ef 8810 	mrs	r8, PRIMASK
1000184c:	b672      	cpsid	i
1000184e:	4c21      	ldr	r4, [pc, #132]	; (100018d4 <hardware_alarm_set_target+0xa8>)
10001850:	6821      	ldr	r1, [r4, #0]
10001852:	2900      	cmp	r1, #0
10001854:	d0fc      	beq.n	10001850 <hardware_alarm_set_target+0x24>
10001856:	f3bf 8f5f 	dmb	sy
1000185a:	2501      	movs	r5, #1
1000185c:	4085      	lsls	r5, r0
1000185e:	491c      	ldr	r1, [pc, #112]	; (100018d0 <hardware_alarm_set_target+0xa4>)
10001860:	4e1d      	ldr	r6, [pc, #116]	; (100018d8 <hardware_alarm_set_target+0xac>)
10001862:	634d      	str	r5, [r1, #52]	; 0x34
10001864:	7837      	ldrb	r7, [r6, #0]
10001866:	b2ec      	uxtb	r4, r5
10001868:	46a4      	mov	ip, r4
1000186a:	433c      	orrs	r4, r7
1000186c:	7034      	strb	r4, [r6, #0]
1000186e:	1d04      	adds	r4, r0, #4
10001870:	00a4      	lsls	r4, r4, #2
10001872:	5062      	str	r2, [r4, r1]
10001874:	4c19      	ldr	r4, [pc, #100]	; (100018dc <hardware_alarm_set_target+0xb0>)
10001876:	0080      	lsls	r0, r0, #2
10001878:	5103      	str	r3, [r0, r4]
1000187a:	6a0c      	ldr	r4, [r1, #32]
1000187c:	2000      	movs	r0, #0
1000187e:	422c      	tst	r4, r5
10001880:	d00d      	beq.n	1000189e <hardware_alarm_set_target+0x72>
10001882:	6a4c      	ldr	r4, [r1, #36]	; 0x24
10001884:	e000      	b.n	10001888 <hardware_alarm_set_target+0x5c>
10001886:	0004      	movs	r4, r0
10001888:	6a88      	ldr	r0, [r1, #40]	; 0x28
1000188a:	4681      	mov	r9, r0
1000188c:	6a48      	ldr	r0, [r1, #36]	; 0x24
1000188e:	42a0      	cmp	r0, r4
10001890:	d1f9      	bne.n	10001886 <hardware_alarm_set_target+0x5a>
10001892:	42a3      	cmp	r3, r4
10001894:	d802      	bhi.n	1000189c <hardware_alarm_set_target+0x70>
10001896:	d113      	bne.n	100018c0 <hardware_alarm_set_target+0x94>
10001898:	454a      	cmp	r2, r9
1000189a:	d911      	bls.n	100018c0 <hardware_alarm_set_target+0x94>
1000189c:	2000      	movs	r0, #0
1000189e:	f3bf 8f5f 	dmb	sy
100018a2:	2200      	movs	r2, #0
100018a4:	4b0b      	ldr	r3, [pc, #44]	; (100018d4 <hardware_alarm_set_target+0xa8>)
100018a6:	601a      	str	r2, [r3, #0]
100018a8:	f388 8810 	msr	PRIMASK, r8
100018ac:	bc0c      	pop	{r2, r3}
100018ae:	4690      	mov	r8, r2
100018b0:	4699      	mov	r9, r3
100018b2:	bdf0      	pop	{r4, r5, r6, r7, pc}
100018b4:	42ab      	cmp	r3, r5
100018b6:	d101      	bne.n	100018bc <hardware_alarm_set_target+0x90>
100018b8:	42b2      	cmp	r2, r6
100018ba:	d8c5      	bhi.n	10001848 <hardware_alarm_set_target+0x1c>
100018bc:	2001      	movs	r0, #1
100018be:	e7f5      	b.n	100018ac <hardware_alarm_set_target+0x80>
100018c0:	4b03      	ldr	r3, [pc, #12]	; (100018d0 <hardware_alarm_set_target+0xa4>)
100018c2:	2001      	movs	r0, #1
100018c4:	621d      	str	r5, [r3, #32]
100018c6:	635d      	str	r5, [r3, #52]	; 0x34
100018c8:	4663      	mov	r3, ip
100018ca:	439f      	bics	r7, r3
100018cc:	7037      	strb	r7, [r6, #0]
100018ce:	e7e6      	b.n	1000189e <hardware_alarm_set_target+0x72>
100018d0:	40054000 	.word	0x40054000
100018d4:	d0000128 	.word	0xd0000128
100018d8:	20001720 	.word	0x20001720
100018dc:	20001708 	.word	0x20001708

100018e0 <hardware_alarm_cancel>:
100018e0:	b510      	push	{r4, lr}
100018e2:	f3ef 8410 	mrs	r4, PRIMASK
100018e6:	b672      	cpsid	i
100018e8:	490a      	ldr	r1, [pc, #40]	; (10001914 <hardware_alarm_cancel+0x34>)
100018ea:	680b      	ldr	r3, [r1, #0]
100018ec:	2b00      	cmp	r3, #0
100018ee:	d0fc      	beq.n	100018ea <hardware_alarm_cancel+0xa>
100018f0:	f3bf 8f5f 	dmb	sy
100018f4:	2301      	movs	r3, #1
100018f6:	4083      	lsls	r3, r0
100018f8:	4a07      	ldr	r2, [pc, #28]	; (10001918 <hardware_alarm_cancel+0x38>)
100018fa:	4808      	ldr	r0, [pc, #32]	; (1000191c <hardware_alarm_cancel+0x3c>)
100018fc:	6213      	str	r3, [r2, #32]
100018fe:	7802      	ldrb	r2, [r0, #0]
10001900:	439a      	bics	r2, r3
10001902:	7002      	strb	r2, [r0, #0]
10001904:	f3bf 8f5f 	dmb	sy
10001908:	2300      	movs	r3, #0
1000190a:	600b      	str	r3, [r1, #0]
1000190c:	f384 8810 	msr	PRIMASK, r4
10001910:	bd10      	pop	{r4, pc}
10001912:	46c0      	nop			; (mov r8, r8)
10001914:	d0000128 	.word	0xd0000128
10001918:	40054000 	.word	0x40054000
1000191c:	20001720 	.word	0x20001720

10001920 <lock_init>:
10001920:	4b02      	ldr	r3, [pc, #8]	; (1000192c <lock_init+0xc>)
10001922:	469c      	mov	ip, r3
10001924:	4461      	add	r1, ip
10001926:	0089      	lsls	r1, r1, #2
10001928:	6001      	str	r1, [r0, #0]
1000192a:	4770      	bx	lr
1000192c:	34000040 	.word	0x34000040

10001930 <mutex_init>:
10001930:	b510      	push	{r4, lr}
10001932:	0004      	movs	r4, r0
10001934:	f7ff fa0e 	bl	10000d54 <next_striped_spin_lock_num>
10001938:	0001      	movs	r1, r0
1000193a:	0020      	movs	r0, r4
1000193c:	f7ff fff0 	bl	10001920 <lock_init>
10001940:	23ff      	movs	r3, #255	; 0xff
10001942:	7123      	strb	r3, [r4, #4]
10001944:	f3bf 8f5f 	dmb	sy
10001948:	bd10      	pop	{r4, pc}
1000194a:	46c0      	nop			; (mov r8, r8)

1000194c <critical_section_init>:
1000194c:	b510      	push	{r4, lr}
1000194e:	0004      	movs	r4, r0
10001950:	2001      	movs	r0, #1
10001952:	f7ff fa0b 	bl	10000d6c <spin_lock_claim_unused>
10001956:	0001      	movs	r1, r0
10001958:	0020      	movs	r0, r4
1000195a:	f7ff ffe1 	bl	10001920 <lock_init>
1000195e:	f3bf 8f5f 	dmb	sy
10001962:	bd10      	pop	{r4, pc}

10001964 <ph_merge_two_pass.part.3>:
10001964:	b5f8      	push	{r3, r4, r5, r6, r7, lr}
10001966:	4647      	mov	r7, r8
10001968:	46ce      	mov	lr, r9
1000196a:	b580      	push	{r7, lr}
1000196c:	004c      	lsls	r4, r1, #1
1000196e:	6803      	ldr	r3, [r0, #0]
10001970:	1864      	adds	r4, r4, r1
10001972:	3c03      	subs	r4, #3
10001974:	191a      	adds	r2, r3, r4
10001976:	7856      	ldrb	r6, [r2, #1]
10001978:	0007      	movs	r7, r0
1000197a:	000d      	movs	r5, r1
1000197c:	2e00      	cmp	r6, #0
1000197e:	d104      	bne.n	1000198a <ph_merge_two_pass.part.3+0x26>
10001980:	0028      	movs	r0, r5
10001982:	bc0c      	pop	{r2, r3}
10001984:	4690      	mov	r8, r2
10001986:	4699      	mov	r9, r3
10001988:	bdf8      	pop	{r3, r4, r5, r6, r7, pc}
1000198a:	0071      	lsls	r1, r6, #1
1000198c:	1989      	adds	r1, r1, r6
1000198e:	3903      	subs	r1, #3
10001990:	4688      	mov	r8, r1
10001992:	4443      	add	r3, r8
10001994:	7859      	ldrb	r1, [r3, #1]
10001996:	4689      	mov	r9, r1
10001998:	2100      	movs	r1, #0
1000199a:	7059      	strb	r1, [r3, #1]
1000199c:	7051      	strb	r1, [r2, #1]
1000199e:	2d00      	cmp	r5, #0
100019a0:	d011      	beq.n	100019c6 <ph_merge_two_pass.part.3+0x62>
100019a2:	687b      	ldr	r3, [r7, #4]
100019a4:	0032      	movs	r2, r6
100019a6:	0029      	movs	r1, r5
100019a8:	6880      	ldr	r0, [r0, #8]
100019aa:	4798      	blx	r3
100019ac:	683b      	ldr	r3, [r7, #0]
100019ae:	2800      	cmp	r0, #0
100019b0:	d032      	beq.n	10001a18 <ph_merge_two_pass.part.3+0xb4>
100019b2:	191a      	adds	r2, r3, r4
100019b4:	4443      	add	r3, r8
100019b6:	709d      	strb	r5, [r3, #2]
100019b8:	7811      	ldrb	r1, [r2, #0]
100019ba:	2900      	cmp	r1, #0
100019bc:	d000      	beq.n	100019c0 <ph_merge_two_pass.part.3+0x5c>
100019be:	7059      	strb	r1, [r3, #1]
100019c0:	7016      	strb	r6, [r2, #0]
100019c2:	46a0      	mov	r8, r4
100019c4:	e000      	b.n	100019c8 <ph_merge_two_pass.part.3+0x64>
100019c6:	0035      	movs	r5, r6
100019c8:	464b      	mov	r3, r9
100019ca:	2b00      	cmp	r3, #0
100019cc:	d0d8      	beq.n	10001980 <ph_merge_two_pass.part.3+0x1c>
100019ce:	4649      	mov	r1, r9
100019d0:	0038      	movs	r0, r7
100019d2:	f7ff ffc7 	bl	10001964 <ph_merge_two_pass.part.3>
100019d6:	1e04      	subs	r4, r0, #0
100019d8:	d0d2      	beq.n	10001980 <ph_merge_two_pass.part.3+0x1c>
100019da:	0002      	movs	r2, r0
100019dc:	687b      	ldr	r3, [r7, #4]
100019de:	0029      	movs	r1, r5
100019e0:	68b8      	ldr	r0, [r7, #8]
100019e2:	4798      	blx	r3
100019e4:	0063      	lsls	r3, r4, #1
100019e6:	191b      	adds	r3, r3, r4
100019e8:	3b03      	subs	r3, #3
100019ea:	683a      	ldr	r2, [r7, #0]
100019ec:	2800      	cmp	r0, #0
100019ee:	d109      	bne.n	10001a04 <ph_merge_two_pass.part.3+0xa0>
100019f0:	18d3      	adds	r3, r2, r3
100019f2:	4442      	add	r2, r8
100019f4:	7094      	strb	r4, [r2, #2]
100019f6:	7819      	ldrb	r1, [r3, #0]
100019f8:	2900      	cmp	r1, #0
100019fa:	d000      	beq.n	100019fe <ph_merge_two_pass.part.3+0x9a>
100019fc:	7051      	strb	r1, [r2, #1]
100019fe:	701d      	strb	r5, [r3, #0]
10001a00:	0025      	movs	r5, r4
10001a02:	e7bd      	b.n	10001980 <ph_merge_two_pass.part.3+0x1c>
10001a04:	4641      	mov	r1, r8
10001a06:	18d3      	adds	r3, r2, r3
10001a08:	1851      	adds	r1, r2, r1
10001a0a:	709d      	strb	r5, [r3, #2]
10001a0c:	780a      	ldrb	r2, [r1, #0]
10001a0e:	2a00      	cmp	r2, #0
10001a10:	d000      	beq.n	10001a14 <ph_merge_two_pass.part.3+0xb0>
10001a12:	705a      	strb	r2, [r3, #1]
10001a14:	700c      	strb	r4, [r1, #0]
10001a16:	e7b3      	b.n	10001980 <ph_merge_two_pass.part.3+0x1c>
10001a18:	4642      	mov	r2, r8
10001a1a:	191c      	adds	r4, r3, r4
10001a1c:	189a      	adds	r2, r3, r2
10001a1e:	70a6      	strb	r6, [r4, #2]
10001a20:	7813      	ldrb	r3, [r2, #0]
10001a22:	2b00      	cmp	r3, #0
10001a24:	d000      	beq.n	10001a28 <ph_merge_two_pass.part.3+0xc4>
10001a26:	7063      	strb	r3, [r4, #1]
10001a28:	7015      	strb	r5, [r2, #0]
10001a2a:	0035      	movs	r5, r6
10001a2c:	e7cc      	b.n	100019c8 <ph_merge_two_pass.part.3+0x64>
10001a2e:	46c0      	nop			; (mov r8, r8)

10001a30 <ph_create>:
10001a30:	b5f0      	push	{r4, r5, r6, r7, lr}
10001a32:	46c6      	mov	lr, r8
10001a34:	4688      	mov	r8, r1
10001a36:	0005      	movs	r5, r0
10001a38:	b500      	push	{lr}
10001a3a:	2110      	movs	r1, #16
10001a3c:	2001      	movs	r0, #1
10001a3e:	0017      	movs	r7, r2
10001a40:	f003 fcd0 	bl	100053e4 <__wrap_calloc>
10001a44:	4643      	mov	r3, r8
10001a46:	b2ee      	uxtb	r6, r5
10001a48:	0004      	movs	r4, r0
10001a4a:	6043      	str	r3, [r0, #4]
10001a4c:	7306      	strb	r6, [r0, #12]
10001a4e:	2103      	movs	r1, #3
10001a50:	0028      	movs	r0, r5
10001a52:	f003 fcc7 	bl	100053e4 <__wrap_calloc>
10001a56:	2300      	movs	r3, #0
10001a58:	21ff      	movs	r1, #255	; 0xff
10001a5a:	7363      	strb	r3, [r4, #13]
10001a5c:	3301      	adds	r3, #1
10001a5e:	6020      	str	r0, [r4, #0]
10001a60:	60a7      	str	r7, [r4, #8]
10001a62:	73a3      	strb	r3, [r4, #14]
10001a64:	73e6      	strb	r6, [r4, #15]
10001a66:	4029      	ands	r1, r5
10001a68:	2901      	cmp	r1, #1
10001a6a:	d907      	bls.n	10001a7c <ph_create+0x4c>
10001a6c:	1c42      	adds	r2, r0, #1
10001a6e:	1c4d      	adds	r5, r1, #1
10001a70:	3301      	adds	r3, #1
10001a72:	7013      	strb	r3, [r2, #0]
10001a74:	3301      	adds	r3, #1
10001a76:	3203      	adds	r2, #3
10001a78:	429d      	cmp	r5, r3
10001a7a:	d1fa      	bne.n	10001a72 <ph_create+0x42>
10001a7c:	004b      	lsls	r3, r1, #1
10001a7e:	1859      	adds	r1, r3, r1
10001a80:	2300      	movs	r3, #0
10001a82:	1840      	adds	r0, r0, r1
10001a84:	3803      	subs	r0, #3
10001a86:	7043      	strb	r3, [r0, #1]
10001a88:	0020      	movs	r0, r4
10001a8a:	bc04      	pop	{r2}
10001a8c:	4690      	mov	r8, r2
10001a8e:	bdf0      	pop	{r4, r5, r6, r7, pc}

10001a90 <ph_remove_head_reserve>:
10001a90:	b5f0      	push	{r4, r5, r6, r7, lr}
10001a92:	464e      	mov	r6, r9
10001a94:	4657      	mov	r7, sl
10001a96:	4645      	mov	r5, r8
10001a98:	46de      	mov	lr, fp
10001a9a:	b5e0      	push	{r5, r6, r7, lr}
10001a9c:	7b46      	ldrb	r6, [r0, #13]
10001a9e:	6803      	ldr	r3, [r0, #0]
10001aa0:	0074      	lsls	r4, r6, #1
10001aa2:	19a4      	adds	r4, r4, r6
10001aa4:	3c03      	subs	r4, #3
10001aa6:	191a      	adds	r2, r3, r4
10001aa8:	7817      	ldrb	r7, [r2, #0]
10001aaa:	b083      	sub	sp, #12
10001aac:	0005      	movs	r5, r0
10001aae:	4689      	mov	r9, r1
10001ab0:	2f00      	cmp	r7, #0
10001ab2:	d11e      	bne.n	10001af2 <ph_remove_head_reserve+0x62>
10001ab4:	2900      	cmp	r1, #0
10001ab6:	d111      	bne.n	10001adc <ph_remove_head_reserve+0x4c>
10001ab8:	7bc0      	ldrb	r0, [r0, #15]
10001aba:	2800      	cmp	r0, #0
10001abc:	d02a      	beq.n	10001b14 <ph_remove_head_reserve+0x84>
10001abe:	0041      	lsls	r1, r0, #1
10001ac0:	1809      	adds	r1, r1, r0
10001ac2:	1859      	adds	r1, r3, r1
10001ac4:	3903      	subs	r1, #3
10001ac6:	704e      	strb	r6, [r1, #1]
10001ac8:	73ee      	strb	r6, [r5, #15]
10001aca:	2f00      	cmp	r7, #0
10001acc:	d006      	beq.n	10001adc <ph_remove_head_reserve+0x4c>
10001ace:	0079      	lsls	r1, r7, #1
10001ad0:	19c9      	adds	r1, r1, r7
10001ad2:	3903      	subs	r1, #3
10001ad4:	4688      	mov	r8, r1
10001ad6:	2100      	movs	r1, #0
10001ad8:	4443      	add	r3, r8
10001ada:	7099      	strb	r1, [r3, #2]
10001adc:	2300      	movs	r3, #0
10001ade:	0030      	movs	r0, r6
10001ae0:	7053      	strb	r3, [r2, #1]
10001ae2:	736f      	strb	r7, [r5, #13]
10001ae4:	b003      	add	sp, #12
10001ae6:	bc3c      	pop	{r2, r3, r4, r5}
10001ae8:	4690      	mov	r8, r2
10001aea:	4699      	mov	r9, r3
10001aec:	46a2      	mov	sl, r4
10001aee:	46ab      	mov	fp, r5
10001af0:	bdf0      	pop	{r4, r5, r6, r7, pc}
10001af2:	0079      	lsls	r1, r7, #1
10001af4:	19c9      	adds	r1, r1, r7
10001af6:	3903      	subs	r1, #3
10001af8:	4688      	mov	r8, r1
10001afa:	1859      	adds	r1, r3, r1
10001afc:	7848      	ldrb	r0, [r1, #1]
10001afe:	4682      	mov	sl, r0
10001b00:	2800      	cmp	r0, #0
10001b02:	d109      	bne.n	10001b18 <ph_remove_head_reserve+0x88>
10001b04:	4649      	mov	r1, r9
10001b06:	2900      	cmp	r1, #0
10001b08:	d1e5      	bne.n	10001ad6 <ph_remove_head_reserve+0x46>
10001b0a:	7be8      	ldrb	r0, [r5, #15]
10001b0c:	2800      	cmp	r0, #0
10001b0e:	d1d6      	bne.n	10001abe <ph_remove_head_reserve+0x2e>
10001b10:	73ee      	strb	r6, [r5, #15]
10001b12:	e7dc      	b.n	10001ace <ph_remove_head_reserve+0x3e>
10001b14:	73ee      	strb	r6, [r5, #15]
10001b16:	e7e1      	b.n	10001adc <ph_remove_head_reserve+0x4c>
10001b18:	0042      	lsls	r2, r0, #1
10001b1a:	4452      	add	r2, sl
10001b1c:	3a03      	subs	r2, #3
10001b1e:	4693      	mov	fp, r2
10001b20:	445b      	add	r3, fp
10001b22:	785a      	ldrb	r2, [r3, #1]
10001b24:	9201      	str	r2, [sp, #4]
10001b26:	2200      	movs	r2, #0
10001b28:	705a      	strb	r2, [r3, #1]
10001b2a:	704a      	strb	r2, [r1, #1]
10001b2c:	686b      	ldr	r3, [r5, #4]
10001b2e:	0002      	movs	r2, r0
10001b30:	0039      	movs	r1, r7
10001b32:	68a8      	ldr	r0, [r5, #8]
10001b34:	4798      	blx	r3
10001b36:	682b      	ldr	r3, [r5, #0]
10001b38:	2800      	cmp	r0, #0
10001b3a:	d130      	bne.n	10001b9e <ph_remove_head_reserve+0x10e>
10001b3c:	4641      	mov	r1, r8
10001b3e:	4650      	mov	r0, sl
10001b40:	465a      	mov	r2, fp
10001b42:	1859      	adds	r1, r3, r1
10001b44:	189a      	adds	r2, r3, r2
10001b46:	7088      	strb	r0, [r1, #2]
10001b48:	7810      	ldrb	r0, [r2, #0]
10001b4a:	2800      	cmp	r0, #0
10001b4c:	d000      	beq.n	10001b50 <ph_remove_head_reserve+0xc0>
10001b4e:	7048      	strb	r0, [r1, #1]
10001b50:	7017      	strb	r7, [r2, #0]
10001b52:	46d8      	mov	r8, fp
10001b54:	4657      	mov	r7, sl
10001b56:	9a01      	ldr	r2, [sp, #4]
10001b58:	2a00      	cmp	r2, #0
10001b5a:	d02d      	beq.n	10001bb8 <ph_remove_head_reserve+0x128>
10001b5c:	0011      	movs	r1, r2
10001b5e:	0028      	movs	r0, r5
10001b60:	f7ff ff00 	bl	10001964 <ph_merge_two_pass.part.3>
10001b64:	4682      	mov	sl, r0
10001b66:	2800      	cmp	r0, #0
10001b68:	d025      	beq.n	10001bb6 <ph_remove_head_reserve+0x126>
10001b6a:	0002      	movs	r2, r0
10001b6c:	0039      	movs	r1, r7
10001b6e:	686b      	ldr	r3, [r5, #4]
10001b70:	68a8      	ldr	r0, [r5, #8]
10001b72:	4798      	blx	r3
10001b74:	4653      	mov	r3, sl
10001b76:	0059      	lsls	r1, r3, #1
10001b78:	4451      	add	r1, sl
10001b7a:	3903      	subs	r1, #3
10001b7c:	682b      	ldr	r3, [r5, #0]
10001b7e:	2800      	cmp	r0, #0
10001b80:	d01c      	beq.n	10001bbc <ph_remove_head_reserve+0x12c>
10001b82:	4642      	mov	r2, r8
10001b84:	1859      	adds	r1, r3, r1
10001b86:	1898      	adds	r0, r3, r2
10001b88:	708f      	strb	r7, [r1, #2]
10001b8a:	7802      	ldrb	r2, [r0, #0]
10001b8c:	4694      	mov	ip, r2
10001b8e:	191a      	adds	r2, r3, r4
10001b90:	4664      	mov	r4, ip
10001b92:	2c00      	cmp	r4, #0
10001b94:	d000      	beq.n	10001b98 <ph_remove_head_reserve+0x108>
10001b96:	704c      	strb	r4, [r1, #1]
10001b98:	4651      	mov	r1, sl
10001b9a:	7001      	strb	r1, [r0, #0]
10001b9c:	e7b2      	b.n	10001b04 <ph_remove_head_reserve+0x74>
10001b9e:	4659      	mov	r1, fp
10001ba0:	4642      	mov	r2, r8
10001ba2:	1859      	adds	r1, r3, r1
10001ba4:	189a      	adds	r2, r3, r2
10001ba6:	708f      	strb	r7, [r1, #2]
10001ba8:	7810      	ldrb	r0, [r2, #0]
10001baa:	2800      	cmp	r0, #0
10001bac:	d000      	beq.n	10001bb0 <ph_remove_head_reserve+0x120>
10001bae:	7048      	strb	r0, [r1, #1]
10001bb0:	4651      	mov	r1, sl
10001bb2:	7011      	strb	r1, [r2, #0]
10001bb4:	e7cf      	b.n	10001b56 <ph_remove_head_reserve+0xc6>
10001bb6:	682b      	ldr	r3, [r5, #0]
10001bb8:	191a      	adds	r2, r3, r4
10001bba:	e7a3      	b.n	10001b04 <ph_remove_head_reserve+0x74>
10001bbc:	185a      	adds	r2, r3, r1
10001bbe:	4498      	add	r8, r3
10001bc0:	4693      	mov	fp, r2
10001bc2:	4650      	mov	r0, sl
10001bc4:	4642      	mov	r2, r8
10001bc6:	7090      	strb	r0, [r2, #2]
10001bc8:	465a      	mov	r2, fp
10001bca:	7812      	ldrb	r2, [r2, #0]
10001bcc:	4694      	mov	ip, r2
10001bce:	4660      	mov	r0, ip
10001bd0:	191a      	adds	r2, r3, r4
10001bd2:	2800      	cmp	r0, #0
10001bd4:	d002      	beq.n	10001bdc <ph_remove_head_reserve+0x14c>
10001bd6:	4640      	mov	r0, r8
10001bd8:	4664      	mov	r4, ip
10001bda:	7044      	strb	r4, [r0, #1]
10001bdc:	4658      	mov	r0, fp
10001bde:	4688      	mov	r8, r1
10001be0:	7007      	strb	r7, [r0, #0]
10001be2:	4657      	mov	r7, sl
10001be4:	e78e      	b.n	10001b04 <ph_remove_head_reserve+0x74>
10001be6:	46c0      	nop			; (mov r8, r8)

10001be8 <ph_delete>:
10001be8:	b5f0      	push	{r4, r5, r6, r7, lr}
10001bea:	4645      	mov	r5, r8
10001bec:	46de      	mov	lr, fp
10001bee:	4657      	mov	r7, sl
10001bf0:	464e      	mov	r6, r9
10001bf2:	b5e0      	push	{r5, r6, r7, lr}
10001bf4:	000c      	movs	r4, r1
10001bf6:	b083      	sub	sp, #12
10001bf8:	0005      	movs	r5, r0
10001bfa:	2300      	movs	r3, #0
10001bfc:	2900      	cmp	r1, #0
10001bfe:	d027      	beq.n	10001c50 <ph_delete+0x68>
10001c00:	0066      	lsls	r6, r4, #1
10001c02:	7b47      	ldrb	r7, [r0, #13]
10001c04:	6801      	ldr	r1, [r0, #0]
10001c06:	1936      	adds	r6, r6, r4
10001c08:	3e03      	subs	r6, #3
10001c0a:	1988      	adds	r0, r1, r6
10001c0c:	42a7      	cmp	r7, r4
10001c0e:	d033      	beq.n	10001c78 <ph_delete+0x90>
10001c10:	7882      	ldrb	r2, [r0, #2]
10001c12:	2a00      	cmp	r2, #0
10001c14:	d01c      	beq.n	10001c50 <ph_delete+0x68>
10001c16:	0053      	lsls	r3, r2, #1
10001c18:	189b      	adds	r3, r3, r2
10001c1a:	3b03      	subs	r3, #3
10001c1c:	18cb      	adds	r3, r1, r3
10001c1e:	781a      	ldrb	r2, [r3, #0]
10001c20:	42a2      	cmp	r2, r4
10001c22:	d11f      	bne.n	10001c64 <ph_delete+0x7c>
10001c24:	7842      	ldrb	r2, [r0, #1]
10001c26:	701a      	strb	r2, [r3, #0]
10001c28:	2300      	movs	r3, #0
10001c2a:	7802      	ldrb	r2, [r0, #0]
10001c2c:	7083      	strb	r3, [r0, #2]
10001c2e:	7043      	strb	r3, [r0, #1]
10001c30:	4691      	mov	r9, r2
10001c32:	2a00      	cmp	r2, #0
10001c34:	d133      	bne.n	10001c9e <ph_delete+0xb6>
10001c36:	7bea      	ldrb	r2, [r5, #15]
10001c38:	2a00      	cmp	r2, #0
10001c3a:	d066      	beq.n	10001d0a <ph_delete+0x122>
10001c3c:	0053      	lsls	r3, r2, #1
10001c3e:	189b      	adds	r3, r3, r2
10001c40:	18c9      	adds	r1, r1, r3
10001c42:	3903      	subs	r1, #3
10001c44:	704c      	strb	r4, [r1, #1]
10001c46:	73ec      	strb	r4, [r5, #15]
10001c48:	2300      	movs	r3, #0
10001c4a:	7043      	strb	r3, [r0, #1]
10001c4c:	2301      	movs	r3, #1
10001c4e:	736f      	strb	r7, [r5, #13]
10001c50:	0018      	movs	r0, r3
10001c52:	b003      	add	sp, #12
10001c54:	bc3c      	pop	{r2, r3, r4, r5}
10001c56:	4690      	mov	r8, r2
10001c58:	4699      	mov	r9, r3
10001c5a:	46a2      	mov	sl, r4
10001c5c:	46ab      	mov	fp, r5
10001c5e:	bdf0      	pop	{r4, r5, r6, r7, pc}
10001c60:	2a00      	cmp	r2, #0
10001c62:	d0e1      	beq.n	10001c28 <ph_delete+0x40>
10001c64:	0053      	lsls	r3, r2, #1
10001c66:	189b      	adds	r3, r3, r2
10001c68:	3b03      	subs	r3, #3
10001c6a:	18cb      	adds	r3, r1, r3
10001c6c:	785a      	ldrb	r2, [r3, #1]
10001c6e:	42a2      	cmp	r2, r4
10001c70:	d1f6      	bne.n	10001c60 <ph_delete+0x78>
10001c72:	7842      	ldrb	r2, [r0, #1]
10001c74:	705a      	strb	r2, [r3, #1]
10001c76:	e7d7      	b.n	10001c28 <ph_delete+0x40>
10001c78:	7802      	ldrb	r2, [r0, #0]
10001c7a:	9201      	str	r2, [sp, #4]
10001c7c:	2a00      	cmp	r2, #0
10001c7e:	d146      	bne.n	10001d0e <ph_delete+0x126>
10001c80:	7bea      	ldrb	r2, [r5, #15]
10001c82:	2a00      	cmp	r2, #0
10001c84:	d03f      	beq.n	10001d06 <ph_delete+0x11e>
10001c86:	0053      	lsls	r3, r2, #1
10001c88:	189b      	adds	r3, r3, r2
10001c8a:	18c9      	adds	r1, r1, r3
10001c8c:	3903      	subs	r1, #3
10001c8e:	704f      	strb	r7, [r1, #1]
10001c90:	73ef      	strb	r7, [r5, #15]
10001c92:	2300      	movs	r3, #0
10001c94:	7043      	strb	r3, [r0, #1]
10001c96:	9b01      	ldr	r3, [sp, #4]
10001c98:	736b      	strb	r3, [r5, #13]
10001c9a:	2301      	movs	r3, #1
10001c9c:	e7d8      	b.n	10001c50 <ph_delete+0x68>
10001c9e:	0052      	lsls	r2, r2, #1
10001ca0:	444a      	add	r2, r9
10001ca2:	3a03      	subs	r2, #3
10001ca4:	4690      	mov	r8, r2
10001ca6:	188a      	adds	r2, r1, r2
10001ca8:	7857      	ldrb	r7, [r2, #1]
10001caa:	2f00      	cmp	r7, #0
10001cac:	d142      	bne.n	10001d34 <ph_delete+0x14c>
10001cae:	7beb      	ldrb	r3, [r5, #15]
10001cb0:	2b00      	cmp	r3, #0
10001cb2:	d000      	beq.n	10001cb6 <ph_delete+0xce>
10001cb4:	e129      	b.n	10001f0a <ph_delete+0x322>
10001cb6:	464f      	mov	r7, r9
10001cb8:	7b6e      	ldrb	r6, [r5, #13]
10001cba:	73ec      	strb	r4, [r5, #15]
10001cbc:	2300      	movs	r3, #0
10001cbe:	7093      	strb	r3, [r2, #2]
10001cc0:	7043      	strb	r3, [r0, #1]
10001cc2:	2e00      	cmp	r6, #0
10001cc4:	d0c2      	beq.n	10001c4c <ph_delete+0x64>
10001cc6:	003a      	movs	r2, r7
10001cc8:	686b      	ldr	r3, [r5, #4]
10001cca:	0031      	movs	r1, r6
10001ccc:	68a8      	ldr	r0, [r5, #8]
10001cce:	4798      	blx	r3
10001cd0:	0073      	lsls	r3, r6, #1
10001cd2:	199b      	adds	r3, r3, r6
10001cd4:	3b03      	subs	r3, #3
10001cd6:	682a      	ldr	r2, [r5, #0]
10001cd8:	2800      	cmp	r0, #0
10001cda:	d008      	beq.n	10001cee <ph_delete+0x106>
10001cdc:	18d3      	adds	r3, r2, r3
10001cde:	4442      	add	r2, r8
10001ce0:	7096      	strb	r6, [r2, #2]
10001ce2:	7819      	ldrb	r1, [r3, #0]
10001ce4:	2900      	cmp	r1, #0
10001ce6:	d10c      	bne.n	10001d02 <ph_delete+0x11a>
10001ce8:	701f      	strb	r7, [r3, #0]
10001cea:	0037      	movs	r7, r6
10001cec:	e7ae      	b.n	10001c4c <ph_delete+0x64>
10001cee:	4641      	mov	r1, r8
10001cf0:	18d3      	adds	r3, r2, r3
10001cf2:	1851      	adds	r1, r2, r1
10001cf4:	709f      	strb	r7, [r3, #2]
10001cf6:	780a      	ldrb	r2, [r1, #0]
10001cf8:	2a00      	cmp	r2, #0
10001cfa:	d000      	beq.n	10001cfe <ph_delete+0x116>
10001cfc:	705a      	strb	r2, [r3, #1]
10001cfe:	700e      	strb	r6, [r1, #0]
10001d00:	e7a4      	b.n	10001c4c <ph_delete+0x64>
10001d02:	7051      	strb	r1, [r2, #1]
10001d04:	e7f0      	b.n	10001ce8 <ph_delete+0x100>
10001d06:	73ef      	strb	r7, [r5, #15]
10001d08:	e7c3      	b.n	10001c92 <ph_delete+0xaa>
10001d0a:	73ec      	strb	r4, [r5, #15]
10001d0c:	e79c      	b.n	10001c48 <ph_delete+0x60>
10001d0e:	0014      	movs	r4, r2
10001d10:	46a4      	mov	ip, r4
10001d12:	0052      	lsls	r2, r2, #1
10001d14:	4462      	add	r2, ip
10001d16:	3a03      	subs	r2, #3
10001d18:	4690      	mov	r8, r2
10001d1a:	188a      	adds	r2, r1, r2
10001d1c:	7854      	ldrb	r4, [r2, #1]
10001d1e:	46a1      	mov	r9, r4
10001d20:	2c00      	cmp	r4, #0
10001d22:	d158      	bne.n	10001dd6 <ph_delete+0x1ee>
10001d24:	7beb      	ldrb	r3, [r5, #15]
10001d26:	2b00      	cmp	r3, #0
10001d28:	d000      	beq.n	10001d2c <ph_delete+0x144>
10001d2a:	e0f7      	b.n	10001f1c <ph_delete+0x334>
10001d2c:	73ef      	strb	r7, [r5, #15]
10001d2e:	2300      	movs	r3, #0
10001d30:	7093      	strb	r3, [r2, #2]
10001d32:	e7ae      	b.n	10001c92 <ph_delete+0xaa>
10001d34:	0078      	lsls	r0, r7, #1
10001d36:	19c0      	adds	r0, r0, r7
10001d38:	3803      	subs	r0, #3
10001d3a:	4682      	mov	sl, r0
10001d3c:	4451      	add	r1, sl
10001d3e:	7848      	ldrb	r0, [r1, #1]
10001d40:	704b      	strb	r3, [r1, #1]
10001d42:	7053      	strb	r3, [r2, #1]
10001d44:	686b      	ldr	r3, [r5, #4]
10001d46:	4683      	mov	fp, r0
10001d48:	003a      	movs	r2, r7
10001d4a:	4649      	mov	r1, r9
10001d4c:	68a8      	ldr	r0, [r5, #8]
10001d4e:	4798      	blx	r3
10001d50:	682b      	ldr	r3, [r5, #0]
10001d52:	2800      	cmp	r0, #0
10001d54:	d100      	bne.n	10001d58 <ph_delete+0x170>
10001d56:	e0a2      	b.n	10001e9e <ph_delete+0x2b6>
10001d58:	4642      	mov	r2, r8
10001d5a:	1898      	adds	r0, r3, r2
10001d5c:	4652      	mov	r2, sl
10001d5e:	1899      	adds	r1, r3, r2
10001d60:	464a      	mov	r2, r9
10001d62:	708a      	strb	r2, [r1, #2]
10001d64:	9001      	str	r0, [sp, #4]
10001d66:	0002      	movs	r2, r0
10001d68:	7800      	ldrb	r0, [r0, #0]
10001d6a:	2800      	cmp	r0, #0
10001d6c:	d001      	beq.n	10001d72 <ph_delete+0x18a>
10001d6e:	9a01      	ldr	r2, [sp, #4]
10001d70:	7048      	strb	r0, [r1, #1]
10001d72:	7017      	strb	r7, [r2, #0]
10001d74:	464f      	mov	r7, r9
10001d76:	465a      	mov	r2, fp
10001d78:	2a00      	cmp	r2, #0
10001d7a:	d028      	beq.n	10001dce <ph_delete+0x1e6>
10001d7c:	4659      	mov	r1, fp
10001d7e:	0028      	movs	r0, r5
10001d80:	f7ff fdf0 	bl	10001964 <ph_merge_two_pass.part.3>
10001d84:	4681      	mov	r9, r0
10001d86:	2800      	cmp	r0, #0
10001d88:	d020      	beq.n	10001dcc <ph_delete+0x1e4>
10001d8a:	0002      	movs	r2, r0
10001d8c:	686b      	ldr	r3, [r5, #4]
10001d8e:	0039      	movs	r1, r7
10001d90:	68a8      	ldr	r0, [r5, #8]
10001d92:	4798      	blx	r3
10001d94:	464b      	mov	r3, r9
10001d96:	005b      	lsls	r3, r3, #1
10001d98:	444b      	add	r3, r9
10001d9a:	3b03      	subs	r3, #3
10001d9c:	469c      	mov	ip, r3
10001d9e:	2800      	cmp	r0, #0
10001da0:	d06d      	beq.n	10001e7e <ph_delete+0x296>
10001da2:	4642      	mov	r2, r8
10001da4:	682b      	ldr	r3, [r5, #0]
10001da6:	1898      	adds	r0, r3, r2
10001da8:	4662      	mov	r2, ip
10001daa:	1899      	adds	r1, r3, r2
10001dac:	708f      	strb	r7, [r1, #2]
10001dae:	9001      	str	r0, [sp, #4]
10001db0:	7800      	ldrb	r0, [r0, #0]
10001db2:	2800      	cmp	r0, #0
10001db4:	d000      	beq.n	10001db8 <ph_delete+0x1d0>
10001db6:	e083      	b.n	10001ec0 <ph_delete+0x2d8>
10001db8:	464a      	mov	r2, r9
10001dba:	9801      	ldr	r0, [sp, #4]
10001dbc:	7002      	strb	r2, [r0, #0]
10001dbe:	7be9      	ldrb	r1, [r5, #15]
10001dc0:	1998      	adds	r0, r3, r6
10001dc2:	7b6e      	ldrb	r6, [r5, #13]
10001dc4:	2900      	cmp	r1, #0
10001dc6:	d151      	bne.n	10001e6c <ph_delete+0x284>
10001dc8:	9a01      	ldr	r2, [sp, #4]
10001dca:	e776      	b.n	10001cba <ph_delete+0xd2>
10001dcc:	682b      	ldr	r3, [r5, #0]
10001dce:	4642      	mov	r2, r8
10001dd0:	189a      	adds	r2, r3, r2
10001dd2:	9201      	str	r2, [sp, #4]
10001dd4:	e7f3      	b.n	10001dbe <ph_delete+0x1d6>
10001dd6:	0060      	lsls	r0, r4, #1
10001dd8:	4448      	add	r0, r9
10001dda:	3803      	subs	r0, #3
10001ddc:	4682      	mov	sl, r0
10001dde:	4451      	add	r1, sl
10001de0:	7848      	ldrb	r0, [r1, #1]
10001de2:	704b      	strb	r3, [r1, #1]
10001de4:	7053      	strb	r3, [r2, #1]
10001de6:	4661      	mov	r1, ip
10001de8:	0022      	movs	r2, r4
10001dea:	4683      	mov	fp, r0
10001dec:	686b      	ldr	r3, [r5, #4]
10001dee:	68a8      	ldr	r0, [r5, #8]
10001df0:	4664      	mov	r4, ip
10001df2:	4798      	blx	r3
10001df4:	6829      	ldr	r1, [r5, #0]
10001df6:	2800      	cmp	r0, #0
10001df8:	d078      	beq.n	10001eec <ph_delete+0x304>
10001dfa:	4652      	mov	r2, sl
10001dfc:	4643      	mov	r3, r8
10001dfe:	188a      	adds	r2, r1, r2
10001e00:	18cb      	adds	r3, r1, r3
10001e02:	7094      	strb	r4, [r2, #2]
10001e04:	7818      	ldrb	r0, [r3, #0]
10001e06:	2800      	cmp	r0, #0
10001e08:	d000      	beq.n	10001e0c <ph_delete+0x224>
10001e0a:	7050      	strb	r0, [r2, #1]
10001e0c:	464a      	mov	r2, r9
10001e0e:	46c2      	mov	sl, r8
10001e10:	701a      	strb	r2, [r3, #0]
10001e12:	465b      	mov	r3, fp
10001e14:	2b00      	cmp	r3, #0
10001e16:	d050      	beq.n	10001eba <ph_delete+0x2d2>
10001e18:	4659      	mov	r1, fp
10001e1a:	0028      	movs	r0, r5
10001e1c:	f7ff fda2 	bl	10001964 <ph_merge_two_pass.part.3>
10001e20:	4680      	mov	r8, r0
10001e22:	2800      	cmp	r0, #0
10001e24:	d048      	beq.n	10001eb8 <ph_delete+0x2d0>
10001e26:	9c01      	ldr	r4, [sp, #4]
10001e28:	0002      	movs	r2, r0
10001e2a:	0021      	movs	r1, r4
10001e2c:	686b      	ldr	r3, [r5, #4]
10001e2e:	68a8      	ldr	r0, [r5, #8]
10001e30:	4798      	blx	r3
10001e32:	4643      	mov	r3, r8
10001e34:	005a      	lsls	r2, r3, #1
10001e36:	4442      	add	r2, r8
10001e38:	1ed3      	subs	r3, r2, #3
10001e3a:	6829      	ldr	r1, [r5, #0]
10001e3c:	2800      	cmp	r0, #0
10001e3e:	d044      	beq.n	10001eca <ph_delete+0x2e2>
10001e40:	4652      	mov	r2, sl
10001e42:	18cb      	adds	r3, r1, r3
10001e44:	188a      	adds	r2, r1, r2
10001e46:	709c      	strb	r4, [r3, #2]
10001e48:	7810      	ldrb	r0, [r2, #0]
10001e4a:	2800      	cmp	r0, #0
10001e4c:	d000      	beq.n	10001e50 <ph_delete+0x268>
10001e4e:	7058      	strb	r0, [r3, #1]
10001e50:	4643      	mov	r3, r8
10001e52:	7013      	strb	r3, [r2, #0]
10001e54:	7beb      	ldrb	r3, [r5, #15]
10001e56:	1988      	adds	r0, r1, r6
10001e58:	2b00      	cmp	r3, #0
10001e5a:	d100      	bne.n	10001e5e <ph_delete+0x276>
10001e5c:	e766      	b.n	10001d2c <ph_delete+0x144>
10001e5e:	005e      	lsls	r6, r3, #1
10001e60:	18f3      	adds	r3, r6, r3
10001e62:	18c9      	adds	r1, r1, r3
10001e64:	3903      	subs	r1, #3
10001e66:	704f      	strb	r7, [r1, #1]
10001e68:	73ef      	strb	r7, [r5, #15]
10001e6a:	e760      	b.n	10001d2e <ph_delete+0x146>
10001e6c:	004a      	lsls	r2, r1, #1
10001e6e:	4694      	mov	ip, r2
10001e70:	4461      	add	r1, ip
10001e72:	185b      	adds	r3, r3, r1
10001e74:	3b03      	subs	r3, #3
10001e76:	705c      	strb	r4, [r3, #1]
10001e78:	9a01      	ldr	r2, [sp, #4]
10001e7a:	73ec      	strb	r4, [r5, #15]
10001e7c:	e71e      	b.n	10001cbc <ph_delete+0xd4>
10001e7e:	6829      	ldr	r1, [r5, #0]
10001e80:	4648      	mov	r0, r9
10001e82:	18ca      	adds	r2, r1, r3
10001e84:	4643      	mov	r3, r8
10001e86:	18cb      	adds	r3, r1, r3
10001e88:	7098      	strb	r0, [r3, #2]
10001e8a:	7810      	ldrb	r0, [r2, #0]
10001e8c:	4680      	mov	r8, r0
10001e8e:	1988      	adds	r0, r1, r6
10001e90:	4646      	mov	r6, r8
10001e92:	2e00      	cmp	r6, #0
10001e94:	d000      	beq.n	10001e98 <ph_delete+0x2b0>
10001e96:	705e      	strb	r6, [r3, #1]
10001e98:	7017      	strb	r7, [r2, #0]
10001e9a:	46e0      	mov	r8, ip
10001e9c:	e707      	b.n	10001cae <ph_delete+0xc6>
10001e9e:	4641      	mov	r1, r8
10001ea0:	4652      	mov	r2, sl
10001ea2:	1859      	adds	r1, r3, r1
10001ea4:	189a      	adds	r2, r3, r2
10001ea6:	708f      	strb	r7, [r1, #2]
10001ea8:	7810      	ldrb	r0, [r2, #0]
10001eaa:	2800      	cmp	r0, #0
10001eac:	d000      	beq.n	10001eb0 <ph_delete+0x2c8>
10001eae:	7048      	strb	r0, [r1, #1]
10001eb0:	4649      	mov	r1, r9
10001eb2:	46d0      	mov	r8, sl
10001eb4:	7011      	strb	r1, [r2, #0]
10001eb6:	e75e      	b.n	10001d76 <ph_delete+0x18e>
10001eb8:	6829      	ldr	r1, [r5, #0]
10001eba:	4653      	mov	r3, sl
10001ebc:	18ca      	adds	r2, r1, r3
10001ebe:	e7c9      	b.n	10001e54 <ph_delete+0x26c>
10001ec0:	464a      	mov	r2, r9
10001ec2:	7048      	strb	r0, [r1, #1]
10001ec4:	9901      	ldr	r1, [sp, #4]
10001ec6:	700a      	strb	r2, [r1, #0]
10001ec8:	e779      	b.n	10001dbe <ph_delete+0x1d6>
10001eca:	18ca      	adds	r2, r1, r3
10001ecc:	4653      	mov	r3, sl
10001ece:	4640      	mov	r0, r8
10001ed0:	18cb      	adds	r3, r1, r3
10001ed2:	7098      	strb	r0, [r3, #2]
10001ed4:	7810      	ldrb	r0, [r2, #0]
10001ed6:	4684      	mov	ip, r0
10001ed8:	4664      	mov	r4, ip
10001eda:	1988      	adds	r0, r1, r6
10001edc:	2c00      	cmp	r4, #0
10001ede:	d000      	beq.n	10001ee2 <ph_delete+0x2fa>
10001ee0:	705c      	strb	r4, [r3, #1]
10001ee2:	9b01      	ldr	r3, [sp, #4]
10001ee4:	7013      	strb	r3, [r2, #0]
10001ee6:	4643      	mov	r3, r8
10001ee8:	9301      	str	r3, [sp, #4]
10001eea:	e71b      	b.n	10001d24 <ph_delete+0x13c>
10001eec:	4653      	mov	r3, sl
10001eee:	18ca      	adds	r2, r1, r3
10001ef0:	4643      	mov	r3, r8
10001ef2:	4648      	mov	r0, r9
10001ef4:	18cb      	adds	r3, r1, r3
10001ef6:	7098      	strb	r0, [r3, #2]
10001ef8:	7810      	ldrb	r0, [r2, #0]
10001efa:	2800      	cmp	r0, #0
10001efc:	d000      	beq.n	10001f00 <ph_delete+0x318>
10001efe:	7058      	strb	r0, [r3, #1]
10001f00:	9b01      	ldr	r3, [sp, #4]
10001f02:	7013      	strb	r3, [r2, #0]
10001f04:	464b      	mov	r3, r9
10001f06:	9301      	str	r3, [sp, #4]
10001f08:	e783      	b.n	10001e12 <ph_delete+0x22a>
10001f0a:	2603      	movs	r6, #3
10001f0c:	4373      	muls	r3, r6
10001f0e:	18c9      	adds	r1, r1, r3
10001f10:	3903      	subs	r1, #3
10001f12:	704c      	strb	r4, [r1, #1]
10001f14:	7b6e      	ldrb	r6, [r5, #13]
10001f16:	73ec      	strb	r4, [r5, #15]
10001f18:	464f      	mov	r7, r9
10001f1a:	e6cf      	b.n	10001cbc <ph_delete+0xd4>
10001f1c:	2603      	movs	r6, #3
10001f1e:	4373      	muls	r3, r6
10001f20:	18c9      	adds	r1, r1, r3
10001f22:	3903      	subs	r1, #3
10001f24:	704f      	strb	r7, [r1, #1]
10001f26:	e701      	b.n	10001d2c <ph_delete+0x144>

10001f28 <runtime_init>:
10001f28:	4b2b      	ldr	r3, [pc, #172]	; (10001fd8 <runtime_init+0xb0>)
10001f2a:	4a2c      	ldr	r2, [pc, #176]	; (10001fdc <runtime_init+0xb4>)
10001f2c:	b570      	push	{r4, r5, r6, lr}
10001f2e:	601a      	str	r2, [r3, #0]
10001f30:	4a2b      	ldr	r2, [pc, #172]	; (10001fe0 <runtime_init+0xb8>)
10001f32:	4b2c      	ldr	r3, [pc, #176]	; (10001fe4 <runtime_init+0xbc>)
10001f34:	492c      	ldr	r1, [pc, #176]	; (10001fe8 <runtime_init+0xc0>)
10001f36:	601a      	str	r2, [r3, #0]
10001f38:	0010      	movs	r0, r2
10001f3a:	688b      	ldr	r3, [r1, #8]
10001f3c:	4398      	bics	r0, r3
10001f3e:	d1fb      	bne.n	10001f38 <runtime_init+0x10>
10001f40:	4c2a      	ldr	r4, [pc, #168]	; (10001fec <runtime_init+0xc4>)
10001f42:	4d2b      	ldr	r5, [pc, #172]	; (10001ff0 <runtime_init+0xc8>)
10001f44:	42ac      	cmp	r4, r5
10001f46:	d209      	bcs.n	10001f5c <runtime_init+0x34>
10001f48:	2203      	movs	r2, #3
10001f4a:	1d23      	adds	r3, r4, #4
10001f4c:	3503      	adds	r5, #3
10001f4e:	1aed      	subs	r5, r5, r3
10001f50:	4395      	bics	r5, r2
10001f52:	18ed      	adds	r5, r5, r3
10001f54:	cc08      	ldmia	r4!, {r3}
10001f56:	4798      	blx	r3
10001f58:	42ac      	cmp	r4, r5
10001f5a:	d1fb      	bne.n	10001f54 <runtime_init+0x2c>
10001f5c:	f000 f894 	bl	10002088 <clocks_init>
10001f60:	4a24      	ldr	r2, [pc, #144]	; (10001ff4 <runtime_init+0xcc>)
10001f62:	4b20      	ldr	r3, [pc, #128]	; (10001fe4 <runtime_init+0xbc>)
10001f64:	601a      	str	r2, [r3, #0]
10001f66:	4a20      	ldr	r2, [pc, #128]	; (10001fe8 <runtime_init+0xc0>)
10001f68:	6893      	ldr	r3, [r2, #8]
10001f6a:	01db      	lsls	r3, r3, #7
10001f6c:	3380      	adds	r3, #128	; 0x80
10001f6e:	d1fb      	bne.n	10001f68 <runtime_init+0x40>
10001f70:	2240      	movs	r2, #64	; 0x40
10001f72:	4b21      	ldr	r3, [pc, #132]	; (10001ff8 <runtime_init+0xd0>)
10001f74:	4c21      	ldr	r4, [pc, #132]	; (10001ffc <runtime_init+0xd4>)
10001f76:	4d22      	ldr	r5, [pc, #136]	; (10002000 <runtime_init+0xd8>)
10001f78:	679a      	str	r2, [r3, #120]	; 0x78
10001f7a:	675a      	str	r2, [r3, #116]	; 0x74
10001f7c:	671a      	str	r2, [r3, #112]	; 0x70
10001f7e:	66da      	str	r2, [r3, #108]	; 0x6c
10001f80:	42ac      	cmp	r4, r5
10001f82:	d20c      	bcs.n	10001f9e <runtime_init+0x76>
10001f84:	0023      	movs	r3, r4
10001f86:	3507      	adds	r5, #7
10001f88:	3308      	adds	r3, #8
10001f8a:	1aed      	subs	r5, r5, r3
10001f8c:	3a39      	subs	r2, #57	; 0x39
10001f8e:	4395      	bics	r5, r2
10001f90:	18ed      	adds	r5, r5, r3
10001f92:	0020      	movs	r0, r4
10001f94:	3408      	adds	r4, #8
10001f96:	f7ff fccb 	bl	10001930 <mutex_init>
10001f9a:	42ac      	cmp	r4, r5
10001f9c:	d1f9      	bne.n	10001f92 <runtime_init+0x6a>
10001f9e:	4d19      	ldr	r5, [pc, #100]	; (10002004 <runtime_init+0xdc>)
10001fa0:	4c19      	ldr	r4, [pc, #100]	; (10002008 <runtime_init+0xe0>)
10001fa2:	22c0      	movs	r2, #192	; 0xc0
10001fa4:	68a1      	ldr	r1, [r4, #8]
10001fa6:	0028      	movs	r0, r5
10001fa8:	f003 fa2e 	bl	10005408 <__wrap___aeabi_memcpy>
10001fac:	60a5      	str	r5, [r4, #8]
10001fae:	f7fe fec3 	bl	10000d38 <spin_locks_reset>
10001fb2:	f000 fbb9 	bl	10002728 <irq_init_priorities>
10001fb6:	f7ff f889 	bl	100010cc <alarm_pool_init_default>
10001fba:	4c14      	ldr	r4, [pc, #80]	; (1000200c <runtime_init+0xe4>)
10001fbc:	4d14      	ldr	r5, [pc, #80]	; (10002010 <runtime_init+0xe8>)
10001fbe:	42ac      	cmp	r4, r5
10001fc0:	d209      	bcs.n	10001fd6 <runtime_init+0xae>
10001fc2:	2203      	movs	r2, #3
10001fc4:	1d23      	adds	r3, r4, #4
10001fc6:	3503      	adds	r5, #3
10001fc8:	1aed      	subs	r5, r5, r3
10001fca:	4395      	bics	r5, r2
10001fcc:	18ed      	adds	r5, r5, r3
10001fce:	cc08      	ldmia	r4!, {r3}
10001fd0:	4798      	blx	r3
10001fd2:	42ac      	cmp	r4, r5
10001fd4:	d1fb      	bne.n	10001fce <runtime_init+0xa6>
10001fd6:	bd70      	pop	{r4, r5, r6, pc}
10001fd8:	4000e000 	.word	0x4000e000
10001fdc:	ffffcdbf 	.word	0xffffcdbf
10001fe0:	003c7ffe 	.word	0x003c7ffe
10001fe4:	4000f000 	.word	0x4000f000
10001fe8:	4000c000 	.word	0x4000c000
10001fec:	20000bf8 	.word	0x20000bf8
10001ff0:	20000c08 	.word	0x20000c08
10001ff4:	01ffffff 	.word	0x01ffffff
10001ff8:	4001f000 	.word	0x4001f000
10001ffc:	20000bf0 	.word	0x20000bf0
10002000:	20000bf8 	.word	0x20000bf8
10002004:	20000000 	.word	0x20000000
10002008:	e000ed00 	.word	0xe000ed00
1000200c:	20000c08 	.word	0x20000c08
10002010:	20000c10 	.word	0x20000c10

10002014 <_sbrk>:
10002014:	4a09      	ldr	r2, [pc, #36]	; (1000203c <_sbrk+0x28>)
10002016:	6813      	ldr	r3, [r2, #0]
10002018:	2b00      	cmp	r3, #0
1000201a:	d006      	beq.n	1000202a <_sbrk+0x16>
1000201c:	4908      	ldr	r1, [pc, #32]	; (10002040 <_sbrk+0x2c>)
1000201e:	1818      	adds	r0, r3, r0
10002020:	4288      	cmp	r0, r1
10002022:	d208      	bcs.n	10002036 <_sbrk+0x22>
10002024:	6010      	str	r0, [r2, #0]
10002026:	0018      	movs	r0, r3
10002028:	4770      	bx	lr
1000202a:	4b06      	ldr	r3, [pc, #24]	; (10002044 <_sbrk+0x30>)
1000202c:	4904      	ldr	r1, [pc, #16]	; (10002040 <_sbrk+0x2c>)
1000202e:	1818      	adds	r0, r3, r0
10002030:	6013      	str	r3, [r2, #0]
10002032:	4288      	cmp	r0, r1
10002034:	d3f6      	bcc.n	10002024 <_sbrk+0x10>
10002036:	2301      	movs	r3, #1
10002038:	425b      	negs	r3, r3
1000203a:	e7f4      	b.n	10002026 <_sbrk+0x12>
1000203c:	20001064 	.word	0x20001064
10002040:	20040000 	.word	0x20040000
10002044:	200019ec 	.word	0x200019ec

10002048 <exit>:
10002048:	be00      	bkpt	0x0000
1000204a:	e7fd      	b.n	10002048 <exit>

1000204c <panic>:
1000204c:	b40f      	push	{r0, r1, r2, r3}
1000204e:	b500      	push	{lr}
10002050:	4808      	ldr	r0, [pc, #32]	; (10002074 <panic+0x28>)
10002052:	b083      	sub	sp, #12
10002054:	f003 fab2 	bl	100055bc <__wrap_puts>
10002058:	9b04      	ldr	r3, [sp, #16]
1000205a:	2b00      	cmp	r3, #0
1000205c:	d007      	beq.n	1000206e <panic+0x22>
1000205e:	a905      	add	r1, sp, #20
10002060:	0018      	movs	r0, r3
10002062:	9101      	str	r1, [sp, #4]
10002064:	f002 fa30 	bl	100044c8 <weak_raw_vprintf>
10002068:	4803      	ldr	r0, [pc, #12]	; (10002078 <panic+0x2c>)
1000206a:	f003 faa7 	bl	100055bc <__wrap_puts>
1000206e:	be00      	bkpt	0x0000
10002070:	e7fd      	b.n	1000206e <panic+0x22>
10002072:	46c0      	nop			; (mov r8, r8)
10002074:	1000917c 	.word	0x1000917c
10002078:	1000918c 	.word	0x1000918c

1000207c <hard_assertion_failure>:
1000207c:	b510      	push	{r4, lr}
1000207e:	4801      	ldr	r0, [pc, #4]	; (10002084 <hard_assertion_failure+0x8>)
10002080:	f7ff ffe4 	bl	1000204c <panic>
10002084:	10009170 	.word	0x10009170

10002088 <clocks_init>:
10002088:	b530      	push	{r4, r5, lr}
1000208a:	200c      	movs	r0, #12
1000208c:	b083      	sub	sp, #12
1000208e:	f000 f977 	bl	10002380 <watchdog_start_tick>
10002092:	f7fe fe7b 	bl	10000d8c <running_on_fpga>
10002096:	2800      	cmp	r0, #0
10002098:	d00e      	beq.n	100020b8 <clocks_init+0x30>
1000209a:	4b9c      	ldr	r3, [pc, #624]	; (1000230c <clocks_init+0x284>)
1000209c:	4a9c      	ldr	r2, [pc, #624]	; (10002310 <clocks_init+0x288>)
1000209e:	601a      	str	r2, [r3, #0]
100020a0:	605a      	str	r2, [r3, #4]
100020a2:	609a      	str	r2, [r3, #8]
100020a4:	60da      	str	r2, [r3, #12]
100020a6:	611a      	str	r2, [r3, #16]
100020a8:	615a      	str	r2, [r3, #20]
100020aa:	619a      	str	r2, [r3, #24]
100020ac:	61da      	str	r2, [r3, #28]
100020ae:	621a      	str	r2, [r3, #32]
100020b0:	4a98      	ldr	r2, [pc, #608]	; (10002314 <clocks_init+0x28c>)
100020b2:	625a      	str	r2, [r3, #36]	; 0x24
100020b4:	b003      	add	sp, #12
100020b6:	bd30      	pop	{r4, r5, pc}
100020b8:	4c97      	ldr	r4, [pc, #604]	; (10002318 <clocks_init+0x290>)
100020ba:	67a0      	str	r0, [r4, #120]	; 0x78
100020bc:	f000 f968 	bl	10002390 <xosc_init>
100020c0:	2201      	movs	r2, #1
100020c2:	4b96      	ldr	r3, [pc, #600]	; (1000231c <clocks_init+0x294>)
100020c4:	601a      	str	r2, [r3, #0]
100020c6:	6c63      	ldr	r3, [r4, #68]	; 0x44
100020c8:	2b01      	cmp	r3, #1
100020ca:	d1fc      	bne.n	100020c6 <clocks_init+0x3e>
100020cc:	2203      	movs	r2, #3
100020ce:	4b94      	ldr	r3, [pc, #592]	; (10002320 <clocks_init+0x298>)
100020d0:	601a      	str	r2, [r3, #0]
100020d2:	4a91      	ldr	r2, [pc, #580]	; (10002318 <clocks_init+0x290>)
100020d4:	6b93      	ldr	r3, [r2, #56]	; 0x38
100020d6:	2b01      	cmp	r3, #1
100020d8:	d1fc      	bne.n	100020d4 <clocks_init+0x4c>
100020da:	22c0      	movs	r2, #192	; 0xc0
100020dc:	4b91      	ldr	r3, [pc, #580]	; (10002324 <clocks_init+0x29c>)
100020de:	0192      	lsls	r2, r2, #6
100020e0:	601a      	str	r2, [r3, #0]
100020e2:	4b91      	ldr	r3, [pc, #580]	; (10002328 <clocks_init+0x2a0>)
100020e4:	4991      	ldr	r1, [pc, #580]	; (1000232c <clocks_init+0x2a4>)
100020e6:	601a      	str	r2, [r3, #0]
100020e8:	0010      	movs	r0, r2
100020ea:	688b      	ldr	r3, [r1, #8]
100020ec:	4398      	bics	r0, r3
100020ee:	1e03      	subs	r3, r0, #0
100020f0:	d1fa      	bne.n	100020e8 <clocks_init+0x60>
100020f2:	2402      	movs	r4, #2
100020f4:	3306      	adds	r3, #6
100020f6:	4a8e      	ldr	r2, [pc, #568]	; (10002330 <clocks_init+0x2a8>)
100020f8:	2101      	movs	r1, #1
100020fa:	488e      	ldr	r0, [pc, #568]	; (10002334 <clocks_init+0x2ac>)
100020fc:	9400      	str	r4, [sp, #0]
100020fe:	f000 f95b 	bl	100023b8 <pll_init>
10002102:	2305      	movs	r3, #5
10002104:	4a8c      	ldr	r2, [pc, #560]	; (10002338 <clocks_init+0x2b0>)
10002106:	9400      	str	r4, [sp, #0]
10002108:	2101      	movs	r1, #1
1000210a:	488c      	ldr	r0, [pc, #560]	; (1000233c <clocks_init+0x2b4>)
1000210c:	f000 f954 	bl	100023b8 <pll_init>
10002110:	4b8b      	ldr	r3, [pc, #556]	; (10002340 <clocks_init+0x2b8>)
10002112:	685a      	ldr	r2, [r3, #4]
10002114:	2aff      	cmp	r2, #255	; 0xff
10002116:	d802      	bhi.n	1000211e <clocks_init+0x96>
10002118:	2280      	movs	r2, #128	; 0x80
1000211a:	0052      	lsls	r2, r2, #1
1000211c:	605a      	str	r2, [r3, #4]
1000211e:	2280      	movs	r2, #128	; 0x80
10002120:	4c7a      	ldr	r4, [pc, #488]	; (1000230c <clocks_init+0x284>)
10002122:	4b7f      	ldr	r3, [pc, #508]	; (10002320 <clocks_init+0x298>)
10002124:	6921      	ldr	r1, [r4, #16]
10002126:	0112      	lsls	r2, r2, #4
10002128:	4d85      	ldr	r5, [pc, #532]	; (10002340 <clocks_init+0x2b8>)
1000212a:	601a      	str	r2, [r3, #0]
1000212c:	2900      	cmp	r1, #0
1000212e:	d000      	beq.n	10002132 <clocks_init+0xaa>
10002130:	e0e5      	b.n	100022fe <clocks_init+0x276>
10002132:	21e0      	movs	r1, #224	; 0xe0
10002134:	4b82      	ldr	r3, [pc, #520]	; (10002340 <clocks_init+0x2b8>)
10002136:	2002      	movs	r0, #2
10002138:	681a      	ldr	r2, [r3, #0]
1000213a:	4011      	ands	r1, r2
1000213c:	2280      	movs	r2, #128	; 0x80
1000213e:	0152      	lsls	r2, r2, #5
10002140:	432a      	orrs	r2, r5
10002142:	6011      	str	r1, [r2, #0]
10002144:	6819      	ldr	r1, [r3, #0]
10002146:	4048      	eors	r0, r1
10002148:	2103      	movs	r1, #3
1000214a:	4001      	ands	r1, r0
1000214c:	6011      	str	r1, [r2, #0]
1000214e:	2104      	movs	r1, #4
10002150:	689a      	ldr	r2, [r3, #8]
10002152:	4211      	tst	r1, r2
10002154:	d0fc      	beq.n	10002150 <clocks_init+0xc8>
10002156:	2280      	movs	r2, #128	; 0x80
10002158:	2180      	movs	r1, #128	; 0x80
1000215a:	0192      	lsls	r2, r2, #6
1000215c:	432a      	orrs	r2, r5
1000215e:	0109      	lsls	r1, r1, #4
10002160:	6011      	str	r1, [r2, #0]
10002162:	2280      	movs	r2, #128	; 0x80
10002164:	0052      	lsls	r2, r2, #1
10002166:	605a      	str	r2, [r3, #4]
10002168:	4b76      	ldr	r3, [pc, #472]	; (10002344 <clocks_init+0x2bc>)
1000216a:	6123      	str	r3, [r4, #16]
1000216c:	4b76      	ldr	r3, [pc, #472]	; (10002348 <clocks_init+0x2c0>)
1000216e:	6859      	ldr	r1, [r3, #4]
10002170:	29ff      	cmp	r1, #255	; 0xff
10002172:	d800      	bhi.n	10002176 <clocks_init+0xee>
10002174:	e0c1      	b.n	100022fa <clocks_init+0x272>
10002176:	2203      	movs	r2, #3
10002178:	4b68      	ldr	r3, [pc, #416]	; (1000231c <clocks_init+0x294>)
1000217a:	4873      	ldr	r0, [pc, #460]	; (10002348 <clocks_init+0x2c0>)
1000217c:	601a      	str	r2, [r3, #0]
1000217e:	2101      	movs	r1, #1
10002180:	0003      	movs	r3, r0
10002182:	689a      	ldr	r2, [r3, #8]
10002184:	4211      	tst	r1, r2
10002186:	d0fc      	beq.n	10002182 <clocks_init+0xfa>
10002188:	25e0      	movs	r5, #224	; 0xe0
1000218a:	681a      	ldr	r2, [r3, #0]
1000218c:	4015      	ands	r5, r2
1000218e:	2280      	movs	r2, #128	; 0x80
10002190:	0152      	lsls	r2, r2, #5
10002192:	4302      	orrs	r2, r0
10002194:	6015      	str	r5, [r2, #0]
10002196:	681b      	ldr	r3, [r3, #0]
10002198:	404b      	eors	r3, r1
1000219a:	2103      	movs	r1, #3
1000219c:	4019      	ands	r1, r3
1000219e:	6011      	str	r1, [r2, #0]
100021a0:	2102      	movs	r1, #2
100021a2:	4a69      	ldr	r2, [pc, #420]	; (10002348 <clocks_init+0x2c0>)
100021a4:	6893      	ldr	r3, [r2, #8]
100021a6:	4219      	tst	r1, r3
100021a8:	d0fc      	beq.n	100021a4 <clocks_init+0x11c>
100021aa:	2380      	movs	r3, #128	; 0x80
100021ac:	2180      	movs	r1, #128	; 0x80
100021ae:	019b      	lsls	r3, r3, #6
100021b0:	4303      	orrs	r3, r0
100021b2:	0109      	lsls	r1, r1, #4
100021b4:	6019      	str	r1, [r3, #0]
100021b6:	2180      	movs	r1, #128	; 0x80
100021b8:	4b64      	ldr	r3, [pc, #400]	; (1000234c <clocks_init+0x2c4>)
100021ba:	0049      	lsls	r1, r1, #1
100021bc:	6051      	str	r1, [r2, #4]
100021be:	6163      	str	r3, [r4, #20]
100021c0:	4b63      	ldr	r3, [pc, #396]	; (10002350 <clocks_init+0x2c8>)
100021c2:	685a      	ldr	r2, [r3, #4]
100021c4:	2aff      	cmp	r2, #255	; 0xff
100021c6:	d800      	bhi.n	100021ca <clocks_init+0x142>
100021c8:	6059      	str	r1, [r3, #4]
100021ca:	2280      	movs	r2, #128	; 0x80
100021cc:	4b61      	ldr	r3, [pc, #388]	; (10002354 <clocks_init+0x2cc>)
100021ce:	69e1      	ldr	r1, [r4, #28]
100021d0:	0112      	lsls	r2, r2, #4
100021d2:	4d5f      	ldr	r5, [pc, #380]	; (10002350 <clocks_init+0x2c8>)
100021d4:	601a      	str	r2, [r3, #0]
100021d6:	2900      	cmp	r1, #0
100021d8:	d005      	beq.n	100021e6 <clocks_init+0x15e>
100021da:	6960      	ldr	r0, [r4, #20]
100021dc:	f002 f9ee 	bl	100045bc <__wrap___aeabi_uidiv>
100021e0:	3001      	adds	r0, #1
100021e2:	3801      	subs	r0, #1
100021e4:	d1fd      	bne.n	100021e2 <clocks_init+0x15a>
100021e6:	22e0      	movs	r2, #224	; 0xe0
100021e8:	4959      	ldr	r1, [pc, #356]	; (10002350 <clocks_init+0x2c8>)
100021ea:	680b      	ldr	r3, [r1, #0]
100021ec:	401a      	ands	r2, r3
100021ee:	2380      	movs	r3, #128	; 0x80
100021f0:	015b      	lsls	r3, r3, #5
100021f2:	432b      	orrs	r3, r5
100021f4:	601a      	str	r2, [r3, #0]
100021f6:	2380      	movs	r3, #128	; 0x80
100021f8:	2280      	movs	r2, #128	; 0x80
100021fa:	019b      	lsls	r3, r3, #6
100021fc:	432b      	orrs	r3, r5
100021fe:	0112      	lsls	r2, r2, #4
10002200:	601a      	str	r2, [r3, #0]
10002202:	2280      	movs	r2, #128	; 0x80
10002204:	4b42      	ldr	r3, [pc, #264]	; (10002310 <clocks_init+0x288>)
10002206:	0052      	lsls	r2, r2, #1
10002208:	604a      	str	r2, [r1, #4]
1000220a:	61e3      	str	r3, [r4, #28]
1000220c:	4b52      	ldr	r3, [pc, #328]	; (10002358 <clocks_init+0x2d0>)
1000220e:	6859      	ldr	r1, [r3, #4]
10002210:	29ff      	cmp	r1, #255	; 0xff
10002212:	d800      	bhi.n	10002216 <clocks_init+0x18e>
10002214:	605a      	str	r2, [r3, #4]
10002216:	2280      	movs	r2, #128	; 0x80
10002218:	4b50      	ldr	r3, [pc, #320]	; (1000235c <clocks_init+0x2d4>)
1000221a:	6a21      	ldr	r1, [r4, #32]
1000221c:	0112      	lsls	r2, r2, #4
1000221e:	4d4e      	ldr	r5, [pc, #312]	; (10002358 <clocks_init+0x2d0>)
10002220:	601a      	str	r2, [r3, #0]
10002222:	2900      	cmp	r1, #0
10002224:	d005      	beq.n	10002232 <clocks_init+0x1aa>
10002226:	6960      	ldr	r0, [r4, #20]
10002228:	f002 f9c8 	bl	100045bc <__wrap___aeabi_uidiv>
1000222c:	3001      	adds	r0, #1
1000222e:	3801      	subs	r0, #1
10002230:	d1fd      	bne.n	1000222e <clocks_init+0x1a6>
10002232:	22e0      	movs	r2, #224	; 0xe0
10002234:	4948      	ldr	r1, [pc, #288]	; (10002358 <clocks_init+0x2d0>)
10002236:	680b      	ldr	r3, [r1, #0]
10002238:	401a      	ands	r2, r3
1000223a:	2380      	movs	r3, #128	; 0x80
1000223c:	015b      	lsls	r3, r3, #5
1000223e:	432b      	orrs	r3, r5
10002240:	601a      	str	r2, [r3, #0]
10002242:	2380      	movs	r3, #128	; 0x80
10002244:	2280      	movs	r2, #128	; 0x80
10002246:	019b      	lsls	r3, r3, #6
10002248:	432b      	orrs	r3, r5
1000224a:	0112      	lsls	r2, r2, #4
1000224c:	601a      	str	r2, [r3, #0]
1000224e:	2380      	movs	r3, #128	; 0x80
10002250:	005b      	lsls	r3, r3, #1
10002252:	604b      	str	r3, [r1, #4]
10002254:	4b2e      	ldr	r3, [pc, #184]	; (10002310 <clocks_init+0x288>)
10002256:	4a42      	ldr	r2, [pc, #264]	; (10002360 <clocks_init+0x2d8>)
10002258:	6223      	str	r3, [r4, #32]
1000225a:	4b42      	ldr	r3, [pc, #264]	; (10002364 <clocks_init+0x2dc>)
1000225c:	6859      	ldr	r1, [r3, #4]
1000225e:	4291      	cmp	r1, r2
10002260:	d801      	bhi.n	10002266 <clocks_init+0x1de>
10002262:	3201      	adds	r2, #1
10002264:	605a      	str	r2, [r3, #4]
10002266:	2280      	movs	r2, #128	; 0x80
10002268:	4b3f      	ldr	r3, [pc, #252]	; (10002368 <clocks_init+0x2e0>)
1000226a:	6a61      	ldr	r1, [r4, #36]	; 0x24
1000226c:	0112      	lsls	r2, r2, #4
1000226e:	4d3d      	ldr	r5, [pc, #244]	; (10002364 <clocks_init+0x2dc>)
10002270:	601a      	str	r2, [r3, #0]
10002272:	2900      	cmp	r1, #0
10002274:	d005      	beq.n	10002282 <clocks_init+0x1fa>
10002276:	6960      	ldr	r0, [r4, #20]
10002278:	f002 f9a0 	bl	100045bc <__wrap___aeabi_uidiv>
1000227c:	3001      	adds	r0, #1
1000227e:	3801      	subs	r0, #1
10002280:	d1fd      	bne.n	1000227e <clocks_init+0x1f6>
10002282:	22e0      	movs	r2, #224	; 0xe0
10002284:	4937      	ldr	r1, [pc, #220]	; (10002364 <clocks_init+0x2dc>)
10002286:	680b      	ldr	r3, [r1, #0]
10002288:	401a      	ands	r2, r3
1000228a:	2380      	movs	r3, #128	; 0x80
1000228c:	015b      	lsls	r3, r3, #5
1000228e:	432b      	orrs	r3, r5
10002290:	601a      	str	r2, [r3, #0]
10002292:	2380      	movs	r3, #128	; 0x80
10002294:	2280      	movs	r2, #128	; 0x80
10002296:	019b      	lsls	r3, r3, #6
10002298:	432b      	orrs	r3, r5
1000229a:	0112      	lsls	r2, r2, #4
1000229c:	601a      	str	r2, [r3, #0]
1000229e:	2380      	movs	r3, #128	; 0x80
100022a0:	02db      	lsls	r3, r3, #11
100022a2:	604b      	str	r3, [r1, #4]
100022a4:	4b1b      	ldr	r3, [pc, #108]	; (10002314 <clocks_init+0x28c>)
100022a6:	6263      	str	r3, [r4, #36]	; 0x24
100022a8:	4b30      	ldr	r3, [pc, #192]	; (1000236c <clocks_init+0x2e4>)
100022aa:	685a      	ldr	r2, [r3, #4]
100022ac:	2aff      	cmp	r2, #255	; 0xff
100022ae:	d802      	bhi.n	100022b6 <clocks_init+0x22e>
100022b0:	2280      	movs	r2, #128	; 0x80
100022b2:	0052      	lsls	r2, r2, #1
100022b4:	605a      	str	r2, [r3, #4]
100022b6:	2280      	movs	r2, #128	; 0x80
100022b8:	4b2d      	ldr	r3, [pc, #180]	; (10002370 <clocks_init+0x2e8>)
100022ba:	69a1      	ldr	r1, [r4, #24]
100022bc:	0112      	lsls	r2, r2, #4
100022be:	4d2b      	ldr	r5, [pc, #172]	; (1000236c <clocks_init+0x2e4>)
100022c0:	601a      	str	r2, [r3, #0]
100022c2:	2900      	cmp	r1, #0
100022c4:	d005      	beq.n	100022d2 <clocks_init+0x24a>
100022c6:	6960      	ldr	r0, [r4, #20]
100022c8:	f002 f978 	bl	100045bc <__wrap___aeabi_uidiv>
100022cc:	3001      	adds	r0, #1
100022ce:	3801      	subs	r0, #1
100022d0:	d1fd      	bne.n	100022ce <clocks_init+0x246>
100022d2:	22e0      	movs	r2, #224	; 0xe0
100022d4:	4925      	ldr	r1, [pc, #148]	; (1000236c <clocks_init+0x2e4>)
100022d6:	680b      	ldr	r3, [r1, #0]
100022d8:	401a      	ands	r2, r3
100022da:	2380      	movs	r3, #128	; 0x80
100022dc:	015b      	lsls	r3, r3, #5
100022de:	432b      	orrs	r3, r5
100022e0:	601a      	str	r2, [r3, #0]
100022e2:	2380      	movs	r3, #128	; 0x80
100022e4:	2280      	movs	r2, #128	; 0x80
100022e6:	019b      	lsls	r3, r3, #6
100022e8:	432b      	orrs	r3, r5
100022ea:	0112      	lsls	r2, r2, #4
100022ec:	601a      	str	r2, [r3, #0]
100022ee:	2380      	movs	r3, #128	; 0x80
100022f0:	005b      	lsls	r3, r3, #1
100022f2:	604b      	str	r3, [r1, #4]
100022f4:	4b15      	ldr	r3, [pc, #84]	; (1000234c <clocks_init+0x2c4>)
100022f6:	61a3      	str	r3, [r4, #24]
100022f8:	e6dc      	b.n	100020b4 <clocks_init+0x2c>
100022fa:	605a      	str	r2, [r3, #4]
100022fc:	e73b      	b.n	10002176 <clocks_init+0xee>
100022fe:	6960      	ldr	r0, [r4, #20]
10002300:	f002 f95c 	bl	100045bc <__wrap___aeabi_uidiv>
10002304:	3001      	adds	r0, #1
10002306:	3801      	subs	r0, #1
10002308:	d1fd      	bne.n	10002306 <clocks_init+0x27e>
1000230a:	e712      	b.n	10002132 <clocks_init+0xaa>
1000230c:	20001008 	.word	0x20001008
10002310:	02dc6c00 	.word	0x02dc6c00
10002314:	0000b71b 	.word	0x0000b71b
10002318:	40008000 	.word	0x40008000
1000231c:	4000b03c 	.word	0x4000b03c
10002320:	4000b030 	.word	0x4000b030
10002324:	4000e000 	.word	0x4000e000
10002328:	4000f000 	.word	0x4000f000
1000232c:	4000c000 	.word	0x4000c000
10002330:	59682f00 	.word	0x59682f00
10002334:	40028000 	.word	0x40028000
10002338:	1c9c3800 	.word	0x1c9c3800
1000233c:	4002c000 	.word	0x4002c000
10002340:	40008030 	.word	0x40008030
10002344:	00b71b00 	.word	0x00b71b00
10002348:	4000803c 	.word	0x4000803c
1000234c:	07735940 	.word	0x07735940
10002350:	40008054 	.word	0x40008054
10002354:	4000b054 	.word	0x4000b054
10002358:	40008060 	.word	0x40008060
1000235c:	4000b060 	.word	0x4000b060
10002360:	0003ffff 	.word	0x0003ffff
10002364:	4000806c 	.word	0x4000806c
10002368:	4000b06c 	.word	0x4000b06c
1000236c:	40008048 	.word	0x40008048
10002370:	4000b048 	.word	0x4000b048

10002374 <clock_get_hz>:
10002374:	4b01      	ldr	r3, [pc, #4]	; (1000237c <clock_get_hz+0x8>)
10002376:	0080      	lsls	r0, r0, #2
10002378:	58c0      	ldr	r0, [r0, r3]
1000237a:	4770      	bx	lr
1000237c:	20001008 	.word	0x20001008

10002380 <watchdog_start_tick>:
10002380:	2380      	movs	r3, #128	; 0x80
10002382:	009b      	lsls	r3, r3, #2
10002384:	4318      	orrs	r0, r3
10002386:	4b01      	ldr	r3, [pc, #4]	; (1000238c <watchdog_start_tick+0xc>)
10002388:	62d8      	str	r0, [r3, #44]	; 0x2c
1000238a:	4770      	bx	lr
1000238c:	40058000 	.word	0x40058000

10002390 <xosc_init>:
10002390:	23aa      	movs	r3, #170	; 0xaa
10002392:	4a06      	ldr	r2, [pc, #24]	; (100023ac <xosc_init+0x1c>)
10002394:	011b      	lsls	r3, r3, #4
10002396:	6013      	str	r3, [r2, #0]
10002398:	232f      	movs	r3, #47	; 0x2f
1000239a:	4905      	ldr	r1, [pc, #20]	; (100023b0 <xosc_init+0x20>)
1000239c:	60d3      	str	r3, [r2, #12]
1000239e:	4b05      	ldr	r3, [pc, #20]	; (100023b4 <xosc_init+0x24>)
100023a0:	6019      	str	r1, [r3, #0]
100023a2:	6853      	ldr	r3, [r2, #4]
100023a4:	2b00      	cmp	r3, #0
100023a6:	dafc      	bge.n	100023a2 <xosc_init+0x12>
100023a8:	4770      	bx	lr
100023aa:	46c0      	nop			; (mov r8, r8)
100023ac:	40024000 	.word	0x40024000
100023b0:	00fab000 	.word	0x00fab000
100023b4:	40026000 	.word	0x40026000

100023b8 <pll_init>:
100023b8:	b5f8      	push	{r3, r4, r5, r6, r7, lr}
100023ba:	001d      	movs	r5, r3
100023bc:	ab06      	add	r3, sp, #24
100023be:	781e      	ldrb	r6, [r3, #0]
100023c0:	2301      	movs	r3, #1
100023c2:	425b      	negs	r3, r3
100023c4:	6043      	str	r3, [r0, #4]
100023c6:	2300      	movs	r3, #0
100023c8:	0004      	movs	r4, r0
100023ca:	6083      	str	r3, [r0, #8]
100023cc:	6001      	str	r1, [r0, #0]
100023ce:	200c      	movs	r0, #12
100023d0:	0017      	movs	r7, r2
100023d2:	f002 f8f3 	bl	100045bc <__wrap___aeabi_uidiv>
100023d6:	0142      	lsls	r2, r0, #5
100023d8:	1a12      	subs	r2, r2, r0
100023da:	0191      	lsls	r1, r2, #6
100023dc:	1a89      	subs	r1, r1, r2
100023de:	00c9      	lsls	r1, r1, #3
100023e0:	1809      	adds	r1, r1, r0
100023e2:	0189      	lsls	r1, r1, #6
100023e4:	0038      	movs	r0, r7
100023e6:	f002 f8e9 	bl	100045bc <__wrap___aeabi_uidiv>
100023ea:	22c0      	movs	r2, #192	; 0xc0
100023ec:	1d23      	adds	r3, r4, #4
100023ee:	0192      	lsls	r2, r2, #6
100023f0:	431a      	orrs	r2, r3
100023f2:	2321      	movs	r3, #33	; 0x21
100023f4:	60a0      	str	r0, [r4, #8]
100023f6:	6013      	str	r3, [r2, #0]
100023f8:	6823      	ldr	r3, [r4, #0]
100023fa:	2b00      	cmp	r3, #0
100023fc:	dafc      	bge.n	100023f8 <pll_init+0x40>
100023fe:	2308      	movs	r3, #8
10002400:	0336      	lsls	r6, r6, #12
10002402:	042d      	lsls	r5, r5, #16
10002404:	4335      	orrs	r5, r6
10002406:	60e5      	str	r5, [r4, #12]
10002408:	6013      	str	r3, [r2, #0]
1000240a:	bdf8      	pop	{r3, r4, r5, r6, r7, pc}

1000240c <irq_set_enabled>:
1000240c:	2301      	movs	r3, #1
1000240e:	4083      	lsls	r3, r0
10002410:	2900      	cmp	r1, #0
10002412:	d102      	bne.n	1000241a <irq_set_enabled+0xe>
10002414:	4a03      	ldr	r2, [pc, #12]	; (10002424 <irq_set_enabled+0x18>)
10002416:	6013      	str	r3, [r2, #0]
10002418:	4770      	bx	lr
1000241a:	4a03      	ldr	r2, [pc, #12]	; (10002428 <irq_set_enabled+0x1c>)
1000241c:	6013      	str	r3, [r2, #0]
1000241e:	4a03      	ldr	r2, [pc, #12]	; (1000242c <irq_set_enabled+0x20>)
10002420:	6013      	str	r3, [r2, #0]
10002422:	e7f9      	b.n	10002418 <irq_set_enabled+0xc>
10002424:	e000e180 	.word	0xe000e180
10002428:	e000e280 	.word	0xe000e280
1000242c:	e000e100 	.word	0xe000e100

10002430 <irq_set_pending>:
10002430:	2301      	movs	r3, #1
10002432:	4083      	lsls	r3, r0
10002434:	4a01      	ldr	r2, [pc, #4]	; (1000243c <irq_set_pending+0xc>)
10002436:	6013      	str	r3, [r2, #0]
10002438:	4770      	bx	lr
1000243a:	46c0      	nop			; (mov r8, r8)
1000243c:	e000e200 	.word	0xe000e200

10002440 <irq_get_vtable_handler>:
10002440:	4b02      	ldr	r3, [pc, #8]	; (1000244c <irq_get_vtable_handler+0xc>)
10002442:	3010      	adds	r0, #16
10002444:	689b      	ldr	r3, [r3, #8]
10002446:	0080      	lsls	r0, r0, #2
10002448:	58c0      	ldr	r0, [r0, r3]
1000244a:	4770      	bx	lr
1000244c:	e000ed00 	.word	0xe000ed00

10002450 <irq_set_exclusive_handler>:
10002450:	b570      	push	{r4, r5, r6, lr}
10002452:	000d      	movs	r5, r1
10002454:	f3ef 8610 	mrs	r6, PRIMASK
10002458:	b672      	cpsid	i
1000245a:	4a0f      	ldr	r2, [pc, #60]	; (10002498 <irq_set_exclusive_handler+0x48>)
1000245c:	6813      	ldr	r3, [r2, #0]
1000245e:	2b00      	cmp	r3, #0
10002460:	d0fc      	beq.n	1000245c <irq_set_exclusive_handler+0xc>
10002462:	f3bf 8f5f 	dmb	sy
10002466:	4b0d      	ldr	r3, [pc, #52]	; (1000249c <irq_set_exclusive_handler+0x4c>)
10002468:	3010      	adds	r0, #16
1000246a:	689b      	ldr	r3, [r3, #8]
1000246c:	0084      	lsls	r4, r0, #2
1000246e:	591b      	ldr	r3, [r3, r4]
10002470:	4a0b      	ldr	r2, [pc, #44]	; (100024a0 <irq_set_exclusive_handler+0x50>)
10002472:	4293      	cmp	r3, r2
10002474:	d003      	beq.n	1000247e <irq_set_exclusive_handler+0x2e>
10002476:	429d      	cmp	r5, r3
10002478:	d001      	beq.n	1000247e <irq_set_exclusive_handler+0x2e>
1000247a:	f7ff fdff 	bl	1000207c <hard_assertion_failure>
1000247e:	4b07      	ldr	r3, [pc, #28]	; (1000249c <irq_set_exclusive_handler+0x4c>)
10002480:	689b      	ldr	r3, [r3, #8]
10002482:	511d      	str	r5, [r3, r4]
10002484:	f3bf 8f5f 	dmb	sy
10002488:	f3bf 8f5f 	dmb	sy
1000248c:	2200      	movs	r2, #0
1000248e:	4b02      	ldr	r3, [pc, #8]	; (10002498 <irq_set_exclusive_handler+0x48>)
10002490:	601a      	str	r2, [r3, #0]
10002492:	f386 8810 	msr	PRIMASK, r6
10002496:	bd70      	pop	{r4, r5, r6, pc}
10002498:	d0000124 	.word	0xd0000124
1000249c:	e000ed00 	.word	0xe000ed00
100024a0:	100001cd 	.word	0x100001cd

100024a4 <irq_remove_handler>:
100024a4:	b5f0      	push	{r4, r5, r6, r7, lr}
100024a6:	4645      	mov	r5, r8
100024a8:	46de      	mov	lr, fp
100024aa:	4657      	mov	r7, sl
100024ac:	464e      	mov	r6, r9
100024ae:	b5e0      	push	{r5, r6, r7, lr}
100024b0:	000d      	movs	r5, r1
100024b2:	b083      	sub	sp, #12
100024b4:	f3ef 8a10 	mrs	sl, PRIMASK
100024b8:	b672      	cpsid	i
100024ba:	4a60      	ldr	r2, [pc, #384]	; (1000263c <irq_remove_handler+0x198>)
100024bc:	6813      	ldr	r3, [r2, #0]
100024be:	2b00      	cmp	r3, #0
100024c0:	d0fc      	beq.n	100024bc <irq_remove_handler+0x18>
100024c2:	f3bf 8f5f 	dmb	sy
100024c6:	2210      	movs	r2, #16
100024c8:	4691      	mov	r9, r2
100024ca:	4481      	add	r9, r0
100024cc:	464a      	mov	r2, r9
100024ce:	4b5c      	ldr	r3, [pc, #368]	; (10002640 <irq_remove_handler+0x19c>)
100024d0:	0096      	lsls	r6, r2, #2
100024d2:	689b      	ldr	r3, [r3, #8]
100024d4:	599c      	ldr	r4, [r3, r6]
100024d6:	4b5b      	ldr	r3, [pc, #364]	; (10002644 <irq_remove_handler+0x1a0>)
100024d8:	4698      	mov	r8, r3
100024da:	429c      	cmp	r4, r3
100024dc:	d005      	beq.n	100024ea <irq_remove_handler+0x46>
100024de:	42ac      	cmp	r4, r5
100024e0:	d04a      	beq.n	10002578 <irq_remove_handler+0xd4>
100024e2:	4f59      	ldr	r7, [pc, #356]	; (10002648 <irq_remove_handler+0x1a4>)
100024e4:	1be3      	subs	r3, r4, r7
100024e6:	2b2f      	cmp	r3, #47	; 0x2f
100024e8:	d912      	bls.n	10002510 <irq_remove_handler+0x6c>
100024ea:	4b55      	ldr	r3, [pc, #340]	; (10002640 <irq_remove_handler+0x19c>)
100024ec:	689b      	ldr	r3, [r3, #8]
100024ee:	519c      	str	r4, [r3, r6]
100024f0:	f3bf 8f5f 	dmb	sy
100024f4:	f3bf 8f5f 	dmb	sy
100024f8:	2200      	movs	r2, #0
100024fa:	4b50      	ldr	r3, [pc, #320]	; (1000263c <irq_remove_handler+0x198>)
100024fc:	601a      	str	r2, [r3, #0]
100024fe:	f38a 8810 	msr	PRIMASK, sl
10002502:	b003      	add	sp, #12
10002504:	bc3c      	pop	{r2, r3, r4, r5}
10002506:	4690      	mov	r8, r2
10002508:	4699      	mov	r9, r3
1000250a:	46a2      	mov	sl, r4
1000250c:	46ab      	mov	fp, r5
1000250e:	bdf0      	pop	{r4, r5, r6, r7, pc}
10002510:	2301      	movs	r3, #1
10002512:	4083      	lsls	r3, r0
10002514:	469b      	mov	fp, r3
10002516:	465a      	mov	r2, fp
10002518:	4b4c      	ldr	r3, [pc, #304]	; (1000264c <irq_remove_handler+0x1a8>)
1000251a:	681b      	ldr	r3, [r3, #0]
1000251c:	401a      	ands	r2, r3
1000251e:	9200      	str	r2, [sp, #0]
10002520:	465a      	mov	r2, fp
10002522:	4b4b      	ldr	r3, [pc, #300]	; (10002650 <irq_remove_handler+0x1ac>)
10002524:	601a      	str	r2, [r3, #0]
10002526:	f3bf 8f5f 	dmb	sy
1000252a:	f7fd fe9c 	bl	10000266 <__get_current_exception>
1000252e:	9001      	str	r0, [sp, #4]
10002530:	2800      	cmp	r0, #0
10002532:	d003      	beq.n	1000253c <irq_remove_handler+0x98>
10002534:	4581      	cmp	r9, r0
10002536:	d001      	beq.n	1000253c <irq_remove_handler+0x98>
10002538:	f7ff fda0 	bl	1000207c <hard_assertion_failure>
1000253c:	2301      	movs	r3, #1
1000253e:	0021      	movs	r1, r4
10002540:	2006      	movs	r0, #6
10002542:	4399      	bics	r1, r3
10002544:	688b      	ldr	r3, [r1, #8]
10002546:	468c      	mov	ip, r1
10002548:	000a      	movs	r2, r1
1000254a:	5608      	ldrsb	r0, [r1, r0]
1000254c:	429d      	cmp	r5, r3
1000254e:	d10a      	bne.n	10002566 <irq_remove_handler+0xc2>
10002550:	e05d      	b.n	1000260e <irq_remove_handler+0x16a>
10002552:	0043      	lsls	r3, r0, #1
10002554:	181b      	adds	r3, r3, r0
10002556:	2006      	movs	r0, #6
10002558:	009b      	lsls	r3, r3, #2
1000255a:	18fb      	adds	r3, r7, r3
1000255c:	6899      	ldr	r1, [r3, #8]
1000255e:	5618      	ldrsb	r0, [r3, r0]
10002560:	42a9      	cmp	r1, r5
10002562:	d011      	beq.n	10002588 <irq_remove_handler+0xe4>
10002564:	001a      	movs	r2, r3
10002566:	2800      	cmp	r0, #0
10002568:	daf3      	bge.n	10002552 <irq_remove_handler+0xae>
1000256a:	9b00      	ldr	r3, [sp, #0]
1000256c:	2b00      	cmp	r3, #0
1000256e:	d105      	bne.n	1000257c <irq_remove_handler+0xd8>
10002570:	465a      	mov	r2, fp
10002572:	4b37      	ldr	r3, [pc, #220]	; (10002650 <irq_remove_handler+0x1ac>)
10002574:	601a      	str	r2, [r3, #0]
10002576:	e7b8      	b.n	100024ea <irq_remove_handler+0x46>
10002578:	001c      	movs	r4, r3
1000257a:	e7b6      	b.n	100024ea <irq_remove_handler+0x46>
1000257c:	465a      	mov	r2, fp
1000257e:	4b35      	ldr	r3, [pc, #212]	; (10002654 <irq_remove_handler+0x1b0>)
10002580:	601a      	str	r2, [r3, #0]
10002582:	4b32      	ldr	r3, [pc, #200]	; (1000264c <irq_remove_handler+0x1a8>)
10002584:	601a      	str	r2, [r3, #0]
10002586:	e7b0      	b.n	100024ea <irq_remove_handler+0x46>
10002588:	2800      	cmp	r0, #0
1000258a:	db25      	blt.n	100025d8 <irq_remove_handler+0x134>
1000258c:	0042      	lsls	r2, r0, #1
1000258e:	1811      	adds	r1, r2, r0
10002590:	0089      	lsls	r1, r1, #2
10002592:	187d      	adds	r5, r7, r1
10002594:	4688      	mov	r8, r1
10002596:	68a9      	ldr	r1, [r5, #8]
10002598:	6099      	str	r1, [r3, #8]
1000259a:	79e9      	ldrb	r1, [r5, #7]
1000259c:	71d9      	strb	r1, [r3, #7]
1000259e:	2106      	movs	r1, #6
100025a0:	5669      	ldrsb	r1, [r5, r1]
100025a2:	7199      	strb	r1, [r3, #6]
100025a4:	79a9      	ldrb	r1, [r5, #6]
100025a6:	297f      	cmp	r1, #127	; 0x7f
100025a8:	d813      	bhi.n	100025d2 <irq_remove_handler+0x12e>
100025aa:	88ad      	ldrh	r5, [r5, #4]
100025ac:	1af9      	subs	r1, r7, r3
100025ae:	056d      	lsls	r5, r5, #21
100025b0:	152d      	asrs	r5, r5, #20
100025b2:	4445      	add	r5, r8
100025b4:	1949      	adds	r1, r1, r5
100025b6:	25e0      	movs	r5, #224	; 0xe0
100025b8:	0509      	lsls	r1, r1, #20
100025ba:	0d49      	lsrs	r1, r1, #21
100025bc:	022d      	lsls	r5, r5, #8
100025be:	4329      	orrs	r1, r5
100025c0:	8099      	strh	r1, [r3, #4]
100025c2:	1812      	adds	r2, r2, r0
100025c4:	4b24      	ldr	r3, [pc, #144]	; (10002658 <irq_remove_handler+0x1b4>)
100025c6:	0092      	lsls	r2, r2, #2
100025c8:	18bf      	adds	r7, r7, r2
100025ca:	781a      	ldrb	r2, [r3, #0]
100025cc:	7018      	strb	r0, [r3, #0]
100025ce:	71ba      	strb	r2, [r7, #6]
100025d0:	e7cb      	b.n	1000256a <irq_remove_handler+0xc6>
100025d2:	21bd      	movs	r1, #189	; 0xbd
100025d4:	0209      	lsls	r1, r1, #8
100025d6:	e7f3      	b.n	100025c0 <irq_remove_handler+0x11c>
100025d8:	9901      	ldr	r1, [sp, #4]
100025da:	2900      	cmp	r1, #0
100025dc:	d120      	bne.n	10002620 <irq_remove_handler+0x17c>
100025de:	2a00      	cmp	r2, #0
100025e0:	d01c      	beq.n	1000261c <irq_remove_handler+0x178>
100025e2:	20ff      	movs	r0, #255	; 0xff
100025e4:	7190      	strb	r0, [r2, #6]
100025e6:	481d      	ldr	r0, [pc, #116]	; (1000265c <irq_remove_handler+0x1b8>)
100025e8:	8090      	strh	r0, [r2, #4]
100025ea:	4a1b      	ldr	r2, [pc, #108]	; (10002658 <irq_remove_handler+0x1b4>)
100025ec:	7810      	ldrb	r0, [r2, #0]
100025ee:	7198      	strb	r0, [r3, #6]
100025f0:	4663      	mov	r3, ip
100025f2:	1bdf      	subs	r7, r3, r7
100025f4:	10bf      	asrs	r7, r7, #2
100025f6:	00bb      	lsls	r3, r7, #2
100025f8:	19db      	adds	r3, r3, r7
100025fa:	0119      	lsls	r1, r3, #4
100025fc:	185b      	adds	r3, r3, r1
100025fe:	0219      	lsls	r1, r3, #8
10002600:	185b      	adds	r3, r3, r1
10002602:	0419      	lsls	r1, r3, #16
10002604:	185b      	adds	r3, r3, r1
10002606:	005b      	lsls	r3, r3, #1
10002608:	19db      	adds	r3, r3, r7
1000260a:	7013      	strb	r3, [r2, #0]
1000260c:	e7ad      	b.n	1000256a <irq_remove_handler+0xc6>
1000260e:	000b      	movs	r3, r1
10002610:	2800      	cmp	r0, #0
10002612:	dabb      	bge.n	1000258c <irq_remove_handler+0xe8>
10002614:	9a01      	ldr	r2, [sp, #4]
10002616:	2a00      	cmp	r2, #0
10002618:	d102      	bne.n	10002620 <irq_remove_handler+0x17c>
1000261a:	4663      	mov	r3, ip
1000261c:	4644      	mov	r4, r8
1000261e:	e7e4      	b.n	100025ea <irq_remove_handler+0x146>
10002620:	4a0f      	ldr	r2, [pc, #60]	; (10002660 <irq_remove_handler+0x1bc>)
10002622:	4910      	ldr	r1, [pc, #64]	; (10002664 <irq_remove_handler+0x1c0>)
10002624:	1ad2      	subs	r2, r2, r3
10002626:	3a08      	subs	r2, #8
10002628:	0250      	lsls	r0, r2, #9
1000262a:	0d40      	lsrs	r0, r0, #21
1000262c:	4301      	orrs	r1, r0
1000262e:	8099      	strh	r1, [r3, #4]
10002630:	490d      	ldr	r1, [pc, #52]	; (10002668 <irq_remove_handler+0x1c4>)
10002632:	0852      	lsrs	r2, r2, #1
10002634:	430a      	orrs	r2, r1
10002636:	80da      	strh	r2, [r3, #6]
10002638:	e797      	b.n	1000256a <irq_remove_handler+0xc6>
1000263a:	46c0      	nop			; (mov r8, r8)
1000263c:	d0000124 	.word	0xd0000124
10002640:	e000ed00 	.word	0xe000ed00
10002644:	100001cd 	.word	0x100001cd
10002648:	200002dc 	.word	0x200002dc
1000264c:	e000e100 	.word	0xe000e100
10002650:	e000e180 	.word	0xe000e180
10002654:	e000e280 	.word	0xe000e280
10002658:	2000171f 	.word	0x2000171f
1000265c:	ffffbd00 	.word	0xffffbd00
10002660:	20000316 	.word	0x20000316
10002664:	fffff000 	.word	0xfffff000
10002668:	fffff800 	.word	0xfffff800

1000266c <irq_add_tail_to_free_list>:
1000266c:	b5f8      	push	{r3, r4, r5, r6, r7, lr}
1000266e:	2501      	movs	r5, #1
10002670:	0004      	movs	r4, r0
10002672:	4305      	orrs	r5, r0
10002674:	f7fd fdf7 	bl	10000266 <__get_current_exception>
10002678:	f3ef 8710 	mrs	r7, PRIMASK
1000267c:	b672      	cpsid	i
1000267e:	4a24      	ldr	r2, [pc, #144]	; (10002710 <irq_add_tail_to_free_list+0xa4>)
10002680:	6813      	ldr	r3, [r2, #0]
10002682:	2b00      	cmp	r3, #0
10002684:	d0fc      	beq.n	10002680 <irq_add_tail_to_free_list+0x14>
10002686:	f3bf 8f5f 	dmb	sy
1000268a:	4e22      	ldr	r6, [pc, #136]	; (10002714 <irq_add_tail_to_free_list+0xa8>)
1000268c:	0080      	lsls	r0, r0, #2
1000268e:	1ba1      	subs	r1, r4, r6
10002690:	1089      	asrs	r1, r1, #2
10002692:	008a      	lsls	r2, r1, #2
10002694:	1852      	adds	r2, r2, r1
10002696:	0113      	lsls	r3, r2, #4
10002698:	18d2      	adds	r2, r2, r3
1000269a:	0213      	lsls	r3, r2, #8
1000269c:	18d2      	adds	r2, r2, r3
1000269e:	0413      	lsls	r3, r2, #16
100026a0:	18d3      	adds	r3, r2, r3
100026a2:	4a1d      	ldr	r2, [pc, #116]	; (10002718 <irq_add_tail_to_free_list+0xac>)
100026a4:	005b      	lsls	r3, r3, #1
100026a6:	185b      	adds	r3, r3, r1
100026a8:	6891      	ldr	r1, [r2, #8]
100026aa:	5809      	ldr	r1, [r1, r0]
100026ac:	42a9      	cmp	r1, r5
100026ae:	d01c      	beq.n	100026ea <irq_add_tail_to_free_list+0x7e>
100026b0:	2206      	movs	r2, #6
100026b2:	56b2      	ldrsb	r2, [r6, r2]
100026b4:	4293      	cmp	r3, r2
100026b6:	d026      	beq.n	10002706 <irq_add_tail_to_free_list+0x9a>
100026b8:	2212      	movs	r2, #18
100026ba:	56b2      	ldrsb	r2, [r6, r2]
100026bc:	4293      	cmp	r3, r2
100026be:	d024      	beq.n	1000270a <irq_add_tail_to_free_list+0x9e>
100026c0:	221e      	movs	r2, #30
100026c2:	56b2      	ldrsb	r2, [r6, r2]
100026c4:	4293      	cmp	r3, r2
100026c6:	d014      	beq.n	100026f2 <irq_add_tail_to_free_list+0x86>
100026c8:	222a      	movs	r2, #42	; 0x2a
100026ca:	56b2      	ldrsb	r2, [r6, r2]
100026cc:	2103      	movs	r1, #3
100026ce:	429a      	cmp	r2, r3
100026d0:	d010      	beq.n	100026f4 <irq_add_tail_to_free_list+0x88>
100026d2:	4a12      	ldr	r2, [pc, #72]	; (1000271c <irq_add_tail_to_free_list+0xb0>)
100026d4:	7811      	ldrb	r1, [r2, #0]
100026d6:	7013      	strb	r3, [r2, #0]
100026d8:	71a1      	strb	r1, [r4, #6]
100026da:	f3bf 8f5f 	dmb	sy
100026de:	2200      	movs	r2, #0
100026e0:	4b0b      	ldr	r3, [pc, #44]	; (10002710 <irq_add_tail_to_free_list+0xa4>)
100026e2:	601a      	str	r2, [r3, #0]
100026e4:	f387 8810 	msr	PRIMASK, r7
100026e8:	bdf8      	pop	{r3, r4, r5, r6, r7, pc}
100026ea:	6892      	ldr	r2, [r2, #8]
100026ec:	490c      	ldr	r1, [pc, #48]	; (10002720 <irq_add_tail_to_free_list+0xb4>)
100026ee:	5011      	str	r1, [r2, r0]
100026f0:	e7ef      	b.n	100026d2 <irq_add_tail_to_free_list+0x66>
100026f2:	2102      	movs	r1, #2
100026f4:	004a      	lsls	r2, r1, #1
100026f6:	1852      	adds	r2, r2, r1
100026f8:	0092      	lsls	r2, r2, #2
100026fa:	18b6      	adds	r6, r6, r2
100026fc:	22ff      	movs	r2, #255	; 0xff
100026fe:	71b2      	strb	r2, [r6, #6]
10002700:	4a08      	ldr	r2, [pc, #32]	; (10002724 <irq_add_tail_to_free_list+0xb8>)
10002702:	80b2      	strh	r2, [r6, #4]
10002704:	e7e5      	b.n	100026d2 <irq_add_tail_to_free_list+0x66>
10002706:	2100      	movs	r1, #0
10002708:	e7f4      	b.n	100026f4 <irq_add_tail_to_free_list+0x88>
1000270a:	2101      	movs	r1, #1
1000270c:	e7f2      	b.n	100026f4 <irq_add_tail_to_free_list+0x88>
1000270e:	46c0      	nop			; (mov r8, r8)
10002710:	d0000124 	.word	0xd0000124
10002714:	200002dc 	.word	0x200002dc
10002718:	e000ed00 	.word	0xe000ed00
1000271c:	2000171f 	.word	0x2000171f
10002720:	100001cd 	.word	0x100001cd
10002724:	ffffbd00 	.word	0xffffbd00

10002728 <irq_init_priorities>:
10002728:	b5f0      	push	{r4, r5, r6, r7, lr}
1000272a:	2200      	movs	r2, #0
1000272c:	2403      	movs	r4, #3
1000272e:	27ff      	movs	r7, #255	; 0xff
10002730:	2680      	movs	r6, #128	; 0x80
10002732:	0020      	movs	r0, r4
10002734:	003d      	movs	r5, r7
10002736:	4b09      	ldr	r3, [pc, #36]	; (1000275c <irq_init_priorities+0x34>)
10002738:	0011      	movs	r1, r2
1000273a:	469c      	mov	ip, r3
1000273c:	4010      	ands	r0, r2
1000273e:	00c0      	lsls	r0, r0, #3
10002740:	4085      	lsls	r5, r0
10002742:	43a1      	bics	r1, r4
10002744:	4461      	add	r1, ip
10002746:	680b      	ldr	r3, [r1, #0]
10002748:	3201      	adds	r2, #1
1000274a:	43ab      	bics	r3, r5
1000274c:	0035      	movs	r5, r6
1000274e:	4085      	lsls	r5, r0
10002750:	432b      	orrs	r3, r5
10002752:	600b      	str	r3, [r1, #0]
10002754:	2a20      	cmp	r2, #32
10002756:	d1ec      	bne.n	10002732 <irq_init_priorities+0xa>
10002758:	bdf0      	pop	{r4, r5, r6, r7, pc}
1000275a:	46c0      	nop			; (mov r8, r8)
1000275c:	e000e400 	.word	0xe000e400

10002760 <_out_null>:
10002760:	4770      	bx	lr
10002762:	46c0      	nop			; (mov r8, r8)

10002764 <_out_fct>:
10002764:	b510      	push	{r4, lr}
10002766:	2800      	cmp	r0, #0
10002768:	d003      	beq.n	10002772 <_out_fct+0xe>
1000276a:	684a      	ldr	r2, [r1, #4]
1000276c:	680b      	ldr	r3, [r1, #0]
1000276e:	0011      	movs	r1, r2
10002770:	4798      	blx	r3
10002772:	bd10      	pop	{r4, pc}

10002774 <_out_char>:
10002774:	b510      	push	{r4, lr}
10002776:	2800      	cmp	r0, #0
10002778:	d001      	beq.n	1000277e <_out_char+0xa>
1000277a:	f002 fec9 	bl	10005510 <__wrap_putchar>
1000277e:	bd10      	pop	{r4, pc}

10002780 <_ntoa_format>:
10002780:	b5f0      	push	{r4, r5, r6, r7, lr}
10002782:	4657      	mov	r7, sl
10002784:	4645      	mov	r5, r8
10002786:	46de      	mov	lr, fp
10002788:	464e      	mov	r6, r9
1000278a:	b5e0      	push	{r5, r6, r7, lr}
1000278c:	b085      	sub	sp, #20
1000278e:	4698      	mov	r8, r3
10002790:	ab10      	add	r3, sp, #64	; 0x40
10002792:	781d      	ldrb	r5, [r3, #0]
10002794:	9b13      	ldr	r3, [sp, #76]	; 0x4c
10002796:	4693      	mov	fp, r2
10002798:	469a      	mov	sl, r3
1000279a:	2302      	movs	r3, #2
1000279c:	9a14      	ldr	r2, [sp, #80]	; 0x50
1000279e:	000f      	movs	r7, r1
100027a0:	4013      	ands	r3, r2
100027a2:	0006      	movs	r6, r0
100027a4:	9c0f      	ldr	r4, [sp, #60]	; 0x3c
100027a6:	9912      	ldr	r1, [sp, #72]	; 0x48
100027a8:	9301      	str	r3, [sp, #4]
100027aa:	2b00      	cmp	r3, #0
100027ac:	d12d      	bne.n	1000280a <_ntoa_format+0x8a>
100027ae:	3301      	adds	r3, #1
100027b0:	4013      	ands	r3, r2
100027b2:	469c      	mov	ip, r3
100027b4:	4653      	mov	r3, sl
100027b6:	2b00      	cmp	r3, #0
100027b8:	d166      	bne.n	10002888 <_ntoa_format+0x108>
100027ba:	428c      	cmp	r4, r1
100027bc:	d20d      	bcs.n	100027da <_ntoa_format+0x5a>
100027be:	2c1f      	cmp	r4, #31
100027c0:	d900      	bls.n	100027c4 <_ntoa_format+0x44>
100027c2:	e112      	b.n	100029ea <_ntoa_format+0x26a>
100027c4:	9b0e      	ldr	r3, [sp, #56]	; 0x38
100027c6:	2030      	movs	r0, #48	; 0x30
100027c8:	191b      	adds	r3, r3, r4
100027ca:	e002      	b.n	100027d2 <_ntoa_format+0x52>
100027cc:	3301      	adds	r3, #1
100027ce:	2c20      	cmp	r4, #32
100027d0:	d003      	beq.n	100027da <_ntoa_format+0x5a>
100027d2:	3401      	adds	r4, #1
100027d4:	7018      	strb	r0, [r3, #0]
100027d6:	42a1      	cmp	r1, r4
100027d8:	d8f8      	bhi.n	100027cc <_ntoa_format+0x4c>
100027da:	4663      	mov	r3, ip
100027dc:	2b00      	cmp	r3, #0
100027de:	d014      	beq.n	1000280a <_ntoa_format+0x8a>
100027e0:	45a2      	cmp	sl, r4
100027e2:	d912      	bls.n	1000280a <_ntoa_format+0x8a>
100027e4:	9b0e      	ldr	r3, [sp, #56]	; 0x38
100027e6:	2030      	movs	r0, #48	; 0x30
100027e8:	191b      	adds	r3, r3, r4
100027ea:	2c1f      	cmp	r4, #31
100027ec:	d821      	bhi.n	10002832 <_ntoa_format+0xb2>
100027ee:	46ac      	mov	ip, r5
100027f0:	0015      	movs	r5, r2
100027f2:	4652      	mov	r2, sl
100027f4:	e002      	b.n	100027fc <_ntoa_format+0x7c>
100027f6:	3301      	adds	r3, #1
100027f8:	2c20      	cmp	r4, #32
100027fa:	d017      	beq.n	1000282c <_ntoa_format+0xac>
100027fc:	3401      	adds	r4, #1
100027fe:	7018      	strb	r0, [r3, #0]
10002800:	4294      	cmp	r4, r2
10002802:	d1f8      	bne.n	100027f6 <_ntoa_format+0x76>
10002804:	4692      	mov	sl, r2
10002806:	002a      	movs	r2, r5
10002808:	4665      	mov	r5, ip
1000280a:	06d3      	lsls	r3, r2, #27
1000280c:	d52e      	bpl.n	1000286c <_ntoa_format+0xec>
1000280e:	0553      	lsls	r3, r2, #21
10002810:	d419      	bmi.n	10002846 <_ntoa_format+0xc6>
10002812:	2c00      	cmp	r4, #0
10002814:	d111      	bne.n	1000283a <_ntoa_format+0xba>
10002816:	9b11      	ldr	r3, [sp, #68]	; 0x44
10002818:	2b10      	cmp	r3, #16
1000281a:	d100      	bne.n	1000281e <_ntoa_format+0x9e>
1000281c:	e0d9      	b.n	100029d2 <_ntoa_format+0x252>
1000281e:	2b02      	cmp	r3, #2
10002820:	d11f      	bne.n	10002862 <_ntoa_format+0xe2>
10002822:	990e      	ldr	r1, [sp, #56]	; 0x38
10002824:	3360      	adds	r3, #96	; 0x60
10002826:	700b      	strb	r3, [r1, #0]
10002828:	2401      	movs	r4, #1
1000282a:	e01a      	b.n	10002862 <_ntoa_format+0xe2>
1000282c:	4692      	mov	sl, r2
1000282e:	002a      	movs	r2, r5
10002830:	4665      	mov	r5, ip
10002832:	06d3      	lsls	r3, r2, #27
10002834:	d53e      	bpl.n	100028b4 <_ntoa_format+0x134>
10002836:	0553      	lsls	r3, r2, #21
10002838:	d405      	bmi.n	10002846 <_ntoa_format+0xc6>
1000283a:	42a1      	cmp	r1, r4
1000283c:	d100      	bne.n	10002840 <_ntoa_format+0xc0>
1000283e:	e09f      	b.n	10002980 <_ntoa_format+0x200>
10002840:	4554      	cmp	r4, sl
10002842:	d100      	bne.n	10002846 <_ntoa_format+0xc6>
10002844:	e09c      	b.n	10002980 <_ntoa_format+0x200>
10002846:	9b11      	ldr	r3, [sp, #68]	; 0x44
10002848:	2b10      	cmp	r3, #16
1000284a:	d065      	beq.n	10002918 <_ntoa_format+0x198>
1000284c:	2b02      	cmp	r3, #2
1000284e:	d106      	bne.n	1000285e <_ntoa_format+0xde>
10002850:	2c1f      	cmp	r4, #31
10002852:	d865      	bhi.n	10002920 <_ntoa_format+0x1a0>
10002854:	2162      	movs	r1, #98	; 0x62
10002856:	9b0e      	ldr	r3, [sp, #56]	; 0x38
10002858:	191b      	adds	r3, r3, r4
1000285a:	7019      	strb	r1, [r3, #0]
1000285c:	3401      	adds	r4, #1
1000285e:	2c1f      	cmp	r4, #31
10002860:	d85e      	bhi.n	10002920 <_ntoa_format+0x1a0>
10002862:	2130      	movs	r1, #48	; 0x30
10002864:	9b0e      	ldr	r3, [sp, #56]	; 0x38
10002866:	191b      	adds	r3, r3, r4
10002868:	7019      	strb	r1, [r3, #0]
1000286a:	3401      	adds	r4, #1
1000286c:	2c1f      	cmp	r4, #31
1000286e:	d857      	bhi.n	10002920 <_ntoa_format+0x1a0>
10002870:	2d00      	cmp	r5, #0
10002872:	d11b      	bne.n	100028ac <_ntoa_format+0x12c>
10002874:	0753      	lsls	r3, r2, #29
10002876:	d500      	bpl.n	1000287a <_ntoa_format+0xfa>
10002878:	e070      	b.n	1000295c <_ntoa_format+0x1dc>
1000287a:	0713      	lsls	r3, r2, #28
1000287c:	d550      	bpl.n	10002920 <_ntoa_format+0x1a0>
1000287e:	2320      	movs	r3, #32
10002880:	990e      	ldr	r1, [sp, #56]	; 0x38
10002882:	550b      	strb	r3, [r1, r4]
10002884:	3401      	adds	r4, #1
10002886:	e015      	b.n	100028b4 <_ntoa_format+0x134>
10002888:	4663      	mov	r3, ip
1000288a:	2b00      	cmp	r3, #0
1000288c:	d06b      	beq.n	10002966 <_ntoa_format+0x1e6>
1000288e:	2d00      	cmp	r5, #0
10002890:	d000      	beq.n	10002894 <_ntoa_format+0x114>
10002892:	e070      	b.n	10002976 <_ntoa_format+0x1f6>
10002894:	230c      	movs	r3, #12
10002896:	4213      	tst	r3, r2
10002898:	d16d      	bne.n	10002976 <_ntoa_format+0x1f6>
1000289a:	428c      	cmp	r4, r1
1000289c:	d2a0      	bcs.n	100027e0 <_ntoa_format+0x60>
1000289e:	2c1f      	cmp	r4, #31
100028a0:	d990      	bls.n	100027c4 <_ntoa_format+0x44>
100028a2:	4653      	mov	r3, sl
100028a4:	2420      	movs	r4, #32
100028a6:	2b20      	cmp	r3, #32
100028a8:	d8c3      	bhi.n	10002832 <_ntoa_format+0xb2>
100028aa:	e7ae      	b.n	1000280a <_ntoa_format+0x8a>
100028ac:	232d      	movs	r3, #45	; 0x2d
100028ae:	990e      	ldr	r1, [sp, #56]	; 0x38
100028b0:	550b      	strb	r3, [r1, r4]
100028b2:	3401      	adds	r4, #1
100028b4:	0793      	lsls	r3, r2, #30
100028b6:	d036      	beq.n	10002926 <_ntoa_format+0x1a6>
100028b8:	465b      	mov	r3, fp
100028ba:	9303      	str	r3, [sp, #12]
100028bc:	001a      	movs	r2, r3
100028be:	9b0e      	ldr	r3, [sp, #56]	; 0x38
100028c0:	9402      	str	r4, [sp, #8]
100028c2:	4699      	mov	r9, r3
100028c4:	464b      	mov	r3, r9
100028c6:	3c01      	subs	r4, #1
100028c8:	1c55      	adds	r5, r2, #1
100028ca:	5d18      	ldrb	r0, [r3, r4]
100028cc:	0039      	movs	r1, r7
100028ce:	4643      	mov	r3, r8
100028d0:	47b0      	blx	r6
100028d2:	002a      	movs	r2, r5
100028d4:	2c00      	cmp	r4, #0
100028d6:	d1f5      	bne.n	100028c4 <_ntoa_format+0x144>
100028d8:	9a03      	ldr	r2, [sp, #12]
100028da:	9b02      	ldr	r3, [sp, #8]
100028dc:	4694      	mov	ip, r2
100028de:	4463      	add	r3, ip
100028e0:	001d      	movs	r5, r3
100028e2:	9b01      	ldr	r3, [sp, #4]
100028e4:	2b00      	cmp	r3, #0
100028e6:	d00f      	beq.n	10002908 <_ntoa_format+0x188>
100028e8:	465b      	mov	r3, fp
100028ea:	1aeb      	subs	r3, r5, r3
100028ec:	4553      	cmp	r3, sl
100028ee:	d20b      	bcs.n	10002908 <_ntoa_format+0x188>
100028f0:	002a      	movs	r2, r5
100028f2:	465d      	mov	r5, fp
100028f4:	1c54      	adds	r4, r2, #1
100028f6:	4643      	mov	r3, r8
100028f8:	0039      	movs	r1, r7
100028fa:	2020      	movs	r0, #32
100028fc:	47b0      	blx	r6
100028fe:	0022      	movs	r2, r4
10002900:	1b63      	subs	r3, r4, r5
10002902:	4553      	cmp	r3, sl
10002904:	d3f6      	bcc.n	100028f4 <_ntoa_format+0x174>
10002906:	0025      	movs	r5, r4
10002908:	0028      	movs	r0, r5
1000290a:	b005      	add	sp, #20
1000290c:	bc3c      	pop	{r2, r3, r4, r5}
1000290e:	4690      	mov	r8, r2
10002910:	4699      	mov	r9, r3
10002912:	46a2      	mov	sl, r4
10002914:	46ab      	mov	fp, r5
10002916:	bdf0      	pop	{r4, r5, r6, r7, pc}
10002918:	0693      	lsls	r3, r2, #26
1000291a:	d541      	bpl.n	100029a0 <_ntoa_format+0x220>
1000291c:	2c1f      	cmp	r4, #31
1000291e:	d952      	bls.n	100029c6 <_ntoa_format+0x246>
10002920:	465d      	mov	r5, fp
10002922:	0793      	lsls	r3, r2, #30
10002924:	d112      	bne.n	1000294c <_ntoa_format+0x1cc>
10002926:	4554      	cmp	r4, sl
10002928:	d238      	bcs.n	1000299c <_ntoa_format+0x21c>
1000292a:	465b      	mov	r3, fp
1000292c:	4453      	add	r3, sl
1000292e:	1b1b      	subs	r3, r3, r4
10002930:	940f      	str	r4, [sp, #60]	; 0x3c
10002932:	001c      	movs	r4, r3
10002934:	9b0f      	ldr	r3, [sp, #60]	; 0x3c
10002936:	465a      	mov	r2, fp
10002938:	4699      	mov	r9, r3
1000293a:	1c55      	adds	r5, r2, #1
1000293c:	4643      	mov	r3, r8
1000293e:	0039      	movs	r1, r7
10002940:	2020      	movs	r0, #32
10002942:	47b0      	blx	r6
10002944:	002a      	movs	r2, r5
10002946:	42a5      	cmp	r5, r4
10002948:	d1f7      	bne.n	1000293a <_ntoa_format+0x1ba>
1000294a:	464c      	mov	r4, r9
1000294c:	2c00      	cmp	r4, #0
1000294e:	d0c8      	beq.n	100028e2 <_ntoa_format+0x162>
10002950:	9b0e      	ldr	r3, [sp, #56]	; 0x38
10002952:	9503      	str	r5, [sp, #12]
10002954:	9402      	str	r4, [sp, #8]
10002956:	002a      	movs	r2, r5
10002958:	4699      	mov	r9, r3
1000295a:	e7b3      	b.n	100028c4 <_ntoa_format+0x144>
1000295c:	232b      	movs	r3, #43	; 0x2b
1000295e:	990e      	ldr	r1, [sp, #56]	; 0x38
10002960:	550b      	strb	r3, [r1, r4]
10002962:	3401      	adds	r4, #1
10002964:	e7a6      	b.n	100028b4 <_ntoa_format+0x134>
10002966:	428c      	cmp	r4, r1
10002968:	d300      	bcc.n	1000296c <_ntoa_format+0x1ec>
1000296a:	e74e      	b.n	1000280a <_ntoa_format+0x8a>
1000296c:	2c1f      	cmp	r4, #31
1000296e:	d800      	bhi.n	10002972 <_ntoa_format+0x1f2>
10002970:	e728      	b.n	100027c4 <_ntoa_format+0x44>
10002972:	2420      	movs	r4, #32
10002974:	e749      	b.n	1000280a <_ntoa_format+0x8a>
10002976:	2301      	movs	r3, #1
10002978:	425b      	negs	r3, r3
1000297a:	4699      	mov	r9, r3
1000297c:	44ca      	add	sl, r9
1000297e:	e78c      	b.n	1000289a <_ntoa_format+0x11a>
10002980:	1e63      	subs	r3, r4, #1
10002982:	2b00      	cmp	r3, #0
10002984:	d115      	bne.n	100029b2 <_ntoa_format+0x232>
10002986:	9b11      	ldr	r3, [sp, #68]	; 0x44
10002988:	2b10      	cmp	r3, #16
1000298a:	d019      	beq.n	100029c0 <_ntoa_format+0x240>
1000298c:	2b02      	cmp	r3, #2
1000298e:	d100      	bne.n	10002992 <_ntoa_format+0x212>
10002990:	e747      	b.n	10002822 <_ntoa_format+0xa2>
10002992:	2330      	movs	r3, #48	; 0x30
10002994:	990e      	ldr	r1, [sp, #56]	; 0x38
10002996:	2401      	movs	r4, #1
10002998:	700b      	strb	r3, [r1, #0]
1000299a:	e769      	b.n	10002870 <_ntoa_format+0xf0>
1000299c:	465d      	mov	r5, fp
1000299e:	e7d5      	b.n	1000294c <_ntoa_format+0x1cc>
100029a0:	2c1f      	cmp	r4, #31
100029a2:	d900      	bls.n	100029a6 <_ntoa_format+0x226>
100029a4:	e786      	b.n	100028b4 <_ntoa_format+0x134>
100029a6:	2178      	movs	r1, #120	; 0x78
100029a8:	9b0e      	ldr	r3, [sp, #56]	; 0x38
100029aa:	191b      	adds	r3, r3, r4
100029ac:	7019      	strb	r1, [r3, #0]
100029ae:	3401      	adds	r4, #1
100029b0:	e755      	b.n	1000285e <_ntoa_format+0xde>
100029b2:	9911      	ldr	r1, [sp, #68]	; 0x44
100029b4:	3c02      	subs	r4, #2
100029b6:	2910      	cmp	r1, #16
100029b8:	d0ae      	beq.n	10002918 <_ntoa_format+0x198>
100029ba:	001c      	movs	r4, r3
100029bc:	000b      	movs	r3, r1
100029be:	e745      	b.n	1000284c <_ntoa_format+0xcc>
100029c0:	0693      	lsls	r3, r2, #26
100029c2:	d50d      	bpl.n	100029e0 <_ntoa_format+0x260>
100029c4:	2400      	movs	r4, #0
100029c6:	2158      	movs	r1, #88	; 0x58
100029c8:	9b0e      	ldr	r3, [sp, #56]	; 0x38
100029ca:	191b      	adds	r3, r3, r4
100029cc:	7019      	strb	r1, [r3, #0]
100029ce:	3401      	adds	r4, #1
100029d0:	e745      	b.n	1000285e <_ntoa_format+0xde>
100029d2:	0693      	lsls	r3, r2, #26
100029d4:	d504      	bpl.n	100029e0 <_ntoa_format+0x260>
100029d6:	2358      	movs	r3, #88	; 0x58
100029d8:	990e      	ldr	r1, [sp, #56]	; 0x38
100029da:	2401      	movs	r4, #1
100029dc:	700b      	strb	r3, [r1, #0]
100029de:	e740      	b.n	10002862 <_ntoa_format+0xe2>
100029e0:	2378      	movs	r3, #120	; 0x78
100029e2:	990e      	ldr	r1, [sp, #56]	; 0x38
100029e4:	2401      	movs	r4, #1
100029e6:	700b      	strb	r3, [r1, #0]
100029e8:	e73b      	b.n	10002862 <_ntoa_format+0xe2>
100029ea:	2420      	movs	r4, #32
100029ec:	e6f5      	b.n	100027da <_ntoa_format+0x5a>
100029ee:	46c0      	nop			; (mov r8, r8)

100029f0 <_ftoa>:
100029f0:	b5f0      	push	{r4, r5, r6, r7, lr}
100029f2:	46de      	mov	lr, fp
100029f4:	4657      	mov	r7, sl
100029f6:	464e      	mov	r6, r9
100029f8:	4645      	mov	r5, r8
100029fa:	b5e0      	push	{r5, r6, r7, lr}
100029fc:	b097      	sub	sp, #92	; 0x5c
100029fe:	0005      	movs	r5, r0
10002a00:	000e      	movs	r6, r1
10002a02:	4693      	mov	fp, r2
10002a04:	001f      	movs	r7, r3
10002a06:	9a20      	ldr	r2, [sp, #128]	; 0x80
10002a08:	9b21      	ldr	r3, [sp, #132]	; 0x84
10002a0a:	0010      	movs	r0, r2
10002a0c:	0019      	movs	r1, r3
10002a0e:	f002 f88a 	bl	10004b26 <__wrap___aeabi_dcmpun>
10002a12:	2800      	cmp	r0, #0
10002a14:	d000      	beq.n	10002a18 <_ftoa+0x28>
10002a16:	e2ae      	b.n	10002f76 <_ftoa+0x586>
10002a18:	9820      	ldr	r0, [sp, #128]	; 0x80
10002a1a:	9921      	ldr	r1, [sp, #132]	; 0x84
10002a1c:	2201      	movs	r2, #1
10002a1e:	4bc5      	ldr	r3, [pc, #788]	; (10002d34 <_ftoa+0x344>)
10002a20:	4252      	negs	r2, r2
10002a22:	f002 f86d 	bl	10004b00 <__wrap___aeabi_dcmplt>
10002a26:	2800      	cmp	r0, #0
10002a28:	d000      	beq.n	10002a2c <_ftoa+0x3c>
10002a2a:	e134      	b.n	10002c96 <_ftoa+0x2a6>
10002a2c:	9820      	ldr	r0, [sp, #128]	; 0x80
10002a2e:	9921      	ldr	r1, [sp, #132]	; 0x84
10002a30:	2201      	movs	r2, #1
10002a32:	4bc1      	ldr	r3, [pc, #772]	; (10002d38 <_ftoa+0x348>)
10002a34:	4252      	negs	r2, r2
10002a36:	f002 f871 	bl	10004b1c <__wrap___aeabi_dcmpgt>
10002a3a:	2800      	cmp	r0, #0
10002a3c:	d000      	beq.n	10002a40 <_ftoa+0x50>
10002a3e:	e0c1      	b.n	10002bc4 <_ftoa+0x1d4>
10002a40:	9820      	ldr	r0, [sp, #128]	; 0x80
10002a42:	9921      	ldr	r1, [sp, #132]	; 0x84
10002a44:	2200      	movs	r2, #0
10002a46:	4bbd      	ldr	r3, [pc, #756]	; (10002d3c <_ftoa+0x34c>)
10002a48:	f002 f868 	bl	10004b1c <__wrap___aeabi_dcmpgt>
10002a4c:	2800      	cmp	r0, #0
10002a4e:	d000      	beq.n	10002a52 <_ftoa+0x62>
10002a50:	e108      	b.n	10002c64 <_ftoa+0x274>
10002a52:	9820      	ldr	r0, [sp, #128]	; 0x80
10002a54:	9921      	ldr	r1, [sp, #132]	; 0x84
10002a56:	2200      	movs	r2, #0
10002a58:	4bb9      	ldr	r3, [pc, #740]	; (10002d40 <_ftoa+0x350>)
10002a5a:	f002 f851 	bl	10004b00 <__wrap___aeabi_dcmplt>
10002a5e:	2800      	cmp	r0, #0
10002a60:	d000      	beq.n	10002a64 <_ftoa+0x74>
10002a62:	e0ff      	b.n	10002c64 <_ftoa+0x274>
10002a64:	9820      	ldr	r0, [sp, #128]	; 0x80
10002a66:	9921      	ldr	r1, [sp, #132]	; 0x84
10002a68:	2200      	movs	r2, #0
10002a6a:	2300      	movs	r3, #0
10002a6c:	f002 f848 	bl	10004b00 <__wrap___aeabi_dcmplt>
10002a70:	2800      	cmp	r0, #0
10002a72:	d000      	beq.n	10002a76 <_ftoa+0x86>
10002a74:	e274      	b.n	10002f60 <_ftoa+0x570>
10002a76:	2300      	movs	r3, #0
10002a78:	930d      	str	r3, [sp, #52]	; 0x34
10002a7a:	2380      	movs	r3, #128	; 0x80
10002a7c:	9a24      	ldr	r2, [sp, #144]	; 0x90
10002a7e:	00db      	lsls	r3, r3, #3
10002a80:	401a      	ands	r2, r3
10002a82:	4690      	mov	r8, r2
10002a84:	d000      	beq.n	10002a88 <_ftoa+0x98>
10002a86:	e1ba      	b.n	10002dfe <_ftoa+0x40e>
10002a88:	2300      	movs	r3, #0
10002a8a:	4cae      	ldr	r4, [pc, #696]	; (10002d44 <_ftoa+0x354>)
10002a8c:	9306      	str	r3, [sp, #24]
10002a8e:	9407      	str	r4, [sp, #28]
10002a90:	ab0e      	add	r3, sp, #56	; 0x38
10002a92:	2406      	movs	r4, #6
10002a94:	469a      	mov	sl, r3
10002a96:	9820      	ldr	r0, [sp, #128]	; 0x80
10002a98:	9921      	ldr	r1, [sp, #132]	; 0x84
10002a9a:	f002 f86f 	bl	10004b7c <__wrap___aeabi_d2iz>
10002a9e:	9009      	str	r0, [sp, #36]	; 0x24
10002aa0:	f002 f854 	bl	10004b4c <__wrap___aeabi_i2d>
10002aa4:	0002      	movs	r2, r0
10002aa6:	000b      	movs	r3, r1
10002aa8:	9820      	ldr	r0, [sp, #128]	; 0x80
10002aaa:	9921      	ldr	r1, [sp, #132]	; 0x84
10002aac:	f001 ffcb 	bl	10004a46 <__wrap___aeabi_dsub>
10002ab0:	9a06      	ldr	r2, [sp, #24]
10002ab2:	9b07      	ldr	r3, [sp, #28]
10002ab4:	f001 ffe2 	bl	10004a7c <__wrap___aeabi_dmul>
10002ab8:	900a      	str	r0, [sp, #40]	; 0x28
10002aba:	910b      	str	r1, [sp, #44]	; 0x2c
10002abc:	f002 f882 	bl	10004bc4 <__wrap___aeabi_d2uiz>
10002ac0:	4681      	mov	r9, r0
10002ac2:	900c      	str	r0, [sp, #48]	; 0x30
10002ac4:	f002 f83e 	bl	10004b44 <__wrap___aeabi_ui2d>
10002ac8:	0002      	movs	r2, r0
10002aca:	000b      	movs	r3, r1
10002acc:	980a      	ldr	r0, [sp, #40]	; 0x28
10002ace:	990b      	ldr	r1, [sp, #44]	; 0x2c
10002ad0:	f001 ffb9 	bl	10004a46 <__wrap___aeabi_dsub>
10002ad4:	2200      	movs	r2, #0
10002ad6:	4b9c      	ldr	r3, [pc, #624]	; (10002d48 <_ftoa+0x358>)
10002ad8:	900a      	str	r0, [sp, #40]	; 0x28
10002ada:	910b      	str	r1, [sp, #44]	; 0x2c
10002adc:	f002 f81e 	bl	10004b1c <__wrap___aeabi_dcmpgt>
10002ae0:	2800      	cmp	r0, #0
10002ae2:	d100      	bne.n	10002ae6 <_ftoa+0xf6>
10002ae4:	e1e5      	b.n	10002eb2 <_ftoa+0x4c2>
10002ae6:	464b      	mov	r3, r9
10002ae8:	3301      	adds	r3, #1
10002aea:	0018      	movs	r0, r3
10002aec:	930c      	str	r3, [sp, #48]	; 0x30
10002aee:	f002 f829 	bl	10004b44 <__wrap___aeabi_ui2d>
10002af2:	9a06      	ldr	r2, [sp, #24]
10002af4:	9b07      	ldr	r3, [sp, #28]
10002af6:	f002 f809 	bl	10004b0c <__wrap___aeabi_dcmpge>
10002afa:	2800      	cmp	r0, #0
10002afc:	d000      	beq.n	10002b00 <_ftoa+0x110>
10002afe:	e1fb      	b.n	10002ef8 <_ftoa+0x508>
10002b00:	2c00      	cmp	r4, #0
10002b02:	d000      	beq.n	10002b06 <_ftoa+0x116>
10002b04:	e19c      	b.n	10002e40 <_ftoa+0x450>
10002b06:	9c09      	ldr	r4, [sp, #36]	; 0x24
10002b08:	0020      	movs	r0, r4
10002b0a:	f002 f81f 	bl	10004b4c <__wrap___aeabi_i2d>
10002b0e:	0002      	movs	r2, r0
10002b10:	000b      	movs	r3, r1
10002b12:	9820      	ldr	r0, [sp, #128]	; 0x80
10002b14:	9921      	ldr	r1, [sp, #132]	; 0x84
10002b16:	f001 ff96 	bl	10004a46 <__wrap___aeabi_dsub>
10002b1a:	2200      	movs	r2, #0
10002b1c:	4b8a      	ldr	r3, [pc, #552]	; (10002d48 <_ftoa+0x358>)
10002b1e:	9006      	str	r0, [sp, #24]
10002b20:	9107      	str	r1, [sp, #28]
10002b22:	f001 ffed 	bl	10004b00 <__wrap___aeabi_dcmplt>
10002b26:	2800      	cmp	r0, #0
10002b28:	d100      	bne.n	10002b2c <_ftoa+0x13c>
10002b2a:	e1d5      	b.n	10002ed8 <_ftoa+0x4e8>
10002b2c:	4643      	mov	r3, r8
10002b2e:	2b20      	cmp	r3, #32
10002b30:	d100      	bne.n	10002b34 <_ftoa+0x144>
10002b32:	e112      	b.n	10002d5a <_ftoa+0x36a>
10002b34:	1c5c      	adds	r4, r3, #1
10002b36:	9b09      	ldr	r3, [sp, #36]	; 0x24
10002b38:	210a      	movs	r1, #10
10002b3a:	0018      	movs	r0, r3
10002b3c:	4699      	mov	r9, r3
10002b3e:	f001 fd11 	bl	10004564 <__wrap___aeabi_idiv>
10002b42:	4642      	mov	r2, r8
10002b44:	4653      	mov	r3, sl
10002b46:	3130      	adds	r1, #48	; 0x30
10002b48:	5499      	strb	r1, [r3, r2]
10002b4a:	4648      	mov	r0, r9
10002b4c:	210a      	movs	r1, #10
10002b4e:	f001 fd09 	bl	10004564 <__wrap___aeabi_idiv>
10002b52:	46a0      	mov	r8, r4
10002b54:	4681      	mov	r9, r0
10002b56:	2800      	cmp	r0, #0
10002b58:	d01e      	beq.n	10002b98 <_ftoa+0x1a8>
10002b5a:	4653      	mov	r3, sl
10002b5c:	46a8      	mov	r8, r5
10002b5e:	46ba      	mov	sl, r7
10002b60:	464d      	mov	r5, r9
10002b62:	001f      	movs	r7, r3
10002b64:	46b1      	mov	r9, r6
10002b66:	e000      	b.n	10002b6a <_ftoa+0x17a>
10002b68:	0034      	movs	r4, r6
10002b6a:	2c20      	cmp	r4, #32
10002b6c:	d100      	bne.n	10002b70 <_ftoa+0x180>
10002b6e:	e262      	b.n	10003036 <_ftoa+0x646>
10002b70:	0028      	movs	r0, r5
10002b72:	210a      	movs	r1, #10
10002b74:	f001 fcf6 	bl	10004564 <__wrap___aeabi_idiv>
10002b78:	1c66      	adds	r6, r4, #1
10002b7a:	3130      	adds	r1, #48	; 0x30
10002b7c:	193c      	adds	r4, r7, r4
10002b7e:	7021      	strb	r1, [r4, #0]
10002b80:	0028      	movs	r0, r5
10002b82:	210a      	movs	r1, #10
10002b84:	f001 fcee 	bl	10004564 <__wrap___aeabi_idiv>
10002b88:	1e05      	subs	r5, r0, #0
10002b8a:	d1ed      	bne.n	10002b68 <_ftoa+0x178>
10002b8c:	003b      	movs	r3, r7
10002b8e:	4645      	mov	r5, r8
10002b90:	4657      	mov	r7, sl
10002b92:	46b0      	mov	r8, r6
10002b94:	469a      	mov	sl, r3
10002b96:	464e      	mov	r6, r9
10002b98:	2303      	movs	r3, #3
10002b9a:	9a24      	ldr	r2, [sp, #144]	; 0x90
10002b9c:	4013      	ands	r3, r2
10002b9e:	2b01      	cmp	r3, #1
10002ba0:	d100      	bne.n	10002ba4 <_ftoa+0x1b4>
10002ba2:	e1b1      	b.n	10002f08 <_ftoa+0x518>
10002ba4:	4642      	mov	r2, r8
10002ba6:	2420      	movs	r4, #32
10002ba8:	2a20      	cmp	r2, #32
10002baa:	d100      	bne.n	10002bae <_ftoa+0x1be>
10002bac:	e0dc      	b.n	10002d68 <_ftoa+0x378>
10002bae:	9a0d      	ldr	r2, [sp, #52]	; 0x34
10002bb0:	2a00      	cmp	r2, #0
10002bb2:	d100      	bne.n	10002bb6 <_ftoa+0x1c6>
10002bb4:	e235      	b.n	10003022 <_ftoa+0x632>
10002bb6:	4642      	mov	r2, r8
10002bb8:	4651      	mov	r1, sl
10002bba:	1c54      	adds	r4, r2, #1
10002bbc:	4640      	mov	r0, r8
10002bbe:	222d      	movs	r2, #45	; 0x2d
10002bc0:	540a      	strb	r2, [r1, r0]
10002bc2:	e0d1      	b.n	10002d68 <_ftoa+0x378>
10002bc4:	9b24      	ldr	r3, [sp, #144]	; 0x90
10002bc6:	075b      	lsls	r3, r3, #29
10002bc8:	d500      	bpl.n	10002bcc <_ftoa+0x1dc>
10002bca:	e0ad      	b.n	10002d28 <_ftoa+0x338>
10002bcc:	4b5f      	ldr	r3, [pc, #380]	; (10002d4c <_ftoa+0x35c>)
10002bce:	469a      	mov	sl, r3
10002bd0:	2303      	movs	r3, #3
10002bd2:	4698      	mov	r8, r3
10002bd4:	465b      	mov	r3, fp
10002bd6:	9306      	str	r3, [sp, #24]
10002bd8:	9b24      	ldr	r3, [sp, #144]	; 0x90
10002bda:	079b      	lsls	r3, r3, #30
10002bdc:	d118      	bne.n	10002c10 <_ftoa+0x220>
10002bde:	9b23      	ldr	r3, [sp, #140]	; 0x8c
10002be0:	4543      	cmp	r3, r8
10002be2:	d800      	bhi.n	10002be6 <_ftoa+0x1f6>
10002be4:	e24e      	b.n	10003084 <_ftoa+0x694>
10002be6:	445b      	add	r3, fp
10002be8:	001c      	movs	r4, r3
10002bea:	4643      	mov	r3, r8
10002bec:	1ae4      	subs	r4, r4, r3
10002bee:	46b9      	mov	r9, r7
10002bf0:	465a      	mov	r2, fp
10002bf2:	0037      	movs	r7, r6
10002bf4:	002e      	movs	r6, r5
10002bf6:	0025      	movs	r5, r4
10002bf8:	1c54      	adds	r4, r2, #1
10002bfa:	464b      	mov	r3, r9
10002bfc:	0039      	movs	r1, r7
10002bfe:	2020      	movs	r0, #32
10002c00:	47b0      	blx	r6
10002c02:	0022      	movs	r2, r4
10002c04:	42ac      	cmp	r4, r5
10002c06:	d1f7      	bne.n	10002bf8 <_ftoa+0x208>
10002c08:	0035      	movs	r5, r6
10002c0a:	003e      	movs	r6, r7
10002c0c:	464f      	mov	r7, r9
10002c0e:	9406      	str	r4, [sp, #24]
10002c10:	46b1      	mov	r9, r6
10002c12:	4644      	mov	r4, r8
10002c14:	4656      	mov	r6, sl
10002c16:	46ba      	mov	sl, r7
10002c18:	002f      	movs	r7, r5
10002c1a:	9a06      	ldr	r2, [sp, #24]
10002c1c:	3c01      	subs	r4, #1
10002c1e:	1c55      	adds	r5, r2, #1
10002c20:	5d30      	ldrb	r0, [r6, r4]
10002c22:	4653      	mov	r3, sl
10002c24:	4649      	mov	r1, r9
10002c26:	47b8      	blx	r7
10002c28:	002a      	movs	r2, r5
10002c2a:	2c00      	cmp	r4, #0
10002c2c:	d1f6      	bne.n	10002c1c <_ftoa+0x22c>
10002c2e:	9b06      	ldr	r3, [sp, #24]
10002c30:	003d      	movs	r5, r7
10002c32:	4443      	add	r3, r8
10002c34:	001a      	movs	r2, r3
10002c36:	9b24      	ldr	r3, [sp, #144]	; 0x90
10002c38:	079b      	lsls	r3, r3, #30
10002c3a:	d524      	bpl.n	10002c86 <_ftoa+0x296>
10002c3c:	465b      	mov	r3, fp
10002c3e:	9923      	ldr	r1, [sp, #140]	; 0x8c
10002c40:	1ad3      	subs	r3, r2, r3
10002c42:	4299      	cmp	r1, r3
10002c44:	d91f      	bls.n	10002c86 <_ftoa+0x296>
10002c46:	002e      	movs	r6, r5
10002c48:	46d0      	mov	r8, sl
10002c4a:	464f      	mov	r7, r9
10002c4c:	000d      	movs	r5, r1
10002c4e:	4643      	mov	r3, r8
10002c50:	0039      	movs	r1, r7
10002c52:	2020      	movs	r0, #32
10002c54:	1c54      	adds	r4, r2, #1
10002c56:	47b0      	blx	r6
10002c58:	465b      	mov	r3, fp
10002c5a:	0022      	movs	r2, r4
10002c5c:	1ae3      	subs	r3, r4, r3
10002c5e:	429d      	cmp	r5, r3
10002c60:	d8f5      	bhi.n	10002c4e <_ftoa+0x25e>
10002c62:	e010      	b.n	10002c86 <_ftoa+0x296>
10002c64:	9b24      	ldr	r3, [sp, #144]	; 0x90
10002c66:	465a      	mov	r2, fp
10002c68:	9304      	str	r3, [sp, #16]
10002c6a:	9b23      	ldr	r3, [sp, #140]	; 0x8c
10002c6c:	0031      	movs	r1, r6
10002c6e:	9303      	str	r3, [sp, #12]
10002c70:	9b22      	ldr	r3, [sp, #136]	; 0x88
10002c72:	0028      	movs	r0, r5
10002c74:	9302      	str	r3, [sp, #8]
10002c76:	9b20      	ldr	r3, [sp, #128]	; 0x80
10002c78:	9c21      	ldr	r4, [sp, #132]	; 0x84
10002c7a:	9300      	str	r3, [sp, #0]
10002c7c:	9401      	str	r4, [sp, #4]
10002c7e:	003b      	movs	r3, r7
10002c80:	f000 fa32 	bl	100030e8 <_etoa.part.0>
10002c84:	0002      	movs	r2, r0
10002c86:	0010      	movs	r0, r2
10002c88:	b017      	add	sp, #92	; 0x5c
10002c8a:	bc3c      	pop	{r2, r3, r4, r5}
10002c8c:	4690      	mov	r8, r2
10002c8e:	4699      	mov	r9, r3
10002c90:	46a2      	mov	sl, r4
10002c92:	46ab      	mov	fp, r5
10002c94:	bdf0      	pop	{r4, r5, r6, r7, pc}
10002c96:	9b24      	ldr	r3, [sp, #144]	; 0x90
10002c98:	46d8      	mov	r8, fp
10002c9a:	079b      	lsls	r3, r3, #30
10002c9c:	d118      	bne.n	10002cd0 <_ftoa+0x2e0>
10002c9e:	9b23      	ldr	r3, [sp, #140]	; 0x8c
10002ca0:	2b04      	cmp	r3, #4
10002ca2:	d915      	bls.n	10002cd0 <_ftoa+0x2e0>
10002ca4:	465b      	mov	r3, fp
10002ca6:	1f1c      	subs	r4, r3, #4
10002ca8:	9b23      	ldr	r3, [sp, #140]	; 0x8c
10002caa:	46b8      	mov	r8, r7
10002cac:	469c      	mov	ip, r3
10002cae:	4464      	add	r4, ip
10002cb0:	0037      	movs	r7, r6
10002cb2:	465a      	mov	r2, fp
10002cb4:	002e      	movs	r6, r5
10002cb6:	0025      	movs	r5, r4
10002cb8:	1c54      	adds	r4, r2, #1
10002cba:	4643      	mov	r3, r8
10002cbc:	0039      	movs	r1, r7
10002cbe:	2020      	movs	r0, #32
10002cc0:	47b0      	blx	r6
10002cc2:	0022      	movs	r2, r4
10002cc4:	42ac      	cmp	r4, r5
10002cc6:	d1f7      	bne.n	10002cb8 <_ftoa+0x2c8>
10002cc8:	0035      	movs	r5, r6
10002cca:	003e      	movs	r6, r7
10002ccc:	4647      	mov	r7, r8
10002cce:	46a0      	mov	r8, r4
10002cd0:	4b1f      	ldr	r3, [pc, #124]	; (10002d50 <_ftoa+0x360>)
10002cd2:	46b9      	mov	r9, r7
10002cd4:	4642      	mov	r2, r8
10002cd6:	0037      	movs	r7, r6
10002cd8:	2404      	movs	r4, #4
10002cda:	469a      	mov	sl, r3
10002cdc:	002e      	movs	r6, r5
10002cde:	4653      	mov	r3, sl
10002ce0:	3c01      	subs	r4, #1
10002ce2:	1c55      	adds	r5, r2, #1
10002ce4:	5d18      	ldrb	r0, [r3, r4]
10002ce6:	0039      	movs	r1, r7
10002ce8:	464b      	mov	r3, r9
10002cea:	47b0      	blx	r6
10002cec:	002a      	movs	r2, r5
10002cee:	2c00      	cmp	r4, #0
10002cf0:	d1f5      	bne.n	10002cde <_ftoa+0x2ee>
10002cf2:	4642      	mov	r2, r8
10002cf4:	9b24      	ldr	r3, [sp, #144]	; 0x90
10002cf6:	0035      	movs	r5, r6
10002cf8:	3204      	adds	r2, #4
10002cfa:	003e      	movs	r6, r7
10002cfc:	079b      	lsls	r3, r3, #30
10002cfe:	d5c2      	bpl.n	10002c86 <_ftoa+0x296>
10002d00:	465b      	mov	r3, fp
10002d02:	9923      	ldr	r1, [sp, #140]	; 0x8c
10002d04:	1ad3      	subs	r3, r2, r3
10002d06:	4299      	cmp	r1, r3
10002d08:	d9bd      	bls.n	10002c86 <_ftoa+0x296>
10002d0a:	0037      	movs	r7, r6
10002d0c:	46c8      	mov	r8, r9
10002d0e:	002e      	movs	r6, r5
10002d10:	000d      	movs	r5, r1
10002d12:	4643      	mov	r3, r8
10002d14:	0039      	movs	r1, r7
10002d16:	2020      	movs	r0, #32
10002d18:	1c54      	adds	r4, r2, #1
10002d1a:	47b0      	blx	r6
10002d1c:	465b      	mov	r3, fp
10002d1e:	0022      	movs	r2, r4
10002d20:	1ae3      	subs	r3, r4, r3
10002d22:	429d      	cmp	r5, r3
10002d24:	d8f5      	bhi.n	10002d12 <_ftoa+0x322>
10002d26:	e7ae      	b.n	10002c86 <_ftoa+0x296>
10002d28:	4b0a      	ldr	r3, [pc, #40]	; (10002d54 <_ftoa+0x364>)
10002d2a:	469a      	mov	sl, r3
10002d2c:	2304      	movs	r3, #4
10002d2e:	4698      	mov	r8, r3
10002d30:	e750      	b.n	10002bd4 <_ftoa+0x1e4>
10002d32:	46c0      	nop			; (mov r8, r8)
10002d34:	ffefffff 	.word	0xffefffff
10002d38:	7fefffff 	.word	0x7fefffff
10002d3c:	41cdcd65 	.word	0x41cdcd65
10002d40:	c1cdcd65 	.word	0xc1cdcd65
10002d44:	412e8480 	.word	0x412e8480
10002d48:	3fe00000 	.word	0x3fe00000
10002d4c:	10009378 	.word	0x10009378
10002d50:	10009380 	.word	0x10009380
10002d54:	10009370 	.word	0x10009370
10002d58:	46a2      	mov	sl, r4
10002d5a:	2303      	movs	r3, #3
10002d5c:	9a24      	ldr	r2, [sp, #144]	; 0x90
10002d5e:	4013      	ands	r3, r2
10002d60:	2b01      	cmp	r3, #1
10002d62:	d100      	bne.n	10002d66 <_ftoa+0x376>
10002d64:	e0ce      	b.n	10002f04 <_ftoa+0x514>
10002d66:	2420      	movs	r4, #32
10002d68:	46d8      	mov	r8, fp
10002d6a:	2b00      	cmp	r3, #0
10002d6c:	d117      	bne.n	10002d9e <_ftoa+0x3ae>
10002d6e:	9b23      	ldr	r3, [sp, #140]	; 0x8c
10002d70:	429c      	cmp	r4, r3
10002d72:	d214      	bcs.n	10002d9e <_ftoa+0x3ae>
10002d74:	445b      	add	r3, fp
10002d76:	1b1b      	subs	r3, r3, r4
10002d78:	46b8      	mov	r8, r7
10002d7a:	465a      	mov	r2, fp
10002d7c:	0037      	movs	r7, r6
10002d7e:	46a1      	mov	r9, r4
10002d80:	002e      	movs	r6, r5
10002d82:	001d      	movs	r5, r3
10002d84:	1c54      	adds	r4, r2, #1
10002d86:	4643      	mov	r3, r8
10002d88:	0039      	movs	r1, r7
10002d8a:	2020      	movs	r0, #32
10002d8c:	47b0      	blx	r6
10002d8e:	0022      	movs	r2, r4
10002d90:	42ac      	cmp	r4, r5
10002d92:	d1f7      	bne.n	10002d84 <_ftoa+0x394>
10002d94:	0035      	movs	r5, r6
10002d96:	003e      	movs	r6, r7
10002d98:	4647      	mov	r7, r8
10002d9a:	46a0      	mov	r8, r4
10002d9c:	464c      	mov	r4, r9
10002d9e:	4643      	mov	r3, r8
10002da0:	4642      	mov	r2, r8
10002da2:	46a1      	mov	r9, r4
10002da4:	46b8      	mov	r8, r7
10002da6:	0037      	movs	r7, r6
10002da8:	002e      	movs	r6, r5
10002daa:	9306      	str	r3, [sp, #24]
10002dac:	4653      	mov	r3, sl
10002dae:	3c01      	subs	r4, #1
10002db0:	1c55      	adds	r5, r2, #1
10002db2:	5d18      	ldrb	r0, [r3, r4]
10002db4:	0039      	movs	r1, r7
10002db6:	4643      	mov	r3, r8
10002db8:	47b0      	blx	r6
10002dba:	002a      	movs	r2, r5
10002dbc:	2c00      	cmp	r4, #0
10002dbe:	d1f5      	bne.n	10002dac <_ftoa+0x3bc>
10002dc0:	9906      	ldr	r1, [sp, #24]
10002dc2:	464b      	mov	r3, r9
10002dc4:	468c      	mov	ip, r1
10002dc6:	4463      	add	r3, ip
10002dc8:	001a      	movs	r2, r3
10002dca:	9b24      	ldr	r3, [sp, #144]	; 0x90
10002dcc:	0035      	movs	r5, r6
10002dce:	003e      	movs	r6, r7
10002dd0:	079b      	lsls	r3, r3, #30
10002dd2:	d400      	bmi.n	10002dd6 <_ftoa+0x3e6>
10002dd4:	e757      	b.n	10002c86 <_ftoa+0x296>
10002dd6:	465b      	mov	r3, fp
10002dd8:	9923      	ldr	r1, [sp, #140]	; 0x8c
10002dda:	1ad3      	subs	r3, r2, r3
10002ddc:	4299      	cmp	r1, r3
10002dde:	d800      	bhi.n	10002de2 <_ftoa+0x3f2>
10002de0:	e751      	b.n	10002c86 <_ftoa+0x296>
10002de2:	0037      	movs	r7, r6
10002de4:	002e      	movs	r6, r5
10002de6:	000d      	movs	r5, r1
10002de8:	4643      	mov	r3, r8
10002dea:	0039      	movs	r1, r7
10002dec:	2020      	movs	r0, #32
10002dee:	1c54      	adds	r4, r2, #1
10002df0:	47b0      	blx	r6
10002df2:	465b      	mov	r3, fp
10002df4:	0022      	movs	r2, r4
10002df6:	1ae3      	subs	r3, r4, r3
10002df8:	429d      	cmp	r5, r3
10002dfa:	d8f5      	bhi.n	10002de8 <_ftoa+0x3f8>
10002dfc:	e743      	b.n	10002c86 <_ftoa+0x296>
10002dfe:	9b22      	ldr	r3, [sp, #136]	; 0x88
10002e00:	2b09      	cmp	r3, #9
10002e02:	d800      	bhi.n	10002e06 <_ftoa+0x416>
10002e04:	e15b      	b.n	100030be <_ftoa+0x6ce>
10002e06:	ab0e      	add	r3, sp, #56	; 0x38
10002e08:	469a      	mov	sl, r3
10002e0a:	2330      	movs	r3, #48	; 0x30
10002e0c:	4652      	mov	r2, sl
10002e0e:	7013      	strb	r3, [r2, #0]
10002e10:	2201      	movs	r2, #1
10002e12:	4690      	mov	r8, r2
10002e14:	9b22      	ldr	r3, [sp, #136]	; 0x88
10002e16:	322f      	adds	r2, #47	; 0x2f
10002e18:	1e5c      	subs	r4, r3, #1
10002e1a:	4641      	mov	r1, r8
10002e1c:	3b20      	subs	r3, #32
10002e1e:	4650      	mov	r0, sl
10002e20:	e005      	b.n	10002e2e <_ftoa+0x43e>
10002e22:	3c01      	subs	r4, #1
10002e24:	5442      	strb	r2, [r0, r1]
10002e26:	3101      	adds	r1, #1
10002e28:	429c      	cmp	r4, r3
10002e2a:	d100      	bne.n	10002e2e <_ftoa+0x43e>
10002e2c:	e0ee      	b.n	1000300c <_ftoa+0x61c>
10002e2e:	2c09      	cmp	r4, #9
10002e30:	d1f7      	bne.n	10002e22 <_ftoa+0x432>
10002e32:	2200      	movs	r2, #0
10002e34:	4ba8      	ldr	r3, [pc, #672]	; (100030d8 <_ftoa+0x6e8>)
10002e36:	4688      	mov	r8, r1
10002e38:	4682      	mov	sl, r0
10002e3a:	9206      	str	r2, [sp, #24]
10002e3c:	9307      	str	r3, [sp, #28]
10002e3e:	e62a      	b.n	10002a96 <_ftoa+0xa6>
10002e40:	4643      	mov	r3, r8
10002e42:	2b20      	cmp	r3, #32
10002e44:	d089      	beq.n	10002d5a <_ftoa+0x36a>
10002e46:	1e63      	subs	r3, r4, #1
10002e48:	9306      	str	r3, [sp, #24]
10002e4a:	2301      	movs	r3, #1
10002e4c:	9c0c      	ldr	r4, [sp, #48]	; 0x30
10002e4e:	4443      	add	r3, r8
10002e50:	0020      	movs	r0, r4
10002e52:	210a      	movs	r1, #10
10002e54:	4699      	mov	r9, r3
10002e56:	f001 fbb1 	bl	100045bc <__wrap___aeabi_uidiv>
10002e5a:	4653      	mov	r3, sl
10002e5c:	4642      	mov	r2, r8
10002e5e:	3130      	adds	r1, #48	; 0x30
10002e60:	5499      	strb	r1, [r3, r2]
10002e62:	0020      	movs	r0, r4
10002e64:	210a      	movs	r1, #10
10002e66:	f001 fba9 	bl	100045bc <__wrap___aeabi_uidiv>
10002e6a:	1e04      	subs	r4, r0, #0
10002e6c:	d100      	bne.n	10002e70 <_ftoa+0x480>
10002e6e:	e122      	b.n	100030b6 <_ftoa+0x6c6>
10002e70:	46a8      	mov	r8, r5
10002e72:	0025      	movs	r5, r4
10002e74:	464c      	mov	r4, r9
10002e76:	46b9      	mov	r9, r7
10002e78:	4657      	mov	r7, sl
10002e7a:	46b2      	mov	sl, r6
10002e7c:	e012      	b.n	10002ea4 <_ftoa+0x4b4>
10002e7e:	9b06      	ldr	r3, [sp, #24]
10002e80:	0028      	movs	r0, r5
10002e82:	3b01      	subs	r3, #1
10002e84:	210a      	movs	r1, #10
10002e86:	9306      	str	r3, [sp, #24]
10002e88:	f001 fb98 	bl	100045bc <__wrap___aeabi_uidiv>
10002e8c:	1c66      	adds	r6, r4, #1
10002e8e:	3130      	adds	r1, #48	; 0x30
10002e90:	193c      	adds	r4, r7, r4
10002e92:	7021      	strb	r1, [r4, #0]
10002e94:	0028      	movs	r0, r5
10002e96:	210a      	movs	r1, #10
10002e98:	f001 fb90 	bl	100045bc <__wrap___aeabi_uidiv>
10002e9c:	1e05      	subs	r5, r0, #0
10002e9e:	d100      	bne.n	10002ea2 <_ftoa+0x4b2>
10002ea0:	e0cf      	b.n	10003042 <_ftoa+0x652>
10002ea2:	0034      	movs	r4, r6
10002ea4:	2c20      	cmp	r4, #32
10002ea6:	d1ea      	bne.n	10002e7e <_ftoa+0x48e>
10002ea8:	4656      	mov	r6, sl
10002eaa:	4645      	mov	r5, r8
10002eac:	46ba      	mov	sl, r7
10002eae:	464f      	mov	r7, r9
10002eb0:	e753      	b.n	10002d5a <_ftoa+0x36a>
10002eb2:	2200      	movs	r2, #0
10002eb4:	980a      	ldr	r0, [sp, #40]	; 0x28
10002eb6:	990b      	ldr	r1, [sp, #44]	; 0x2c
10002eb8:	4b88      	ldr	r3, [pc, #544]	; (100030dc <_ftoa+0x6ec>)
10002eba:	f001 fe21 	bl	10004b00 <__wrap___aeabi_dcmplt>
10002ebe:	2800      	cmp	r0, #0
10002ec0:	d000      	beq.n	10002ec4 <_ftoa+0x4d4>
10002ec2:	e61d      	b.n	10002b00 <_ftoa+0x110>
10002ec4:	9b0c      	ldr	r3, [sp, #48]	; 0x30
10002ec6:	2b00      	cmp	r3, #0
10002ec8:	d002      	beq.n	10002ed0 <_ftoa+0x4e0>
10002eca:	07db      	lsls	r3, r3, #31
10002ecc:	d400      	bmi.n	10002ed0 <_ftoa+0x4e0>
10002ece:	e617      	b.n	10002b00 <_ftoa+0x110>
10002ed0:	9b0c      	ldr	r3, [sp, #48]	; 0x30
10002ed2:	3301      	adds	r3, #1
10002ed4:	930c      	str	r3, [sp, #48]	; 0x30
10002ed6:	e613      	b.n	10002b00 <_ftoa+0x110>
10002ed8:	2200      	movs	r2, #0
10002eda:	9806      	ldr	r0, [sp, #24]
10002edc:	9907      	ldr	r1, [sp, #28]
10002ede:	4b7f      	ldr	r3, [pc, #508]	; (100030dc <_ftoa+0x6ec>)
10002ee0:	f001 fe1c 	bl	10004b1c <__wrap___aeabi_dcmpgt>
10002ee4:	2800      	cmp	r0, #0
10002ee6:	d000      	beq.n	10002eea <_ftoa+0x4fa>
10002ee8:	e620      	b.n	10002b2c <_ftoa+0x13c>
10002eea:	2301      	movs	r3, #1
10002eec:	46a4      	mov	ip, r4
10002eee:	4023      	ands	r3, r4
10002ef0:	449c      	add	ip, r3
10002ef2:	4663      	mov	r3, ip
10002ef4:	9309      	str	r3, [sp, #36]	; 0x24
10002ef6:	e619      	b.n	10002b2c <_ftoa+0x13c>
10002ef8:	9b09      	ldr	r3, [sp, #36]	; 0x24
10002efa:	3301      	adds	r3, #1
10002efc:	9309      	str	r3, [sp, #36]	; 0x24
10002efe:	2300      	movs	r3, #0
10002f00:	930c      	str	r3, [sp, #48]	; 0x30
10002f02:	e5fd      	b.n	10002b00 <_ftoa+0x110>
10002f04:	2320      	movs	r3, #32
10002f06:	4698      	mov	r8, r3
10002f08:	9b23      	ldr	r3, [sp, #140]	; 0x8c
10002f0a:	2b00      	cmp	r3, #0
10002f0c:	d100      	bne.n	10002f10 <_ftoa+0x520>
10002f0e:	e0bf      	b.n	10003090 <_ftoa+0x6a0>
10002f10:	9b0d      	ldr	r3, [sp, #52]	; 0x34
10002f12:	2b00      	cmp	r3, #0
10002f14:	d103      	bne.n	10002f1e <_ftoa+0x52e>
10002f16:	9a24      	ldr	r2, [sp, #144]	; 0x90
10002f18:	330c      	adds	r3, #12
10002f1a:	4213      	tst	r3, r2
10002f1c:	d002      	beq.n	10002f24 <_ftoa+0x534>
10002f1e:	9b23      	ldr	r3, [sp, #140]	; 0x8c
10002f20:	3b01      	subs	r3, #1
10002f22:	9323      	str	r3, [sp, #140]	; 0x8c
10002f24:	9b23      	ldr	r3, [sp, #140]	; 0x8c
10002f26:	4543      	cmp	r3, r8
10002f28:	d800      	bhi.n	10002f2c <_ftoa+0x53c>
10002f2a:	e0b1      	b.n	10003090 <_ftoa+0x6a0>
10002f2c:	4642      	mov	r2, r8
10002f2e:	2330      	movs	r3, #48	; 0x30
10002f30:	2a20      	cmp	r2, #32
10002f32:	d100      	bne.n	10002f36 <_ftoa+0x546>
10002f34:	e0b1      	b.n	1000309a <_ftoa+0x6aa>
10002f36:	4642      	mov	r2, r8
10002f38:	4650      	mov	r0, sl
10002f3a:	9923      	ldr	r1, [sp, #140]	; 0x8c
10002f3c:	1c54      	adds	r4, r2, #1
10002f3e:	5483      	strb	r3, [r0, r2]
10002f40:	428c      	cmp	r4, r1
10002f42:	d100      	bne.n	10002f46 <_ftoa+0x556>
10002f44:	e0a1      	b.n	1000308a <_ftoa+0x69a>
10002f46:	0022      	movs	r2, r4
10002f48:	2c20      	cmp	r4, #32
10002f4a:	d1f7      	bne.n	10002f3c <_ftoa+0x54c>
10002f4c:	2320      	movs	r3, #32
10002f4e:	4699      	mov	r9, r3
10002f50:	465b      	mov	r3, fp
10002f52:	46b8      	mov	r8, r7
10002f54:	4682      	mov	sl, r0
10002f56:	0037      	movs	r7, r6
10002f58:	9306      	str	r3, [sp, #24]
10002f5a:	465a      	mov	r2, fp
10002f5c:	002e      	movs	r6, r5
10002f5e:	e725      	b.n	10002dac <_ftoa+0x3bc>
10002f60:	9a20      	ldr	r2, [sp, #128]	; 0x80
10002f62:	9b21      	ldr	r3, [sp, #132]	; 0x84
10002f64:	2000      	movs	r0, #0
10002f66:	2100      	movs	r1, #0
10002f68:	f001 fd6d 	bl	10004a46 <__wrap___aeabi_dsub>
10002f6c:	2301      	movs	r3, #1
10002f6e:	9020      	str	r0, [sp, #128]	; 0x80
10002f70:	9121      	str	r1, [sp, #132]	; 0x84
10002f72:	930d      	str	r3, [sp, #52]	; 0x34
10002f74:	e581      	b.n	10002a7a <_ftoa+0x8a>
10002f76:	9b24      	ldr	r3, [sp, #144]	; 0x90
10002f78:	46d8      	mov	r8, fp
10002f7a:	079b      	lsls	r3, r3, #30
10002f7c:	d118      	bne.n	10002fb0 <_ftoa+0x5c0>
10002f7e:	9b23      	ldr	r3, [sp, #140]	; 0x8c
10002f80:	2b03      	cmp	r3, #3
10002f82:	d915      	bls.n	10002fb0 <_ftoa+0x5c0>
10002f84:	465b      	mov	r3, fp
10002f86:	1edc      	subs	r4, r3, #3
10002f88:	9b23      	ldr	r3, [sp, #140]	; 0x8c
10002f8a:	46b8      	mov	r8, r7
10002f8c:	469c      	mov	ip, r3
10002f8e:	4464      	add	r4, ip
10002f90:	0037      	movs	r7, r6
10002f92:	465a      	mov	r2, fp
10002f94:	002e      	movs	r6, r5
10002f96:	0025      	movs	r5, r4
10002f98:	1c54      	adds	r4, r2, #1
10002f9a:	4643      	mov	r3, r8
10002f9c:	0039      	movs	r1, r7
10002f9e:	2020      	movs	r0, #32
10002fa0:	47b0      	blx	r6
10002fa2:	0022      	movs	r2, r4
10002fa4:	42ac      	cmp	r4, r5
10002fa6:	d1f7      	bne.n	10002f98 <_ftoa+0x5a8>
10002fa8:	0035      	movs	r5, r6
10002faa:	003e      	movs	r6, r7
10002fac:	4647      	mov	r7, r8
10002fae:	46a0      	mov	r8, r4
10002fb0:	4b4b      	ldr	r3, [pc, #300]	; (100030e0 <_ftoa+0x6f0>)
10002fb2:	46b9      	mov	r9, r7
10002fb4:	4642      	mov	r2, r8
10002fb6:	0037      	movs	r7, r6
10002fb8:	2403      	movs	r4, #3
10002fba:	469a      	mov	sl, r3
10002fbc:	002e      	movs	r6, r5
10002fbe:	4653      	mov	r3, sl
10002fc0:	3c01      	subs	r4, #1
10002fc2:	1c55      	adds	r5, r2, #1
10002fc4:	5d18      	ldrb	r0, [r3, r4]
10002fc6:	0039      	movs	r1, r7
10002fc8:	464b      	mov	r3, r9
10002fca:	47b0      	blx	r6
10002fcc:	002a      	movs	r2, r5
10002fce:	2c00      	cmp	r4, #0
10002fd0:	d1f5      	bne.n	10002fbe <_ftoa+0x5ce>
10002fd2:	4642      	mov	r2, r8
10002fd4:	9b24      	ldr	r3, [sp, #144]	; 0x90
10002fd6:	0035      	movs	r5, r6
10002fd8:	3203      	adds	r2, #3
10002fda:	003e      	movs	r6, r7
10002fdc:	079b      	lsls	r3, r3, #30
10002fde:	d400      	bmi.n	10002fe2 <_ftoa+0x5f2>
10002fe0:	e651      	b.n	10002c86 <_ftoa+0x296>
10002fe2:	465b      	mov	r3, fp
10002fe4:	9923      	ldr	r1, [sp, #140]	; 0x8c
10002fe6:	1ad3      	subs	r3, r2, r3
10002fe8:	4299      	cmp	r1, r3
10002fea:	d800      	bhi.n	10002fee <_ftoa+0x5fe>
10002fec:	e64b      	b.n	10002c86 <_ftoa+0x296>
10002fee:	0037      	movs	r7, r6
10002ff0:	46c8      	mov	r8, r9
10002ff2:	002e      	movs	r6, r5
10002ff4:	000d      	movs	r5, r1
10002ff6:	4643      	mov	r3, r8
10002ff8:	0039      	movs	r1, r7
10002ffa:	2020      	movs	r0, #32
10002ffc:	1c54      	adds	r4, r2, #1
10002ffe:	47b0      	blx	r6
10003000:	465b      	mov	r3, fp
10003002:	0022      	movs	r2, r4
10003004:	1ae3      	subs	r3, r4, r3
10003006:	429d      	cmp	r5, r3
10003008:	d8f5      	bhi.n	10002ff6 <_ftoa+0x606>
1000300a:	e63c      	b.n	10002c86 <_ftoa+0x296>
1000300c:	4b35      	ldr	r3, [pc, #212]	; (100030e4 <_ftoa+0x6f4>)
1000300e:	00e2      	lsls	r2, r4, #3
10003010:	189b      	adds	r3, r3, r2
10003012:	681a      	ldr	r2, [r3, #0]
10003014:	685b      	ldr	r3, [r3, #4]
10003016:	9206      	str	r2, [sp, #24]
10003018:	9307      	str	r3, [sp, #28]
1000301a:	2320      	movs	r3, #32
1000301c:	4682      	mov	sl, r0
1000301e:	4698      	mov	r8, r3
10003020:	e539      	b.n	10002a96 <_ftoa+0xa6>
10003022:	9a24      	ldr	r2, [sp, #144]	; 0x90
10003024:	0752      	lsls	r2, r2, #29
10003026:	d53b      	bpl.n	100030a0 <_ftoa+0x6b0>
10003028:	4642      	mov	r2, r8
1000302a:	4651      	mov	r1, sl
1000302c:	1c54      	adds	r4, r2, #1
1000302e:	4640      	mov	r0, r8
10003030:	222b      	movs	r2, #43	; 0x2b
10003032:	540a      	strb	r2, [r1, r0]
10003034:	e698      	b.n	10002d68 <_ftoa+0x378>
10003036:	003b      	movs	r3, r7
10003038:	4645      	mov	r5, r8
1000303a:	4657      	mov	r7, sl
1000303c:	464e      	mov	r6, r9
1000303e:	469a      	mov	sl, r3
10003040:	e68b      	b.n	10002d5a <_ftoa+0x36a>
10003042:	4645      	mov	r5, r8
10003044:	46b0      	mov	r8, r6
10003046:	4656      	mov	r6, sl
10003048:	46ba      	mov	sl, r7
1000304a:	464f      	mov	r7, r9
1000304c:	4643      	mov	r3, r8
1000304e:	2b20      	cmp	r3, #32
10003050:	d100      	bne.n	10003054 <_ftoa+0x664>
10003052:	e682      	b.n	10002d5a <_ftoa+0x36a>
10003054:	9b06      	ldr	r3, [sp, #24]
10003056:	4640      	mov	r0, r8
10003058:	001a      	movs	r2, r3
1000305a:	4442      	add	r2, r8
1000305c:	0011      	movs	r1, r2
1000305e:	4654      	mov	r4, sl
10003060:	2230      	movs	r2, #48	; 0x30
10003062:	2b00      	cmp	r3, #0
10003064:	d029      	beq.n	100030ba <_ftoa+0x6ca>
10003066:	1c43      	adds	r3, r0, #1
10003068:	5422      	strb	r2, [r4, r0]
1000306a:	2b20      	cmp	r3, #32
1000306c:	d100      	bne.n	10003070 <_ftoa+0x680>
1000306e:	e673      	b.n	10002d58 <_ftoa+0x368>
10003070:	0018      	movs	r0, r3
10003072:	428b      	cmp	r3, r1
10003074:	d1f7      	bne.n	10003066 <_ftoa+0x676>
10003076:	46a2      	mov	sl, r4
10003078:	1c5a      	adds	r2, r3, #1
1000307a:	4690      	mov	r8, r2
1000307c:	4651      	mov	r1, sl
1000307e:	222e      	movs	r2, #46	; 0x2e
10003080:	54ca      	strb	r2, [r1, r3]
10003082:	e553      	b.n	10002b2c <_ftoa+0x13c>
10003084:	465b      	mov	r3, fp
10003086:	9306      	str	r3, [sp, #24]
10003088:	e5c2      	b.n	10002c10 <_ftoa+0x220>
1000308a:	9b23      	ldr	r3, [sp, #140]	; 0x8c
1000308c:	4682      	mov	sl, r0
1000308e:	4698      	mov	r8, r3
10003090:	4642      	mov	r2, r8
10003092:	2301      	movs	r3, #1
10003094:	2a20      	cmp	r2, #32
10003096:	d000      	beq.n	1000309a <_ftoa+0x6aa>
10003098:	e589      	b.n	10002bae <_ftoa+0x1be>
1000309a:	2420      	movs	r4, #32
1000309c:	46d8      	mov	r8, fp
1000309e:	e67e      	b.n	10002d9e <_ftoa+0x3ae>
100030a0:	9a24      	ldr	r2, [sp, #144]	; 0x90
100030a2:	4644      	mov	r4, r8
100030a4:	0712      	lsls	r2, r2, #28
100030a6:	d400      	bmi.n	100030aa <_ftoa+0x6ba>
100030a8:	e65e      	b.n	10002d68 <_ftoa+0x378>
100030aa:	2220      	movs	r2, #32
100030ac:	4651      	mov	r1, sl
100030ae:	4640      	mov	r0, r8
100030b0:	3401      	adds	r4, #1
100030b2:	540a      	strb	r2, [r1, r0]
100030b4:	e658      	b.n	10002d68 <_ftoa+0x378>
100030b6:	46c8      	mov	r8, r9
100030b8:	e7c8      	b.n	1000304c <_ftoa+0x65c>
100030ba:	4643      	mov	r3, r8
100030bc:	e7dc      	b.n	10003078 <_ftoa+0x688>
100030be:	00da      	lsls	r2, r3, #3
100030c0:	4b08      	ldr	r3, [pc, #32]	; (100030e4 <_ftoa+0x6f4>)
100030c2:	189b      	adds	r3, r3, r2
100030c4:	685c      	ldr	r4, [r3, #4]
100030c6:	681b      	ldr	r3, [r3, #0]
100030c8:	9306      	str	r3, [sp, #24]
100030ca:	9407      	str	r4, [sp, #28]
100030cc:	2300      	movs	r3, #0
100030ce:	4698      	mov	r8, r3
100030d0:	ab0e      	add	r3, sp, #56	; 0x38
100030d2:	9c22      	ldr	r4, [sp, #136]	; 0x88
100030d4:	469a      	mov	sl, r3
100030d6:	e4de      	b.n	10002a96 <_ftoa+0xa6>
100030d8:	41cdcd65 	.word	0x41cdcd65
100030dc:	3fe00000 	.word	0x3fe00000
100030e0:	1000937c 	.word	0x1000937c
100030e4:	10009388 	.word	0x10009388

100030e8 <_etoa.part.0>:
100030e8:	b5f0      	push	{r4, r5, r6, r7, lr}
100030ea:	46de      	mov	lr, fp
100030ec:	4657      	mov	r7, sl
100030ee:	464e      	mov	r6, r9
100030f0:	4645      	mov	r5, r8
100030f2:	b5e0      	push	{r5, r6, r7, lr}
100030f4:	b09f      	sub	sp, #124	; 0x7c
100030f6:	469a      	mov	sl, r3
100030f8:	9b29      	ldr	r3, [sp, #164]	; 0xa4
100030fa:	9c28      	ldr	r4, [sp, #160]	; 0xa0
100030fc:	001d      	movs	r5, r3
100030fe:	4681      	mov	r9, r0
10003100:	468b      	mov	fp, r1
10003102:	920a      	str	r2, [sp, #40]	; 0x28
10003104:	9311      	str	r3, [sp, #68]	; 0x44
10003106:	2200      	movs	r2, #0
10003108:	2300      	movs	r3, #0
1000310a:	0020      	movs	r0, r4
1000310c:	0029      	movs	r1, r5
1000310e:	940e      	str	r4, [sp, #56]	; 0x38
10003110:	f001 fcf6 	bl	10004b00 <__wrap___aeabi_dcmplt>
10003114:	2800      	cmp	r0, #0
10003116:	d000      	beq.n	1000311a <_etoa.part.0+0x32>
10003118:	e2e0      	b.n	100036dc <_etoa.part.0+0x5f4>
1000311a:	9b11      	ldr	r3, [sp, #68]	; 0x44
1000311c:	9a0e      	ldr	r2, [sp, #56]	; 0x38
1000311e:	4698      	mov	r8, r3
10003120:	9208      	str	r2, [sp, #32]
10003122:	2380      	movs	r3, #128	; 0x80
10003124:	9a2c      	ldr	r2, [sp, #176]	; 0xb0
10003126:	00db      	lsls	r3, r3, #3
10003128:	401a      	ands	r2, r3
1000312a:	1e13      	subs	r3, r2, #0
1000312c:	9214      	str	r2, [sp, #80]	; 0x50
1000312e:	d101      	bne.n	10003134 <_etoa.part.0+0x4c>
10003130:	3306      	adds	r3, #6
10003132:	932a      	str	r3, [sp, #168]	; 0xa8
10003134:	4643      	mov	r3, r8
10003136:	0058      	lsls	r0, r3, #1
10003138:	4bd5      	ldr	r3, [pc, #852]	; (10003490 <_etoa.part.0+0x3a8>)
1000313a:	0d40      	lsrs	r0, r0, #21
1000313c:	469c      	mov	ip, r3
1000313e:	4460      	add	r0, ip
10003140:	f001 fd04 	bl	10004b4c <__wrap___aeabi_i2d>
10003144:	4ad3      	ldr	r2, [pc, #844]	; (10003494 <_etoa.part.0+0x3ac>)
10003146:	4bd4      	ldr	r3, [pc, #848]	; (10003498 <_etoa.part.0+0x3b0>)
10003148:	f001 fc98 	bl	10004a7c <__wrap___aeabi_dmul>
1000314c:	4ad3      	ldr	r2, [pc, #844]	; (1000349c <_etoa.part.0+0x3b4>)
1000314e:	4bd4      	ldr	r3, [pc, #848]	; (100034a0 <_etoa.part.0+0x3b8>)
10003150:	f001 fc82 	bl	10004a58 <__wrap___aeabi_dadd>
10003154:	4643      	mov	r3, r8
10003156:	4ad3      	ldr	r2, [pc, #844]	; (100034a4 <_etoa.part.0+0x3bc>)
10003158:	031b      	lsls	r3, r3, #12
1000315a:	9e08      	ldr	r6, [sp, #32]
1000315c:	0b1b      	lsrs	r3, r3, #12
1000315e:	431a      	orrs	r2, r3
10003160:	0004      	movs	r4, r0
10003162:	000d      	movs	r5, r1
10003164:	0030      	movs	r0, r6
10003166:	0011      	movs	r1, r2
10003168:	4bcf      	ldr	r3, [pc, #828]	; (100034a8 <_etoa.part.0+0x3c0>)
1000316a:	2200      	movs	r2, #0
1000316c:	f001 fc6b 	bl	10004a46 <__wrap___aeabi_dsub>
10003170:	4ace      	ldr	r2, [pc, #824]	; (100034ac <_etoa.part.0+0x3c4>)
10003172:	4bcf      	ldr	r3, [pc, #828]	; (100034b0 <_etoa.part.0+0x3c8>)
10003174:	f001 fc82 	bl	10004a7c <__wrap___aeabi_dmul>
10003178:	0002      	movs	r2, r0
1000317a:	000b      	movs	r3, r1
1000317c:	0020      	movs	r0, r4
1000317e:	0029      	movs	r1, r5
10003180:	f001 fc6a 	bl	10004a58 <__wrap___aeabi_dadd>
10003184:	f001 fcfa 	bl	10004b7c <__wrap___aeabi_d2iz>
10003188:	900b      	str	r0, [sp, #44]	; 0x2c
1000318a:	f001 fcdf 	bl	10004b4c <__wrap___aeabi_i2d>
1000318e:	4ac9      	ldr	r2, [pc, #804]	; (100034b4 <_etoa.part.0+0x3cc>)
10003190:	4bc9      	ldr	r3, [pc, #804]	; (100034b8 <_etoa.part.0+0x3d0>)
10003192:	0004      	movs	r4, r0
10003194:	000d      	movs	r5, r1
10003196:	f001 fc71 	bl	10004a7c <__wrap___aeabi_dmul>
1000319a:	2200      	movs	r2, #0
1000319c:	4bc7      	ldr	r3, [pc, #796]	; (100034bc <_etoa.part.0+0x3d4>)
1000319e:	f001 fc5b 	bl	10004a58 <__wrap___aeabi_dadd>
100031a2:	f001 fceb 	bl	10004b7c <__wrap___aeabi_d2iz>
100031a6:	4ac6      	ldr	r2, [pc, #792]	; (100034c0 <_etoa.part.0+0x3d8>)
100031a8:	0006      	movs	r6, r0
100031aa:	4bc6      	ldr	r3, [pc, #792]	; (100034c4 <_etoa.part.0+0x3dc>)
100031ac:	0020      	movs	r0, r4
100031ae:	0029      	movs	r1, r5
100031b0:	f001 fc64 	bl	10004a7c <__wrap___aeabi_dmul>
100031b4:	0004      	movs	r4, r0
100031b6:	0030      	movs	r0, r6
100031b8:	000d      	movs	r5, r1
100031ba:	9610      	str	r6, [sp, #64]	; 0x40
100031bc:	f001 fcc6 	bl	10004b4c <__wrap___aeabi_i2d>
100031c0:	4ac1      	ldr	r2, [pc, #772]	; (100034c8 <_etoa.part.0+0x3e0>)
100031c2:	4bc2      	ldr	r3, [pc, #776]	; (100034cc <_etoa.part.0+0x3e4>)
100031c4:	f001 fc5a 	bl	10004a7c <__wrap___aeabi_dmul>
100031c8:	0002      	movs	r2, r0
100031ca:	000b      	movs	r3, r1
100031cc:	0020      	movs	r0, r4
100031ce:	0029      	movs	r1, r5
100031d0:	f001 fc39 	bl	10004a46 <__wrap___aeabi_dsub>
100031d4:	0002      	movs	r2, r0
100031d6:	000b      	movs	r3, r1
100031d8:	0006      	movs	r6, r0
100031da:	000f      	movs	r7, r1
100031dc:	f001 fc4e 	bl	10004a7c <__wrap___aeabi_dmul>
100031e0:	0032      	movs	r2, r6
100031e2:	0004      	movs	r4, r0
100031e4:	000d      	movs	r5, r1
100031e6:	003b      	movs	r3, r7
100031e8:	0030      	movs	r0, r6
100031ea:	0039      	movs	r1, r7
100031ec:	f001 fc34 	bl	10004a58 <__wrap___aeabi_dadd>
100031f0:	2200      	movs	r2, #0
100031f2:	900c      	str	r0, [sp, #48]	; 0x30
100031f4:	910d      	str	r1, [sp, #52]	; 0x34
100031f6:	4bb6      	ldr	r3, [pc, #728]	; (100034d0 <_etoa.part.0+0x3e8>)
100031f8:	0020      	movs	r0, r4
100031fa:	0029      	movs	r1, r5
100031fc:	f001 fc35 	bl	10004a6a <__wrap___aeabi_ddiv>
10003200:	2200      	movs	r2, #0
10003202:	4bb4      	ldr	r3, [pc, #720]	; (100034d4 <_etoa.part.0+0x3ec>)
10003204:	f001 fc28 	bl	10004a58 <__wrap___aeabi_dadd>
10003208:	0002      	movs	r2, r0
1000320a:	000b      	movs	r3, r1
1000320c:	0020      	movs	r0, r4
1000320e:	0029      	movs	r1, r5
10003210:	f001 fc2b 	bl	10004a6a <__wrap___aeabi_ddiv>
10003214:	2200      	movs	r2, #0
10003216:	4bb0      	ldr	r3, [pc, #704]	; (100034d8 <_etoa.part.0+0x3f0>)
10003218:	f001 fc1e 	bl	10004a58 <__wrap___aeabi_dadd>
1000321c:	0002      	movs	r2, r0
1000321e:	000b      	movs	r3, r1
10003220:	0020      	movs	r0, r4
10003222:	0029      	movs	r1, r5
10003224:	f001 fc21 	bl	10004a6a <__wrap___aeabi_ddiv>
10003228:	000d      	movs	r5, r1
1000322a:	2180      	movs	r1, #128	; 0x80
1000322c:	0004      	movs	r4, r0
1000322e:	0032      	movs	r2, r6
10003230:	003b      	movs	r3, r7
10003232:	2000      	movs	r0, #0
10003234:	05c9      	lsls	r1, r1, #23
10003236:	f001 fc06 	bl	10004a46 <__wrap___aeabi_dsub>
1000323a:	0002      	movs	r2, r0
1000323c:	000b      	movs	r3, r1
1000323e:	0020      	movs	r0, r4
10003240:	0029      	movs	r1, r5
10003242:	f001 fc09 	bl	10004a58 <__wrap___aeabi_dadd>
10003246:	0002      	movs	r2, r0
10003248:	000b      	movs	r3, r1
1000324a:	980c      	ldr	r0, [sp, #48]	; 0x30
1000324c:	990d      	ldr	r1, [sp, #52]	; 0x34
1000324e:	f001 fc0c 	bl	10004a6a <__wrap___aeabi_ddiv>
10003252:	2200      	movs	r2, #0
10003254:	4b93      	ldr	r3, [pc, #588]	; (100034a4 <_etoa.part.0+0x3bc>)
10003256:	f001 fbff 	bl	10004a58 <__wrap___aeabi_dadd>
1000325a:	9b10      	ldr	r3, [sp, #64]	; 0x40
1000325c:	4a9f      	ldr	r2, [pc, #636]	; (100034dc <_etoa.part.0+0x3f4>)
1000325e:	001c      	movs	r4, r3
10003260:	4694      	mov	ip, r2
10003262:	4464      	add	r4, ip
10003264:	0523      	lsls	r3, r4, #20
10003266:	2200      	movs	r2, #0
10003268:	f001 fc08 	bl	10004a7c <__wrap___aeabi_dmul>
1000326c:	0004      	movs	r4, r0
1000326e:	000d      	movs	r5, r1
10003270:	0002      	movs	r2, r0
10003272:	000b      	movs	r3, r1
10003274:	9808      	ldr	r0, [sp, #32]
10003276:	4641      	mov	r1, r8
10003278:	f001 fc42 	bl	10004b00 <__wrap___aeabi_dcmplt>
1000327c:	2800      	cmp	r0, #0
1000327e:	d00a      	beq.n	10003296 <_etoa.part.0+0x1ae>
10003280:	9b0b      	ldr	r3, [sp, #44]	; 0x2c
10003282:	0020      	movs	r0, r4
10003284:	3b01      	subs	r3, #1
10003286:	930b      	str	r3, [sp, #44]	; 0x2c
10003288:	0029      	movs	r1, r5
1000328a:	2200      	movs	r2, #0
1000328c:	4b91      	ldr	r3, [pc, #580]	; (100034d4 <_etoa.part.0+0x3ec>)
1000328e:	f001 fbec 	bl	10004a6a <__wrap___aeabi_ddiv>
10003292:	0004      	movs	r4, r0
10003294:	000d      	movs	r5, r1
10003296:	9e0b      	ldr	r6, [sp, #44]	; 0x2c
10003298:	23c6      	movs	r3, #198	; 0xc6
1000329a:	0032      	movs	r2, r6
1000329c:	3263      	adds	r2, #99	; 0x63
1000329e:	4293      	cmp	r3, r2
100032a0:	419b      	sbcs	r3, r3
100032a2:	425b      	negs	r3, r3
100032a4:	3304      	adds	r3, #4
100032a6:	930c      	str	r3, [sp, #48]	; 0x30
100032a8:	9b2c      	ldr	r3, [sp, #176]	; 0xb0
100032aa:	051b      	lsls	r3, r3, #20
100032ac:	d521      	bpl.n	100032f2 <_etoa.part.0+0x20a>
100032ae:	9f08      	ldr	r7, [sp, #32]
100032b0:	4a8b      	ldr	r2, [pc, #556]	; (100034e0 <_etoa.part.0+0x3f8>)
100032b2:	4b8c      	ldr	r3, [pc, #560]	; (100034e4 <_etoa.part.0+0x3fc>)
100032b4:	0038      	movs	r0, r7
100032b6:	4641      	mov	r1, r8
100032b8:	f001 fc28 	bl	10004b0c <__wrap___aeabi_dcmpge>
100032bc:	2800      	cmp	r0, #0
100032be:	d100      	bne.n	100032c2 <_etoa.part.0+0x1da>
100032c0:	e198      	b.n	100035f4 <_etoa.part.0+0x50c>
100032c2:	2200      	movs	r2, #0
100032c4:	4b88      	ldr	r3, [pc, #544]	; (100034e8 <_etoa.part.0+0x400>)
100032c6:	0038      	movs	r0, r7
100032c8:	4641      	mov	r1, r8
100032ca:	f001 fc19 	bl	10004b00 <__wrap___aeabi_dcmplt>
100032ce:	2800      	cmp	r0, #0
100032d0:	d100      	bne.n	100032d4 <_etoa.part.0+0x1ec>
100032d2:	e18f      	b.n	100035f4 <_etoa.part.0+0x50c>
100032d4:	9a2a      	ldr	r2, [sp, #168]	; 0xa8
100032d6:	4296      	cmp	r6, r2
100032d8:	db00      	blt.n	100032dc <_etoa.part.0+0x1f4>
100032da:	e2f9      	b.n	100038d0 <_etoa.part.0+0x7e8>
100032dc:	1b93      	subs	r3, r2, r6
100032de:	3b01      	subs	r3, #1
100032e0:	932a      	str	r3, [sp, #168]	; 0xa8
100032e2:	2380      	movs	r3, #128	; 0x80
100032e4:	9a2c      	ldr	r2, [sp, #176]	; 0xb0
100032e6:	00db      	lsls	r3, r3, #3
100032e8:	431a      	orrs	r2, r3
100032ea:	2300      	movs	r3, #0
100032ec:	922c      	str	r2, [sp, #176]	; 0xb0
100032ee:	930c      	str	r3, [sp, #48]	; 0x30
100032f0:	930b      	str	r3, [sp, #44]	; 0x2c
100032f2:	2300      	movs	r3, #0
100032f4:	992b      	ldr	r1, [sp, #172]	; 0xac
100032f6:	9310      	str	r3, [sp, #64]	; 0x40
100032f8:	9b0c      	ldr	r3, [sp, #48]	; 0x30
100032fa:	428b      	cmp	r3, r1
100032fc:	d201      	bcs.n	10003302 <_etoa.part.0+0x21a>
100032fe:	1acb      	subs	r3, r1, r3
10003300:	9310      	str	r3, [sp, #64]	; 0x40
10003302:	2302      	movs	r3, #2
10003304:	9a2c      	ldr	r2, [sp, #176]	; 0xb0
10003306:	401a      	ands	r2, r3
10003308:	9214      	str	r2, [sp, #80]	; 0x50
1000330a:	d006      	beq.n	1000331a <_etoa.part.0+0x232>
1000330c:	9b0c      	ldr	r3, [sp, #48]	; 0x30
1000330e:	425a      	negs	r2, r3
10003310:	4153      	adcs	r3, r2
10003312:	9a10      	ldr	r2, [sp, #64]	; 0x40
10003314:	425b      	negs	r3, r3
10003316:	401a      	ands	r2, r3
10003318:	9210      	str	r2, [sp, #64]	; 0x40
1000331a:	9b0b      	ldr	r3, [sp, #44]	; 0x2c
1000331c:	2b00      	cmp	r3, #0
1000331e:	d007      	beq.n	10003330 <_etoa.part.0+0x248>
10003320:	9808      	ldr	r0, [sp, #32]
10003322:	4641      	mov	r1, r8
10003324:	0022      	movs	r2, r4
10003326:	002b      	movs	r3, r5
10003328:	f001 fb9f 	bl	10004a6a <__wrap___aeabi_ddiv>
1000332c:	4688      	mov	r8, r1
1000332e:	9008      	str	r0, [sp, #32]
10003330:	2200      	movs	r2, #0
10003332:	2300      	movs	r3, #0
10003334:	980e      	ldr	r0, [sp, #56]	; 0x38
10003336:	9911      	ldr	r1, [sp, #68]	; 0x44
10003338:	f001 fbe2 	bl	10004b00 <__wrap___aeabi_dcmplt>
1000333c:	2800      	cmp	r0, #0
1000333e:	d003      	beq.n	10003348 <_etoa.part.0+0x260>
10003340:	2180      	movs	r1, #128	; 0x80
10003342:	0609      	lsls	r1, r1, #24
10003344:	4441      	add	r1, r8
10003346:	4688      	mov	r8, r1
10003348:	9c08      	ldr	r4, [sp, #32]
1000334a:	4643      	mov	r3, r8
1000334c:	0022      	movs	r2, r4
1000334e:	0020      	movs	r0, r4
10003350:	4641      	mov	r1, r8
10003352:	f001 fbe8 	bl	10004b26 <__wrap___aeabi_dcmpun>
10003356:	2800      	cmp	r0, #0
10003358:	d000      	beq.n	1000335c <_etoa.part.0+0x274>
1000335a:	e2fe      	b.n	1000395a <_etoa.part.0+0x872>
1000335c:	2201      	movs	r2, #1
1000335e:	4b63      	ldr	r3, [pc, #396]	; (100034ec <_etoa.part.0+0x404>)
10003360:	4252      	negs	r2, r2
10003362:	9808      	ldr	r0, [sp, #32]
10003364:	4641      	mov	r1, r8
10003366:	f001 fbcb 	bl	10004b00 <__wrap___aeabi_dcmplt>
1000336a:	2800      	cmp	r0, #0
1000336c:	d000      	beq.n	10003370 <_etoa.part.0+0x288>
1000336e:	e1bd      	b.n	100036ec <_etoa.part.0+0x604>
10003370:	2201      	movs	r2, #1
10003372:	4b5f      	ldr	r3, [pc, #380]	; (100034f0 <_etoa.part.0+0x408>)
10003374:	4252      	negs	r2, r2
10003376:	9808      	ldr	r0, [sp, #32]
10003378:	4641      	mov	r1, r8
1000337a:	f001 fbcf 	bl	10004b1c <__wrap___aeabi_dcmpgt>
1000337e:	2800      	cmp	r0, #0
10003380:	d000      	beq.n	10003384 <_etoa.part.0+0x29c>
10003382:	e0e1      	b.n	10003548 <_etoa.part.0+0x460>
10003384:	9c08      	ldr	r4, [sp, #32]
10003386:	2200      	movs	r2, #0
10003388:	4b5a      	ldr	r3, [pc, #360]	; (100034f4 <_etoa.part.0+0x40c>)
1000338a:	0020      	movs	r0, r4
1000338c:	4641      	mov	r1, r8
1000338e:	f001 fbc5 	bl	10004b1c <__wrap___aeabi_dcmpgt>
10003392:	2800      	cmp	r0, #0
10003394:	d000      	beq.n	10003398 <_etoa.part.0+0x2b0>
10003396:	e138      	b.n	1000360a <_etoa.part.0+0x522>
10003398:	2200      	movs	r2, #0
1000339a:	4b57      	ldr	r3, [pc, #348]	; (100034f8 <_etoa.part.0+0x410>)
1000339c:	0020      	movs	r0, r4
1000339e:	4641      	mov	r1, r8
100033a0:	f001 fbae 	bl	10004b00 <__wrap___aeabi_dcmplt>
100033a4:	2800      	cmp	r0, #0
100033a6:	d000      	beq.n	100033aa <_etoa.part.0+0x2c2>
100033a8:	e12f      	b.n	1000360a <_etoa.part.0+0x522>
100033aa:	2200      	movs	r2, #0
100033ac:	2300      	movs	r3, #0
100033ae:	9808      	ldr	r0, [sp, #32]
100033b0:	4641      	mov	r1, r8
100033b2:	f001 fba5 	bl	10004b00 <__wrap___aeabi_dcmplt>
100033b6:	2800      	cmp	r0, #0
100033b8:	d000      	beq.n	100033bc <_etoa.part.0+0x2d4>
100033ba:	e2c3      	b.n	10003944 <_etoa.part.0+0x85c>
100033bc:	2300      	movs	r3, #0
100033be:	9315      	str	r3, [sp, #84]	; 0x54
100033c0:	2580      	movs	r5, #128	; 0x80
100033c2:	9b2c      	ldr	r3, [sp, #176]	; 0xb0
100033c4:	00ed      	lsls	r5, r5, #3
100033c6:	401d      	ands	r5, r3
100033c8:	d000      	beq.n	100033cc <_etoa.part.0+0x2e4>
100033ca:	e267      	b.n	1000389c <_etoa.part.0+0x7b4>
100033cc:	2300      	movs	r3, #0
100033ce:	4c46      	ldr	r4, [pc, #280]	; (100034e8 <_etoa.part.0+0x400>)
100033d0:	af16      	add	r7, sp, #88	; 0x58
100033d2:	930e      	str	r3, [sp, #56]	; 0x38
100033d4:	940f      	str	r4, [sp, #60]	; 0x3c
100033d6:	2406      	movs	r4, #6
100033d8:	9e08      	ldr	r6, [sp, #32]
100033da:	4641      	mov	r1, r8
100033dc:	0030      	movs	r0, r6
100033de:	f001 fbcd 	bl	10004b7c <__wrap___aeabi_d2iz>
100033e2:	9011      	str	r0, [sp, #68]	; 0x44
100033e4:	f001 fbb2 	bl	10004b4c <__wrap___aeabi_i2d>
100033e8:	0002      	movs	r2, r0
100033ea:	000b      	movs	r3, r1
100033ec:	0030      	movs	r0, r6
100033ee:	4641      	mov	r1, r8
100033f0:	f001 fb29 	bl	10004a46 <__wrap___aeabi_dsub>
100033f4:	9a0e      	ldr	r2, [sp, #56]	; 0x38
100033f6:	9b0f      	ldr	r3, [sp, #60]	; 0x3c
100033f8:	f001 fb40 	bl	10004a7c <__wrap___aeabi_dmul>
100033fc:	9012      	str	r0, [sp, #72]	; 0x48
100033fe:	9113      	str	r1, [sp, #76]	; 0x4c
10003400:	f001 fbe0 	bl	10004bc4 <__wrap___aeabi_d2uiz>
10003404:	0006      	movs	r6, r0
10003406:	f001 fb9d 	bl	10004b44 <__wrap___aeabi_ui2d>
1000340a:	0002      	movs	r2, r0
1000340c:	000b      	movs	r3, r1
1000340e:	9812      	ldr	r0, [sp, #72]	; 0x48
10003410:	9913      	ldr	r1, [sp, #76]	; 0x4c
10003412:	f001 fb18 	bl	10004a46 <__wrap___aeabi_dsub>
10003416:	2200      	movs	r2, #0
10003418:	4b28      	ldr	r3, [pc, #160]	; (100034bc <_etoa.part.0+0x3d4>)
1000341a:	9012      	str	r0, [sp, #72]	; 0x48
1000341c:	9113      	str	r1, [sp, #76]	; 0x4c
1000341e:	f001 fb7d 	bl	10004b1c <__wrap___aeabi_dcmpgt>
10003422:	2800      	cmp	r0, #0
10003424:	d100      	bne.n	10003428 <_etoa.part.0+0x340>
10003426:	e21f      	b.n	10003868 <_etoa.part.0+0x780>
10003428:	3601      	adds	r6, #1
1000342a:	0030      	movs	r0, r6
1000342c:	f001 fb8a 	bl	10004b44 <__wrap___aeabi_ui2d>
10003430:	9a0e      	ldr	r2, [sp, #56]	; 0x38
10003432:	9b0f      	ldr	r3, [sp, #60]	; 0x3c
10003434:	f001 fb6a 	bl	10004b0c <__wrap___aeabi_dcmpge>
10003438:	2800      	cmp	r0, #0
1000343a:	d000      	beq.n	1000343e <_etoa.part.0+0x356>
1000343c:	e25b      	b.n	100038f6 <_etoa.part.0+0x80e>
1000343e:	2c00      	cmp	r4, #0
10003440:	d000      	beq.n	10003444 <_etoa.part.0+0x35c>
10003442:	e198      	b.n	10003776 <_etoa.part.0+0x68e>
10003444:	9c11      	ldr	r4, [sp, #68]	; 0x44
10003446:	0020      	movs	r0, r4
10003448:	f001 fb80 	bl	10004b4c <__wrap___aeabi_i2d>
1000344c:	0002      	movs	r2, r0
1000344e:	000b      	movs	r3, r1
10003450:	9808      	ldr	r0, [sp, #32]
10003452:	4641      	mov	r1, r8
10003454:	f001 faf7 	bl	10004a46 <__wrap___aeabi_dsub>
10003458:	2200      	movs	r2, #0
1000345a:	4b18      	ldr	r3, [pc, #96]	; (100034bc <_etoa.part.0+0x3d4>)
1000345c:	9008      	str	r0, [sp, #32]
1000345e:	9109      	str	r1, [sp, #36]	; 0x24
10003460:	f001 fb4e 	bl	10004b00 <__wrap___aeabi_dcmplt>
10003464:	2800      	cmp	r0, #0
10003466:	d100      	bne.n	1000346a <_etoa.part.0+0x382>
10003468:	e235      	b.n	100038d6 <_etoa.part.0+0x7ee>
1000346a:	2d20      	cmp	r5, #32
1000346c:	d100      	bne.n	10003470 <_etoa.part.0+0x388>
1000346e:	e1ab      	b.n	100037c8 <_etoa.part.0+0x6e0>
10003470:	9e11      	ldr	r6, [sp, #68]	; 0x44
10003472:	210a      	movs	r1, #10
10003474:	0030      	movs	r0, r6
10003476:	f001 f875 	bl	10004564 <__wrap___aeabi_idiv>
1000347a:	3130      	adds	r1, #48	; 0x30
1000347c:	5579      	strb	r1, [r7, r5]
1000347e:	0030      	movs	r0, r6
10003480:	210a      	movs	r1, #10
10003482:	f001 f86f 	bl	10004564 <__wrap___aeabi_idiv>
10003486:	1c6c      	adds	r4, r5, #1
10003488:	1e06      	subs	r6, r0, #0
1000348a:	d138      	bne.n	100034fe <_etoa.part.0+0x416>
1000348c:	e2e1      	b.n	10003a52 <_etoa.part.0+0x96a>
1000348e:	46c0      	nop			; (mov r8, r8)
10003490:	fffffc01 	.word	0xfffffc01
10003494:	509f79fb 	.word	0x509f79fb
10003498:	3fd34413 	.word	0x3fd34413
1000349c:	8b60c8b3 	.word	0x8b60c8b3
100034a0:	3fc68a28 	.word	0x3fc68a28
100034a4:	3ff00000 	.word	0x3ff00000
100034a8:	3ff80000 	.word	0x3ff80000
100034ac:	636f4361 	.word	0x636f4361
100034b0:	3fd287a7 	.word	0x3fd287a7
100034b4:	0979a371 	.word	0x0979a371
100034b8:	400a934f 	.word	0x400a934f
100034bc:	3fe00000 	.word	0x3fe00000
100034c0:	bbb55516 	.word	0xbbb55516
100034c4:	40026bb1 	.word	0x40026bb1
100034c8:	fefa39ef 	.word	0xfefa39ef
100034cc:	3fe62e42 	.word	0x3fe62e42
100034d0:	402c0000 	.word	0x402c0000
100034d4:	40240000 	.word	0x40240000
100034d8:	40180000 	.word	0x40180000
100034dc:	000003ff 	.word	0x000003ff
100034e0:	eb1c432d 	.word	0xeb1c432d
100034e4:	3f1a36e2 	.word	0x3f1a36e2
100034e8:	412e8480 	.word	0x412e8480
100034ec:	ffefffff 	.word	0xffefffff
100034f0:	7fefffff 	.word	0x7fefffff
100034f4:	41cdcd65 	.word	0x41cdcd65
100034f8:	c1cdcd65 	.word	0xc1cdcd65
100034fc:	002c      	movs	r4, r5
100034fe:	2c20      	cmp	r4, #32
10003500:	d100      	bne.n	10003504 <_etoa.part.0+0x41c>
10003502:	e161      	b.n	100037c8 <_etoa.part.0+0x6e0>
10003504:	0030      	movs	r0, r6
10003506:	210a      	movs	r1, #10
10003508:	f001 f82c 	bl	10004564 <__wrap___aeabi_idiv>
1000350c:	1c65      	adds	r5, r4, #1
1000350e:	3130      	adds	r1, #48	; 0x30
10003510:	193c      	adds	r4, r7, r4
10003512:	7021      	strb	r1, [r4, #0]
10003514:	0030      	movs	r0, r6
10003516:	210a      	movs	r1, #10
10003518:	f001 f824 	bl	10004564 <__wrap___aeabi_idiv>
1000351c:	1e06      	subs	r6, r0, #0
1000351e:	d1ed      	bne.n	100034fc <_etoa.part.0+0x414>
10003520:	2303      	movs	r3, #3
10003522:	9a2c      	ldr	r2, [sp, #176]	; 0xb0
10003524:	4013      	ands	r3, r2
10003526:	2b01      	cmp	r3, #1
10003528:	d100      	bne.n	1000352c <_etoa.part.0+0x444>
1000352a:	e1ea      	b.n	10003902 <_etoa.part.0+0x81a>
1000352c:	2220      	movs	r2, #32
1000352e:	4690      	mov	r8, r2
10003530:	2d20      	cmp	r5, #32
10003532:	d100      	bne.n	10003536 <_etoa.part.0+0x44e>
10003534:	e150      	b.n	100037d8 <_etoa.part.0+0x6f0>
10003536:	9a15      	ldr	r2, [sp, #84]	; 0x54
10003538:	2a00      	cmp	r2, #0
1000353a:	d100      	bne.n	1000353e <_etoa.part.0+0x456>
1000353c:	e255      	b.n	100039ea <_etoa.part.0+0x902>
1000353e:	1c6a      	adds	r2, r5, #1
10003540:	4690      	mov	r8, r2
10003542:	222d      	movs	r2, #45	; 0x2d
10003544:	557a      	strb	r2, [r7, r5]
10003546:	e147      	b.n	100037d8 <_etoa.part.0+0x6f0>
10003548:	9b2c      	ldr	r3, [sp, #176]	; 0xb0
1000354a:	075b      	lsls	r3, r3, #29
1000354c:	d500      	bpl.n	10003550 <_etoa.part.0+0x468>
1000354e:	e10e      	b.n	1000376e <_etoa.part.0+0x686>
10003550:	2303      	movs	r3, #3
10003552:	4698      	mov	r8, r3
10003554:	4fcc      	ldr	r7, [pc, #816]	; (10003888 <_etoa.part.0+0x7a0>)
10003556:	990a      	ldr	r1, [sp, #40]	; 0x28
10003558:	9b2c      	ldr	r3, [sp, #176]	; 0xb0
1000355a:	000c      	movs	r4, r1
1000355c:	079b      	lsls	r3, r3, #30
1000355e:	d115      	bne.n	1000358c <_etoa.part.0+0x4a4>
10003560:	9b10      	ldr	r3, [sp, #64]	; 0x40
10003562:	4543      	cmp	r3, r8
10003564:	d912      	bls.n	1000358c <_etoa.part.0+0x4a4>
10003566:	469c      	mov	ip, r3
10003568:	4643      	mov	r3, r8
1000356a:	464e      	mov	r6, r9
1000356c:	46b9      	mov	r9, r7
1000356e:	465f      	mov	r7, fp
10003570:	000a      	movs	r2, r1
10003572:	4461      	add	r1, ip
10003574:	1acd      	subs	r5, r1, r3
10003576:	1c54      	adds	r4, r2, #1
10003578:	4653      	mov	r3, sl
1000357a:	0039      	movs	r1, r7
1000357c:	2020      	movs	r0, #32
1000357e:	47b0      	blx	r6
10003580:	0022      	movs	r2, r4
10003582:	42ac      	cmp	r4, r5
10003584:	d1f7      	bne.n	10003576 <_etoa.part.0+0x48e>
10003586:	46bb      	mov	fp, r7
10003588:	464f      	mov	r7, r9
1000358a:	46b1      	mov	r9, r6
1000358c:	464b      	mov	r3, r9
1000358e:	0022      	movs	r2, r4
10003590:	46a1      	mov	r9, r4
10003592:	4645      	mov	r5, r8
10003594:	001c      	movs	r4, r3
10003596:	3d01      	subs	r5, #1
10003598:	1c56      	adds	r6, r2, #1
1000359a:	5d78      	ldrb	r0, [r7, r5]
1000359c:	4653      	mov	r3, sl
1000359e:	4659      	mov	r1, fp
100035a0:	47a0      	blx	r4
100035a2:	0032      	movs	r2, r6
100035a4:	2d00      	cmp	r5, #0
100035a6:	d1f6      	bne.n	10003596 <_etoa.part.0+0x4ae>
100035a8:	0023      	movs	r3, r4
100035aa:	464c      	mov	r4, r9
100035ac:	0022      	movs	r2, r4
100035ae:	4699      	mov	r9, r3
100035b0:	9b14      	ldr	r3, [sp, #80]	; 0x50
100035b2:	4442      	add	r2, r8
100035b4:	2b00      	cmp	r3, #0
100035b6:	d03b      	beq.n	10003630 <_etoa.part.0+0x548>
100035b8:	9b0a      	ldr	r3, [sp, #40]	; 0x28
100035ba:	9e10      	ldr	r6, [sp, #64]	; 0x40
100035bc:	1ad3      	subs	r3, r2, r3
100035be:	429e      	cmp	r6, r3
100035c0:	d936      	bls.n	10003630 <_etoa.part.0+0x548>
100035c2:	464f      	mov	r7, r9
100035c4:	465d      	mov	r5, fp
100035c6:	4653      	mov	r3, sl
100035c8:	0029      	movs	r1, r5
100035ca:	2020      	movs	r0, #32
100035cc:	1c54      	adds	r4, r2, #1
100035ce:	47b8      	blx	r7
100035d0:	9b0a      	ldr	r3, [sp, #40]	; 0x28
100035d2:	0022      	movs	r2, r4
100035d4:	1ae3      	subs	r3, r4, r3
100035d6:	429e      	cmp	r6, r3
100035d8:	d8f5      	bhi.n	100035c6 <_etoa.part.0+0x4de>
100035da:	46b9      	mov	r9, r7
100035dc:	46ab      	mov	fp, r5
100035de:	9c0c      	ldr	r4, [sp, #48]	; 0x30
100035e0:	2c00      	cmp	r4, #0
100035e2:	d128      	bne.n	10003636 <_etoa.part.0+0x54e>
100035e4:	0010      	movs	r0, r2
100035e6:	b01f      	add	sp, #124	; 0x7c
100035e8:	bc3c      	pop	{r2, r3, r4, r5}
100035ea:	4690      	mov	r8, r2
100035ec:	4699      	mov	r9, r3
100035ee:	46a2      	mov	sl, r4
100035f0:	46ab      	mov	fp, r5
100035f2:	bdf0      	pop	{r4, r5, r6, r7, pc}
100035f4:	9b2a      	ldr	r3, [sp, #168]	; 0xa8
100035f6:	2b00      	cmp	r3, #0
100035f8:	d100      	bne.n	100035fc <_etoa.part.0+0x514>
100035fa:	e67a      	b.n	100032f2 <_etoa.part.0+0x20a>
100035fc:	9b14      	ldr	r3, [sp, #80]	; 0x50
100035fe:	1e5a      	subs	r2, r3, #1
10003600:	4193      	sbcs	r3, r2
10003602:	9a2a      	ldr	r2, [sp, #168]	; 0xa8
10003604:	1ad3      	subs	r3, r2, r3
10003606:	932a      	str	r3, [sp, #168]	; 0xa8
10003608:	e673      	b.n	100032f2 <_etoa.part.0+0x20a>
1000360a:	9a2c      	ldr	r2, [sp, #176]	; 0xb0
1000360c:	4b9f      	ldr	r3, [pc, #636]	; (1000388c <_etoa.part.0+0x7a4>)
1000360e:	4659      	mov	r1, fp
10003610:	4013      	ands	r3, r2
10003612:	9304      	str	r3, [sp, #16]
10003614:	9b10      	ldr	r3, [sp, #64]	; 0x40
10003616:	9a08      	ldr	r2, [sp, #32]
10003618:	9303      	str	r3, [sp, #12]
1000361a:	9b2a      	ldr	r3, [sp, #168]	; 0xa8
1000361c:	4648      	mov	r0, r9
1000361e:	9302      	str	r3, [sp, #8]
10003620:	4643      	mov	r3, r8
10003622:	9200      	str	r2, [sp, #0]
10003624:	9301      	str	r3, [sp, #4]
10003626:	9a0a      	ldr	r2, [sp, #40]	; 0x28
10003628:	4653      	mov	r3, sl
1000362a:	f7ff fd5d 	bl	100030e8 <_etoa.part.0>
1000362e:	0002      	movs	r2, r0
10003630:	9c0c      	ldr	r4, [sp, #48]	; 0x30
10003632:	2c00      	cmp	r4, #0
10003634:	d0d6      	beq.n	100035e4 <_etoa.part.0+0x4fc>
10003636:	2020      	movs	r0, #32
10003638:	9b2c      	ldr	r3, [sp, #176]	; 0xb0
1000363a:	3c01      	subs	r4, #1
1000363c:	4003      	ands	r3, r0
1000363e:	4259      	negs	r1, r3
10003640:	414b      	adcs	r3, r1
10003642:	425b      	negs	r3, r3
10003644:	4018      	ands	r0, r3
10003646:	1c53      	adds	r3, r2, #1
10003648:	9308      	str	r3, [sp, #32]
1000364a:	3045      	adds	r0, #69	; 0x45
1000364c:	4653      	mov	r3, sl
1000364e:	4659      	mov	r1, fp
10003650:	47c8      	blx	r9
10003652:	9b0b      	ldr	r3, [sp, #44]	; 0x2c
10003654:	af16      	add	r7, sp, #88	; 0x58
10003656:	17da      	asrs	r2, r3, #31
10003658:	189d      	adds	r5, r3, r2
1000365a:	0fdb      	lsrs	r3, r3, #31
1000365c:	940b      	str	r4, [sp, #44]	; 0x2c
1000365e:	4055      	eors	r5, r2
10003660:	4698      	mov	r8, r3
10003662:	2400      	movs	r4, #0
10003664:	e002      	b.n	1000366c <_etoa.part.0+0x584>
10003666:	0034      	movs	r4, r6
10003668:	2e20      	cmp	r6, #32
1000366a:	d00d      	beq.n	10003688 <_etoa.part.0+0x5a0>
1000366c:	0028      	movs	r0, r5
1000366e:	210a      	movs	r1, #10
10003670:	f000 ffa4 	bl	100045bc <__wrap___aeabi_uidiv>
10003674:	1c66      	adds	r6, r4, #1
10003676:	3130      	adds	r1, #48	; 0x30
10003678:	193c      	adds	r4, r7, r4
1000367a:	7021      	strb	r1, [r4, #0]
1000367c:	0028      	movs	r0, r5
1000367e:	210a      	movs	r1, #10
10003680:	f000 ff9c 	bl	100045bc <__wrap___aeabi_uidiv>
10003684:	1e05      	subs	r5, r0, #0
10003686:	d1ee      	bne.n	10003666 <_etoa.part.0+0x57e>
10003688:	2305      	movs	r3, #5
1000368a:	9306      	str	r3, [sp, #24]
1000368c:	9b0b      	ldr	r3, [sp, #44]	; 0x2c
1000368e:	9a08      	ldr	r2, [sp, #32]
10003690:	9305      	str	r3, [sp, #20]
10003692:	2300      	movs	r3, #0
10003694:	9304      	str	r3, [sp, #16]
10003696:	330a      	adds	r3, #10
10003698:	9303      	str	r3, [sp, #12]
1000369a:	4643      	mov	r3, r8
1000369c:	9601      	str	r6, [sp, #4]
1000369e:	9302      	str	r3, [sp, #8]
100036a0:	9700      	str	r7, [sp, #0]
100036a2:	4653      	mov	r3, sl
100036a4:	4659      	mov	r1, fp
100036a6:	4648      	mov	r0, r9
100036a8:	f7ff f86a 	bl	10002780 <_ntoa_format>
100036ac:	9b14      	ldr	r3, [sp, #80]	; 0x50
100036ae:	0002      	movs	r2, r0
100036b0:	2b00      	cmp	r3, #0
100036b2:	d097      	beq.n	100035e4 <_etoa.part.0+0x4fc>
100036b4:	990a      	ldr	r1, [sp, #40]	; 0x28
100036b6:	1a43      	subs	r3, r0, r1
100036b8:	982b      	ldr	r0, [sp, #172]	; 0xac
100036ba:	4298      	cmp	r0, r3
100036bc:	d992      	bls.n	100035e4 <_etoa.part.0+0x4fc>
100036be:	464e      	mov	r6, r9
100036c0:	465f      	mov	r7, fp
100036c2:	4688      	mov	r8, r1
100036c4:	0005      	movs	r5, r0
100036c6:	4653      	mov	r3, sl
100036c8:	0039      	movs	r1, r7
100036ca:	2020      	movs	r0, #32
100036cc:	1c54      	adds	r4, r2, #1
100036ce:	47b0      	blx	r6
100036d0:	4643      	mov	r3, r8
100036d2:	0022      	movs	r2, r4
100036d4:	1ae3      	subs	r3, r4, r3
100036d6:	429d      	cmp	r5, r3
100036d8:	d8f5      	bhi.n	100036c6 <_etoa.part.0+0x5de>
100036da:	e783      	b.n	100035e4 <_etoa.part.0+0x4fc>
100036dc:	2280      	movs	r2, #128	; 0x80
100036de:	0612      	lsls	r2, r2, #24
100036e0:	4694      	mov	ip, r2
100036e2:	9b11      	ldr	r3, [sp, #68]	; 0x44
100036e4:	9408      	str	r4, [sp, #32]
100036e6:	4463      	add	r3, ip
100036e8:	4698      	mov	r8, r3
100036ea:	e51a      	b.n	10003122 <_etoa.part.0+0x3a>
100036ec:	9a0a      	ldr	r2, [sp, #40]	; 0x28
100036ee:	9b2c      	ldr	r3, [sp, #176]	; 0xb0
100036f0:	0014      	movs	r4, r2
100036f2:	079b      	lsls	r3, r3, #30
100036f4:	d111      	bne.n	1000371a <_etoa.part.0+0x632>
100036f6:	9b10      	ldr	r3, [sp, #64]	; 0x40
100036f8:	2b04      	cmp	r3, #4
100036fa:	d90e      	bls.n	1000371a <_etoa.part.0+0x632>
100036fc:	469c      	mov	ip, r3
100036fe:	464e      	mov	r6, r9
10003700:	465f      	mov	r7, fp
10003702:	1f15      	subs	r5, r2, #4
10003704:	4465      	add	r5, ip
10003706:	1c54      	adds	r4, r2, #1
10003708:	4653      	mov	r3, sl
1000370a:	0039      	movs	r1, r7
1000370c:	2020      	movs	r0, #32
1000370e:	47b0      	blx	r6
10003710:	0022      	movs	r2, r4
10003712:	42ac      	cmp	r4, r5
10003714:	d1f7      	bne.n	10003706 <_etoa.part.0+0x61e>
10003716:	46b1      	mov	r9, r6
10003718:	46bb      	mov	fp, r7
1000371a:	0022      	movs	r2, r4
1000371c:	46a0      	mov	r8, r4
1000371e:	2504      	movs	r5, #4
10003720:	464c      	mov	r4, r9
10003722:	4f5b      	ldr	r7, [pc, #364]	; (10003890 <_etoa.part.0+0x7a8>)
10003724:	3d01      	subs	r5, #1
10003726:	1c56      	adds	r6, r2, #1
10003728:	5d78      	ldrb	r0, [r7, r5]
1000372a:	4653      	mov	r3, sl
1000372c:	4659      	mov	r1, fp
1000372e:	47a0      	blx	r4
10003730:	0032      	movs	r2, r6
10003732:	2d00      	cmp	r5, #0
10003734:	d1f6      	bne.n	10003724 <_etoa.part.0+0x63c>
10003736:	46a1      	mov	r9, r4
10003738:	4644      	mov	r4, r8
1000373a:	9b14      	ldr	r3, [sp, #80]	; 0x50
1000373c:	1d22      	adds	r2, r4, #4
1000373e:	2b00      	cmp	r3, #0
10003740:	d100      	bne.n	10003744 <_etoa.part.0+0x65c>
10003742:	e775      	b.n	10003630 <_etoa.part.0+0x548>
10003744:	9b0a      	ldr	r3, [sp, #40]	; 0x28
10003746:	9e10      	ldr	r6, [sp, #64]	; 0x40
10003748:	1ad3      	subs	r3, r2, r3
1000374a:	429e      	cmp	r6, r3
1000374c:	d800      	bhi.n	10003750 <_etoa.part.0+0x668>
1000374e:	e76f      	b.n	10003630 <_etoa.part.0+0x548>
10003750:	464f      	mov	r7, r9
10003752:	465d      	mov	r5, fp
10003754:	4653      	mov	r3, sl
10003756:	0029      	movs	r1, r5
10003758:	2020      	movs	r0, #32
1000375a:	1c54      	adds	r4, r2, #1
1000375c:	47b8      	blx	r7
1000375e:	9b0a      	ldr	r3, [sp, #40]	; 0x28
10003760:	0022      	movs	r2, r4
10003762:	1ae3      	subs	r3, r4, r3
10003764:	429e      	cmp	r6, r3
10003766:	d8f5      	bhi.n	10003754 <_etoa.part.0+0x66c>
10003768:	46b9      	mov	r9, r7
1000376a:	46ab      	mov	fp, r5
1000376c:	e737      	b.n	100035de <_etoa.part.0+0x4f6>
1000376e:	2304      	movs	r3, #4
10003770:	4f48      	ldr	r7, [pc, #288]	; (10003894 <_etoa.part.0+0x7ac>)
10003772:	4698      	mov	r8, r3
10003774:	e6ef      	b.n	10003556 <_etoa.part.0+0x46e>
10003776:	2d20      	cmp	r5, #32
10003778:	d026      	beq.n	100037c8 <_etoa.part.0+0x6e0>
1000377a:	1e63      	subs	r3, r4, #1
1000377c:	0030      	movs	r0, r6
1000377e:	210a      	movs	r1, #10
10003780:	4698      	mov	r8, r3
10003782:	f000 ff1b 	bl	100045bc <__wrap___aeabi_uidiv>
10003786:	3130      	adds	r1, #48	; 0x30
10003788:	5579      	strb	r1, [r7, r5]
1000378a:	0030      	movs	r0, r6
1000378c:	210a      	movs	r1, #10
1000378e:	f000 ff15 	bl	100045bc <__wrap___aeabi_uidiv>
10003792:	1c6c      	adds	r4, r5, #1
10003794:	1e06      	subs	r6, r0, #0
10003796:	d100      	bne.n	1000379a <_etoa.part.0+0x6b2>
10003798:	e15d      	b.n	10003a56 <_etoa.part.0+0x96e>
1000379a:	4645      	mov	r5, r8
1000379c:	46b8      	mov	r8, r7
1000379e:	e010      	b.n	100037c2 <_etoa.part.0+0x6da>
100037a0:	0030      	movs	r0, r6
100037a2:	210a      	movs	r1, #10
100037a4:	f000 ff0a 	bl	100045bc <__wrap___aeabi_uidiv>
100037a8:	1c67      	adds	r7, r4, #1
100037aa:	3130      	adds	r1, #48	; 0x30
100037ac:	4444      	add	r4, r8
100037ae:	7021      	strb	r1, [r4, #0]
100037b0:	0030      	movs	r0, r6
100037b2:	210a      	movs	r1, #10
100037b4:	f000 ff02 	bl	100045bc <__wrap___aeabi_uidiv>
100037b8:	3d01      	subs	r5, #1
100037ba:	1e06      	subs	r6, r0, #0
100037bc:	d100      	bne.n	100037c0 <_etoa.part.0+0x6d8>
100037be:	e11c      	b.n	100039fa <_etoa.part.0+0x912>
100037c0:	003c      	movs	r4, r7
100037c2:	2c20      	cmp	r4, #32
100037c4:	d1ec      	bne.n	100037a0 <_etoa.part.0+0x6b8>
100037c6:	4647      	mov	r7, r8
100037c8:	2303      	movs	r3, #3
100037ca:	9a2c      	ldr	r2, [sp, #176]	; 0xb0
100037cc:	4013      	ands	r3, r2
100037ce:	2b01      	cmp	r3, #1
100037d0:	d100      	bne.n	100037d4 <_etoa.part.0+0x6ec>
100037d2:	e095      	b.n	10003900 <_etoa.part.0+0x818>
100037d4:	2220      	movs	r2, #32
100037d6:	4690      	mov	r8, r2
100037d8:	990a      	ldr	r1, [sp, #40]	; 0x28
100037da:	000c      	movs	r4, r1
100037dc:	2b00      	cmp	r3, #0
100037de:	d115      	bne.n	1000380c <_etoa.part.0+0x724>
100037e0:	9b10      	ldr	r3, [sp, #64]	; 0x40
100037e2:	4543      	cmp	r3, r8
100037e4:	d912      	bls.n	1000380c <_etoa.part.0+0x724>
100037e6:	469c      	mov	ip, r3
100037e8:	4643      	mov	r3, r8
100037ea:	464e      	mov	r6, r9
100037ec:	46b9      	mov	r9, r7
100037ee:	465f      	mov	r7, fp
100037f0:	000a      	movs	r2, r1
100037f2:	4461      	add	r1, ip
100037f4:	1acd      	subs	r5, r1, r3
100037f6:	1c54      	adds	r4, r2, #1
100037f8:	4653      	mov	r3, sl
100037fa:	0039      	movs	r1, r7
100037fc:	2020      	movs	r0, #32
100037fe:	47b0      	blx	r6
10003800:	0022      	movs	r2, r4
10003802:	42ac      	cmp	r4, r5
10003804:	d1f7      	bne.n	100037f6 <_etoa.part.0+0x70e>
10003806:	46bb      	mov	fp, r7
10003808:	464f      	mov	r7, r9
1000380a:	46b1      	mov	r9, r6
1000380c:	465b      	mov	r3, fp
1000380e:	0039      	movs	r1, r7
10003810:	0022      	movs	r2, r4
10003812:	46a3      	mov	fp, r4
10003814:	464f      	mov	r7, r9
10003816:	4645      	mov	r5, r8
10003818:	4689      	mov	r9, r1
1000381a:	001c      	movs	r4, r3
1000381c:	464b      	mov	r3, r9
1000381e:	3d01      	subs	r5, #1
10003820:	1c56      	adds	r6, r2, #1
10003822:	5d58      	ldrb	r0, [r3, r5]
10003824:	0021      	movs	r1, r4
10003826:	4653      	mov	r3, sl
10003828:	47b8      	blx	r7
1000382a:	0032      	movs	r2, r6
1000382c:	2d00      	cmp	r5, #0
1000382e:	d1f5      	bne.n	1000381c <_etoa.part.0+0x734>
10003830:	0023      	movs	r3, r4
10003832:	465c      	mov	r4, fp
10003834:	0022      	movs	r2, r4
10003836:	469b      	mov	fp, r3
10003838:	9b14      	ldr	r3, [sp, #80]	; 0x50
1000383a:	46b9      	mov	r9, r7
1000383c:	4442      	add	r2, r8
1000383e:	2b00      	cmp	r3, #0
10003840:	d100      	bne.n	10003844 <_etoa.part.0+0x75c>
10003842:	e6f5      	b.n	10003630 <_etoa.part.0+0x548>
10003844:	9b0a      	ldr	r3, [sp, #40]	; 0x28
10003846:	9e10      	ldr	r6, [sp, #64]	; 0x40
10003848:	1ad3      	subs	r3, r2, r3
1000384a:	429e      	cmp	r6, r3
1000384c:	d800      	bhi.n	10003850 <_etoa.part.0+0x768>
1000384e:	e6ef      	b.n	10003630 <_etoa.part.0+0x548>
10003850:	465d      	mov	r5, fp
10003852:	4653      	mov	r3, sl
10003854:	0029      	movs	r1, r5
10003856:	2020      	movs	r0, #32
10003858:	1c54      	adds	r4, r2, #1
1000385a:	47b8      	blx	r7
1000385c:	9b0a      	ldr	r3, [sp, #40]	; 0x28
1000385e:	0022      	movs	r2, r4
10003860:	1ae3      	subs	r3, r4, r3
10003862:	429e      	cmp	r6, r3
10003864:	d8f5      	bhi.n	10003852 <_etoa.part.0+0x76a>
10003866:	e6b8      	b.n	100035da <_etoa.part.0+0x4f2>
10003868:	2200      	movs	r2, #0
1000386a:	9812      	ldr	r0, [sp, #72]	; 0x48
1000386c:	9913      	ldr	r1, [sp, #76]	; 0x4c
1000386e:	4b0a      	ldr	r3, [pc, #40]	; (10003898 <_etoa.part.0+0x7b0>)
10003870:	f001 f946 	bl	10004b00 <__wrap___aeabi_dcmplt>
10003874:	2800      	cmp	r0, #0
10003876:	d000      	beq.n	1000387a <_etoa.part.0+0x792>
10003878:	e5e1      	b.n	1000343e <_etoa.part.0+0x356>
1000387a:	2e00      	cmp	r6, #0
1000387c:	d002      	beq.n	10003884 <_etoa.part.0+0x79c>
1000387e:	07f3      	lsls	r3, r6, #31
10003880:	d400      	bmi.n	10003884 <_etoa.part.0+0x79c>
10003882:	e5dc      	b.n	1000343e <_etoa.part.0+0x356>
10003884:	3601      	adds	r6, #1
10003886:	e5da      	b.n	1000343e <_etoa.part.0+0x356>
10003888:	10009378 	.word	0x10009378
1000388c:	fffff7ff 	.word	0xfffff7ff
10003890:	10009380 	.word	0x10009380
10003894:	10009370 	.word	0x10009370
10003898:	3fe00000 	.word	0x3fe00000
1000389c:	9b2a      	ldr	r3, [sp, #168]	; 0xa8
1000389e:	2b09      	cmp	r3, #9
100038a0:	d800      	bhi.n	100038a4 <_etoa.part.0+0x7bc>
100038a2:	e0dc      	b.n	10003a5e <_etoa.part.0+0x976>
100038a4:	2330      	movs	r3, #48	; 0x30
100038a6:	af16      	add	r7, sp, #88	; 0x58
100038a8:	703b      	strb	r3, [r7, #0]
100038aa:	9b2a      	ldr	r3, [sp, #168]	; 0xa8
100038ac:	2501      	movs	r5, #1
100038ae:	1e5c      	subs	r4, r3, #1
100038b0:	2230      	movs	r2, #48	; 0x30
100038b2:	3b20      	subs	r3, #32
100038b4:	e005      	b.n	100038c2 <_etoa.part.0+0x7da>
100038b6:	3c01      	subs	r4, #1
100038b8:	557a      	strb	r2, [r7, r5]
100038ba:	3501      	adds	r5, #1
100038bc:	429c      	cmp	r4, r3
100038be:	d100      	bne.n	100038c2 <_etoa.part.0+0x7da>
100038c0:	e08a      	b.n	100039d8 <_etoa.part.0+0x8f0>
100038c2:	2c09      	cmp	r4, #9
100038c4:	d1f7      	bne.n	100038b6 <_etoa.part.0+0x7ce>
100038c6:	2200      	movs	r2, #0
100038c8:	4b6a      	ldr	r3, [pc, #424]	; (10003a74 <_etoa.part.0+0x98c>)
100038ca:	920e      	str	r2, [sp, #56]	; 0x38
100038cc:	930f      	str	r3, [sp, #60]	; 0x3c
100038ce:	e583      	b.n	100033d8 <_etoa.part.0+0x2f0>
100038d0:	2300      	movs	r3, #0
100038d2:	932a      	str	r3, [sp, #168]	; 0xa8
100038d4:	e505      	b.n	100032e2 <_etoa.part.0+0x1fa>
100038d6:	2200      	movs	r2, #0
100038d8:	9808      	ldr	r0, [sp, #32]
100038da:	9909      	ldr	r1, [sp, #36]	; 0x24
100038dc:	4b66      	ldr	r3, [pc, #408]	; (10003a78 <_etoa.part.0+0x990>)
100038de:	f001 f91d 	bl	10004b1c <__wrap___aeabi_dcmpgt>
100038e2:	2800      	cmp	r0, #0
100038e4:	d000      	beq.n	100038e8 <_etoa.part.0+0x800>
100038e6:	e5c0      	b.n	1000346a <_etoa.part.0+0x382>
100038e8:	2301      	movs	r3, #1
100038ea:	46a4      	mov	ip, r4
100038ec:	4023      	ands	r3, r4
100038ee:	449c      	add	ip, r3
100038f0:	4663      	mov	r3, ip
100038f2:	9311      	str	r3, [sp, #68]	; 0x44
100038f4:	e5b9      	b.n	1000346a <_etoa.part.0+0x382>
100038f6:	9b11      	ldr	r3, [sp, #68]	; 0x44
100038f8:	2600      	movs	r6, #0
100038fa:	3301      	adds	r3, #1
100038fc:	9311      	str	r3, [sp, #68]	; 0x44
100038fe:	e59e      	b.n	1000343e <_etoa.part.0+0x356>
10003900:	2520      	movs	r5, #32
10003902:	9b10      	ldr	r3, [sp, #64]	; 0x40
10003904:	2b00      	cmp	r3, #0
10003906:	d100      	bne.n	1000390a <_etoa.part.0+0x822>
10003908:	e090      	b.n	10003a2c <_etoa.part.0+0x944>
1000390a:	9b15      	ldr	r3, [sp, #84]	; 0x54
1000390c:	2b00      	cmp	r3, #0
1000390e:	d103      	bne.n	10003918 <_etoa.part.0+0x830>
10003910:	9a2c      	ldr	r2, [sp, #176]	; 0xb0
10003912:	330c      	adds	r3, #12
10003914:	4213      	tst	r3, r2
10003916:	d002      	beq.n	1000391e <_etoa.part.0+0x836>
10003918:	9b10      	ldr	r3, [sp, #64]	; 0x40
1000391a:	3b01      	subs	r3, #1
1000391c:	9310      	str	r3, [sp, #64]	; 0x40
1000391e:	9b10      	ldr	r3, [sp, #64]	; 0x40
10003920:	429d      	cmp	r5, r3
10003922:	d300      	bcc.n	10003926 <_etoa.part.0+0x83e>
10003924:	e082      	b.n	10003a2c <_etoa.part.0+0x944>
10003926:	2230      	movs	r2, #48	; 0x30
10003928:	0019      	movs	r1, r3
1000392a:	2d20      	cmp	r5, #32
1000392c:	d006      	beq.n	1000393c <_etoa.part.0+0x854>
1000392e:	1c6b      	adds	r3, r5, #1
10003930:	557a      	strb	r2, [r7, r5]
10003932:	428b      	cmp	r3, r1
10003934:	d079      	beq.n	10003a2a <_etoa.part.0+0x942>
10003936:	001d      	movs	r5, r3
10003938:	2b20      	cmp	r3, #32
1000393a:	d1f8      	bne.n	1000392e <_etoa.part.0+0x846>
1000393c:	2320      	movs	r3, #32
1000393e:	9c0a      	ldr	r4, [sp, #40]	; 0x28
10003940:	4698      	mov	r8, r3
10003942:	e763      	b.n	1000380c <_etoa.part.0+0x724>
10003944:	4643      	mov	r3, r8
10003946:	9a08      	ldr	r2, [sp, #32]
10003948:	2000      	movs	r0, #0
1000394a:	2100      	movs	r1, #0
1000394c:	f001 f87b 	bl	10004a46 <__wrap___aeabi_dsub>
10003950:	2301      	movs	r3, #1
10003952:	9008      	str	r0, [sp, #32]
10003954:	4688      	mov	r8, r1
10003956:	9315      	str	r3, [sp, #84]	; 0x54
10003958:	e532      	b.n	100033c0 <_etoa.part.0+0x2d8>
1000395a:	9a0a      	ldr	r2, [sp, #40]	; 0x28
1000395c:	9b2c      	ldr	r3, [sp, #176]	; 0xb0
1000395e:	0014      	movs	r4, r2
10003960:	079b      	lsls	r3, r3, #30
10003962:	d111      	bne.n	10003988 <_etoa.part.0+0x8a0>
10003964:	9b10      	ldr	r3, [sp, #64]	; 0x40
10003966:	2b03      	cmp	r3, #3
10003968:	d90e      	bls.n	10003988 <_etoa.part.0+0x8a0>
1000396a:	469c      	mov	ip, r3
1000396c:	464e      	mov	r6, r9
1000396e:	465f      	mov	r7, fp
10003970:	1ed5      	subs	r5, r2, #3
10003972:	4465      	add	r5, ip
10003974:	1c54      	adds	r4, r2, #1
10003976:	4653      	mov	r3, sl
10003978:	0039      	movs	r1, r7
1000397a:	2020      	movs	r0, #32
1000397c:	47b0      	blx	r6
1000397e:	0022      	movs	r2, r4
10003980:	42ac      	cmp	r4, r5
10003982:	d1f7      	bne.n	10003974 <_etoa.part.0+0x88c>
10003984:	46b1      	mov	r9, r6
10003986:	46bb      	mov	fp, r7
10003988:	0022      	movs	r2, r4
1000398a:	46a0      	mov	r8, r4
1000398c:	2503      	movs	r5, #3
1000398e:	464c      	mov	r4, r9
10003990:	4f3a      	ldr	r7, [pc, #232]	; (10003a7c <_etoa.part.0+0x994>)
10003992:	3d01      	subs	r5, #1
10003994:	1c56      	adds	r6, r2, #1
10003996:	5d78      	ldrb	r0, [r7, r5]
10003998:	4653      	mov	r3, sl
1000399a:	4659      	mov	r1, fp
1000399c:	47a0      	blx	r4
1000399e:	0032      	movs	r2, r6
100039a0:	2d00      	cmp	r5, #0
100039a2:	d1f6      	bne.n	10003992 <_etoa.part.0+0x8aa>
100039a4:	46a1      	mov	r9, r4
100039a6:	4644      	mov	r4, r8
100039a8:	9b14      	ldr	r3, [sp, #80]	; 0x50
100039aa:	1ce2      	adds	r2, r4, #3
100039ac:	2b00      	cmp	r3, #0
100039ae:	d100      	bne.n	100039b2 <_etoa.part.0+0x8ca>
100039b0:	e63e      	b.n	10003630 <_etoa.part.0+0x548>
100039b2:	9b0a      	ldr	r3, [sp, #40]	; 0x28
100039b4:	9e10      	ldr	r6, [sp, #64]	; 0x40
100039b6:	1ad3      	subs	r3, r2, r3
100039b8:	429e      	cmp	r6, r3
100039ba:	d800      	bhi.n	100039be <_etoa.part.0+0x8d6>
100039bc:	e638      	b.n	10003630 <_etoa.part.0+0x548>
100039be:	464f      	mov	r7, r9
100039c0:	465d      	mov	r5, fp
100039c2:	4653      	mov	r3, sl
100039c4:	0029      	movs	r1, r5
100039c6:	2020      	movs	r0, #32
100039c8:	1c54      	adds	r4, r2, #1
100039ca:	47b8      	blx	r7
100039cc:	9b0a      	ldr	r3, [sp, #40]	; 0x28
100039ce:	0022      	movs	r2, r4
100039d0:	1ae3      	subs	r3, r4, r3
100039d2:	429e      	cmp	r6, r3
100039d4:	d8f5      	bhi.n	100039c2 <_etoa.part.0+0x8da>
100039d6:	e600      	b.n	100035da <_etoa.part.0+0x4f2>
100039d8:	4b29      	ldr	r3, [pc, #164]	; (10003a80 <_etoa.part.0+0x998>)
100039da:	00e2      	lsls	r2, r4, #3
100039dc:	189b      	adds	r3, r3, r2
100039de:	681a      	ldr	r2, [r3, #0]
100039e0:	685b      	ldr	r3, [r3, #4]
100039e2:	2520      	movs	r5, #32
100039e4:	920e      	str	r2, [sp, #56]	; 0x38
100039e6:	930f      	str	r3, [sp, #60]	; 0x3c
100039e8:	e4f6      	b.n	100033d8 <_etoa.part.0+0x2f0>
100039ea:	9a2c      	ldr	r2, [sp, #176]	; 0xb0
100039ec:	0752      	lsls	r2, r2, #29
100039ee:	d525      	bpl.n	10003a3c <_etoa.part.0+0x954>
100039f0:	1c6a      	adds	r2, r5, #1
100039f2:	4690      	mov	r8, r2
100039f4:	222b      	movs	r2, #43	; 0x2b
100039f6:	557a      	strb	r2, [r7, r5]
100039f8:	e6ee      	b.n	100037d8 <_etoa.part.0+0x6f0>
100039fa:	4643      	mov	r3, r8
100039fc:	46a8      	mov	r8, r5
100039fe:	003d      	movs	r5, r7
10003a00:	001f      	movs	r7, r3
10003a02:	2d20      	cmp	r5, #32
10003a04:	d100      	bne.n	10003a08 <_etoa.part.0+0x920>
10003a06:	e6df      	b.n	100037c8 <_etoa.part.0+0x6e0>
10003a08:	4643      	mov	r3, r8
10003a0a:	2230      	movs	r2, #48	; 0x30
10003a0c:	1959      	adds	r1, r3, r5
10003a0e:	2b00      	cmp	r3, #0
10003a10:	d023      	beq.n	10003a5a <_etoa.part.0+0x972>
10003a12:	1c6b      	adds	r3, r5, #1
10003a14:	557a      	strb	r2, [r7, r5]
10003a16:	2b20      	cmp	r3, #32
10003a18:	d100      	bne.n	10003a1c <_etoa.part.0+0x934>
10003a1a:	e6d5      	b.n	100037c8 <_etoa.part.0+0x6e0>
10003a1c:	001d      	movs	r5, r3
10003a1e:	428b      	cmp	r3, r1
10003a20:	d1f7      	bne.n	10003a12 <_etoa.part.0+0x92a>
10003a22:	222e      	movs	r2, #46	; 0x2e
10003a24:	1c5d      	adds	r5, r3, #1
10003a26:	54fa      	strb	r2, [r7, r3]
10003a28:	e51f      	b.n	1000346a <_etoa.part.0+0x382>
10003a2a:	9d10      	ldr	r5, [sp, #64]	; 0x40
10003a2c:	2301      	movs	r3, #1
10003a2e:	2d20      	cmp	r5, #32
10003a30:	d000      	beq.n	10003a34 <_etoa.part.0+0x94c>
10003a32:	e580      	b.n	10003536 <_etoa.part.0+0x44e>
10003a34:	331f      	adds	r3, #31
10003a36:	4698      	mov	r8, r3
10003a38:	9c0a      	ldr	r4, [sp, #40]	; 0x28
10003a3a:	e6e7      	b.n	1000380c <_etoa.part.0+0x724>
10003a3c:	9a2c      	ldr	r2, [sp, #176]	; 0xb0
10003a3e:	46a8      	mov	r8, r5
10003a40:	0712      	lsls	r2, r2, #28
10003a42:	d400      	bmi.n	10003a46 <_etoa.part.0+0x95e>
10003a44:	e6c8      	b.n	100037d8 <_etoa.part.0+0x6f0>
10003a46:	2201      	movs	r2, #1
10003a48:	4694      	mov	ip, r2
10003a4a:	321f      	adds	r2, #31
10003a4c:	44e0      	add	r8, ip
10003a4e:	557a      	strb	r2, [r7, r5]
10003a50:	e6c2      	b.n	100037d8 <_etoa.part.0+0x6f0>
10003a52:	0025      	movs	r5, r4
10003a54:	e564      	b.n	10003520 <_etoa.part.0+0x438>
10003a56:	0025      	movs	r5, r4
10003a58:	e7d3      	b.n	10003a02 <_etoa.part.0+0x91a>
10003a5a:	002b      	movs	r3, r5
10003a5c:	e7e1      	b.n	10003a22 <_etoa.part.0+0x93a>
10003a5e:	00da      	lsls	r2, r3, #3
10003a60:	4b07      	ldr	r3, [pc, #28]	; (10003a80 <_etoa.part.0+0x998>)
10003a62:	2500      	movs	r5, #0
10003a64:	189b      	adds	r3, r3, r2
10003a66:	685c      	ldr	r4, [r3, #4]
10003a68:	681b      	ldr	r3, [r3, #0]
10003a6a:	af16      	add	r7, sp, #88	; 0x58
10003a6c:	930e      	str	r3, [sp, #56]	; 0x38
10003a6e:	940f      	str	r4, [sp, #60]	; 0x3c
10003a70:	9c2a      	ldr	r4, [sp, #168]	; 0xa8
10003a72:	e4b1      	b.n	100033d8 <_etoa.part.0+0x2f0>
10003a74:	41cdcd65 	.word	0x41cdcd65
10003a78:	3fe00000 	.word	0x3fe00000
10003a7c:	1000937c 	.word	0x1000937c
10003a80:	10009388 	.word	0x10009388

10003a84 <_vsnprintf>:
10003a84:	b5f0      	push	{r4, r5, r6, r7, lr}
10003a86:	46de      	mov	lr, fp
10003a88:	4657      	mov	r7, sl
10003a8a:	4645      	mov	r5, r8
10003a8c:	464e      	mov	r6, r9
10003a8e:	b5e0      	push	{r5, r6, r7, lr}
10003a90:	b09f      	sub	sp, #124	; 0x7c
10003a92:	001d      	movs	r5, r3
10003a94:	9b28      	ldr	r3, [sp, #160]	; 0xa0
10003a96:	9208      	str	r2, [sp, #32]
10003a98:	9309      	str	r3, [sp, #36]	; 0x24
10003a9a:	4ab5      	ldr	r2, [pc, #724]	; (10003d70 <_vsnprintf+0x2ec>)
10003a9c:	4bb5      	ldr	r3, [pc, #724]	; (10003d74 <_vsnprintf+0x2f0>)
10003a9e:	4683      	mov	fp, r0
10003aa0:	468a      	mov	sl, r1
10003aa2:	601a      	str	r2, [r3, #0]
10003aa4:	2900      	cmp	r1, #0
10003aa6:	d066      	beq.n	10003b76 <_vsnprintf+0xf2>
10003aa8:	4bb3      	ldr	r3, [pc, #716]	; (10003d78 <_vsnprintf+0x2f4>)
10003aaa:	2700      	movs	r7, #0
10003aac:	4698      	mov	r8, r3
10003aae:	7828      	ldrb	r0, [r5, #0]
10003ab0:	2800      	cmp	r0, #0
10003ab2:	d00b      	beq.n	10003acc <_vsnprintf+0x48>
10003ab4:	3501      	adds	r5, #1
10003ab6:	2825      	cmp	r0, #37	; 0x25
10003ab8:	d018      	beq.n	10003aec <_vsnprintf+0x68>
10003aba:	003a      	movs	r2, r7
10003abc:	9b08      	ldr	r3, [sp, #32]
10003abe:	4651      	mov	r1, sl
10003ac0:	47d8      	blx	fp
10003ac2:	7828      	ldrb	r0, [r5, #0]
10003ac4:	1c7c      	adds	r4, r7, #1
10003ac6:	0027      	movs	r7, r4
10003ac8:	2800      	cmp	r0, #0
10003aca:	d1f3      	bne.n	10003ab4 <_vsnprintf+0x30>
10003acc:	9b08      	ldr	r3, [sp, #32]
10003ace:	003a      	movs	r2, r7
10003ad0:	429f      	cmp	r7, r3
10003ad2:	d300      	bcc.n	10003ad6 <_vsnprintf+0x52>
10003ad4:	1e5a      	subs	r2, r3, #1
10003ad6:	4651      	mov	r1, sl
10003ad8:	2000      	movs	r0, #0
10003ada:	47d8      	blx	fp
10003adc:	0038      	movs	r0, r7
10003ade:	b01f      	add	sp, #124	; 0x7c
10003ae0:	bc3c      	pop	{r2, r3, r4, r5}
10003ae2:	4690      	mov	r8, r2
10003ae4:	4699      	mov	r9, r3
10003ae6:	46a2      	mov	sl, r4
10003ae8:	46ab      	mov	fp, r5
10003aea:	bdf0      	pop	{r4, r5, r6, r7, pc}
10003aec:	2310      	movs	r3, #16
10003aee:	7828      	ldrb	r0, [r5, #0]
10003af0:	4699      	mov	r9, r3
10003af2:	3b0c      	subs	r3, #12
10003af4:	469c      	mov	ip, r3
10003af6:	0003      	movs	r3, r0
10003af8:	3b20      	subs	r3, #32
10003afa:	1c6a      	adds	r2, r5, #1
10003afc:	b2db      	uxtb	r3, r3
10003afe:	2400      	movs	r4, #0
10003b00:	0011      	movs	r1, r2
10003b02:	2b10      	cmp	r3, #16
10003b04:	d80e      	bhi.n	10003b24 <_vsnprintf+0xa0>
10003b06:	4646      	mov	r6, r8
10003b08:	009b      	lsls	r3, r3, #2
10003b0a:	58f3      	ldr	r3, [r6, r3]
10003b0c:	469f      	mov	pc, r3
10003b0e:	2301      	movs	r3, #1
10003b10:	0015      	movs	r5, r2
10003b12:	431c      	orrs	r4, r3
10003b14:	7828      	ldrb	r0, [r5, #0]
10003b16:	1c6a      	adds	r2, r5, #1
10003b18:	0003      	movs	r3, r0
10003b1a:	3b20      	subs	r3, #32
10003b1c:	b2db      	uxtb	r3, r3
10003b1e:	0011      	movs	r1, r2
10003b20:	2b10      	cmp	r3, #16
10003b22:	d9f0      	bls.n	10003b06 <_vsnprintf+0x82>
10003b24:	0003      	movs	r3, r0
10003b26:	3b30      	subs	r3, #48	; 0x30
10003b28:	2b09      	cmp	r3, #9
10003b2a:	d800      	bhi.n	10003b2e <_vsnprintf+0xaa>
10003b2c:	e18f      	b.n	10003e4e <_vsnprintf+0x3ca>
10003b2e:	2300      	movs	r3, #0
10003b30:	4699      	mov	r9, r3
10003b32:	282a      	cmp	r0, #42	; 0x2a
10003b34:	d100      	bne.n	10003b38 <_vsnprintf+0xb4>
10003b36:	e1b3      	b.n	10003ea0 <_vsnprintf+0x41c>
10003b38:	2300      	movs	r3, #0
10003b3a:	930c      	str	r3, [sp, #48]	; 0x30
10003b3c:	282e      	cmp	r0, #46	; 0x2e
10003b3e:	d100      	bne.n	10003b42 <_vsnprintf+0xbe>
10003b40:	e1a0      	b.n	10003e84 <_vsnprintf+0x400>
10003b42:	0003      	movs	r3, r0
10003b44:	3b68      	subs	r3, #104	; 0x68
10003b46:	b2db      	uxtb	r3, r3
10003b48:	2b12      	cmp	r3, #18
10003b4a:	d900      	bls.n	10003b4e <_vsnprintf+0xca>
10003b4c:	e213      	b.n	10003f76 <_vsnprintf+0x4f2>
10003b4e:	4a8b      	ldr	r2, [pc, #556]	; (10003d7c <_vsnprintf+0x2f8>)
10003b50:	009b      	lsls	r3, r3, #2
10003b52:	58d3      	ldr	r3, [r2, r3]
10003b54:	469f      	mov	pc, r3
10003b56:	4663      	mov	r3, ip
10003b58:	0015      	movs	r5, r2
10003b5a:	431c      	orrs	r4, r3
10003b5c:	e7da      	b.n	10003b14 <_vsnprintf+0x90>
10003b5e:	2302      	movs	r3, #2
10003b60:	0015      	movs	r5, r2
10003b62:	431c      	orrs	r4, r3
10003b64:	e7d6      	b.n	10003b14 <_vsnprintf+0x90>
10003b66:	464b      	mov	r3, r9
10003b68:	0015      	movs	r5, r2
10003b6a:	431c      	orrs	r4, r3
10003b6c:	e7d2      	b.n	10003b14 <_vsnprintf+0x90>
10003b6e:	2308      	movs	r3, #8
10003b70:	0015      	movs	r5, r2
10003b72:	431c      	orrs	r4, r3
10003b74:	e7ce      	b.n	10003b14 <_vsnprintf+0x90>
10003b76:	4b82      	ldr	r3, [pc, #520]	; (10003d80 <_vsnprintf+0x2fc>)
10003b78:	469b      	mov	fp, r3
10003b7a:	e795      	b.n	10003aa8 <_vsnprintf+0x24>
10003b7c:	2380      	movs	r3, #128	; 0x80
10003b7e:	005b      	lsls	r3, r3, #1
10003b80:	7868      	ldrb	r0, [r5, #1]
10003b82:	431c      	orrs	r4, r3
10003b84:	1c4d      	adds	r5, r1, #1
10003b86:	0003      	movs	r3, r0
10003b88:	3b25      	subs	r3, #37	; 0x25
10003b8a:	b2db      	uxtb	r3, r3
10003b8c:	2b53      	cmp	r3, #83	; 0x53
10003b8e:	d894      	bhi.n	10003aba <_vsnprintf+0x36>
10003b90:	4a7c      	ldr	r2, [pc, #496]	; (10003d84 <_vsnprintf+0x300>)
10003b92:	009b      	lsls	r3, r3, #2
10003b94:	58d3      	ldr	r3, [r2, r3]
10003b96:	469f      	mov	pc, r3
10003b98:	7868      	ldrb	r0, [r5, #1]
10003b9a:	286c      	cmp	r0, #108	; 0x6c
10003b9c:	d100      	bne.n	10003ba0 <_vsnprintf+0x11c>
10003b9e:	e290      	b.n	100040c2 <_vsnprintf+0x63e>
10003ba0:	2380      	movs	r3, #128	; 0x80
10003ba2:	005b      	lsls	r3, r3, #1
10003ba4:	431c      	orrs	r4, r3
10003ba6:	1c4d      	adds	r5, r1, #1
10003ba8:	e7ed      	b.n	10003b86 <_vsnprintf+0x102>
10003baa:	2380      	movs	r3, #128	; 0x80
10003bac:	009b      	lsls	r3, r3, #2
10003bae:	7868      	ldrb	r0, [r5, #1]
10003bb0:	431c      	orrs	r4, r3
10003bb2:	1c4d      	adds	r5, r1, #1
10003bb4:	e7e7      	b.n	10003b86 <_vsnprintf+0x102>
10003bb6:	7868      	ldrb	r0, [r5, #1]
10003bb8:	2868      	cmp	r0, #104	; 0x68
10003bba:	d100      	bne.n	10003bbe <_vsnprintf+0x13a>
10003bbc:	e27c      	b.n	100040b8 <_vsnprintf+0x634>
10003bbe:	2380      	movs	r3, #128	; 0x80
10003bc0:	1c4d      	adds	r5, r1, #1
10003bc2:	431c      	orrs	r4, r3
10003bc4:	e7df      	b.n	10003b86 <_vsnprintf+0x102>
10003bc6:	2846      	cmp	r0, #70	; 0x46
10003bc8:	d100      	bne.n	10003bcc <_vsnprintf+0x148>
10003bca:	e204      	b.n	10003fd6 <_vsnprintf+0x552>
10003bcc:	2207      	movs	r2, #7
10003bce:	9b09      	ldr	r3, [sp, #36]	; 0x24
10003bd0:	9404      	str	r4, [sp, #16]
10003bd2:	3307      	adds	r3, #7
10003bd4:	4393      	bics	r3, r2
10003bd6:	3201      	adds	r2, #1
10003bd8:	4694      	mov	ip, r2
10003bda:	449c      	add	ip, r3
10003bdc:	4662      	mov	r2, ip
10003bde:	9209      	str	r2, [sp, #36]	; 0x24
10003be0:	464a      	mov	r2, r9
10003be2:	9203      	str	r2, [sp, #12]
10003be4:	9a0c      	ldr	r2, [sp, #48]	; 0x30
10003be6:	9202      	str	r2, [sp, #8]
10003be8:	685c      	ldr	r4, [r3, #4]
10003bea:	681b      	ldr	r3, [r3, #0]
10003bec:	9300      	str	r3, [sp, #0]
10003bee:	9401      	str	r4, [sp, #4]
10003bf0:	003a      	movs	r2, r7
10003bf2:	9b08      	ldr	r3, [sp, #32]
10003bf4:	4651      	mov	r1, sl
10003bf6:	4658      	mov	r0, fp
10003bf8:	f7fe fefa 	bl	100029f0 <_ftoa>
10003bfc:	0007      	movs	r7, r0
10003bfe:	e756      	b.n	10003aae <_vsnprintf+0x2a>
10003c00:	003a      	movs	r2, r7
10003c02:	1c7c      	adds	r4, r7, #1
10003c04:	9b08      	ldr	r3, [sp, #32]
10003c06:	4651      	mov	r1, sl
10003c08:	2025      	movs	r0, #37	; 0x25
10003c0a:	47d8      	blx	fp
10003c0c:	0027      	movs	r7, r4
10003c0e:	e74e      	b.n	10003aae <_vsnprintf+0x2a>
10003c10:	9b09      	ldr	r3, [sp, #36]	; 0x24
10003c12:	1d1a      	adds	r2, r3, #4
10003c14:	681b      	ldr	r3, [r3, #0]
10003c16:	9210      	str	r2, [sp, #64]	; 0x40
10003c18:	9309      	str	r3, [sp, #36]	; 0x24
10003c1a:	7818      	ldrb	r0, [r3, #0]
10003c1c:	9b0c      	ldr	r3, [sp, #48]	; 0x30
10003c1e:	2b00      	cmp	r3, #0
10003c20:	d000      	beq.n	10003c24 <_vsnprintf+0x1a0>
10003c22:	e1b6      	b.n	10003f92 <_vsnprintf+0x50e>
10003c24:	2202      	movs	r2, #2
10003c26:	4252      	negs	r2, r2
10003c28:	2800      	cmp	r0, #0
10003c2a:	d101      	bne.n	10003c30 <_vsnprintf+0x1ac>
10003c2c:	f000 fc23 	bl	10004476 <_vsnprintf+0x9f2>
10003c30:	9b09      	ldr	r3, [sp, #36]	; 0x24
10003c32:	4684      	mov	ip, r0
10003c34:	001e      	movs	r6, r3
10003c36:	0010      	movs	r0, r2
10003c38:	2101      	movs	r1, #1
10003c3a:	001a      	movs	r2, r3
10003c3c:	e004      	b.n	10003c48 <_vsnprintf+0x1c4>
10003c3e:	1b8b      	subs	r3, r1, r6
10003c40:	18d3      	adds	r3, r2, r3
10003c42:	181b      	adds	r3, r3, r0
10003c44:	2b00      	cmp	r3, #0
10003c46:	d003      	beq.n	10003c50 <_vsnprintf+0x1cc>
10003c48:	3601      	adds	r6, #1
10003c4a:	7833      	ldrb	r3, [r6, #0]
10003c4c:	2b00      	cmp	r3, #0
10003c4e:	d1f6      	bne.n	10003c3e <_vsnprintf+0x1ba>
10003c50:	4660      	mov	r0, ip
10003c52:	9b09      	ldr	r3, [sp, #36]	; 0x24
10003c54:	1af6      	subs	r6, r6, r3
10003c56:	2380      	movs	r3, #128	; 0x80
10003c58:	00db      	lsls	r3, r3, #3
10003c5a:	4023      	ands	r3, r4
10003c5c:	930a      	str	r3, [sp, #40]	; 0x28
10003c5e:	d003      	beq.n	10003c68 <_vsnprintf+0x1e4>
10003c60:	9b0c      	ldr	r3, [sp, #48]	; 0x30
10003c62:	429e      	cmp	r6, r3
10003c64:	d900      	bls.n	10003c68 <_vsnprintf+0x1e4>
10003c66:	001e      	movs	r6, r3
10003c68:	2302      	movs	r3, #2
10003c6a:	4023      	ands	r3, r4
10003c6c:	930d      	str	r3, [sp, #52]	; 0x34
10003c6e:	d100      	bne.n	10003c72 <_vsnprintf+0x1ee>
10003c70:	e253      	b.n	1000411a <_vsnprintf+0x696>
10003c72:	2800      	cmp	r0, #0
10003c74:	d100      	bne.n	10003c78 <_vsnprintf+0x1f4>
10003c76:	e236      	b.n	100040e6 <_vsnprintf+0x662>
10003c78:	9b0a      	ldr	r3, [sp, #40]	; 0x28
10003c7a:	2b00      	cmp	r3, #0
10003c7c:	d000      	beq.n	10003c80 <_vsnprintf+0x1fc>
10003c7e:	e388      	b.n	10004392 <_vsnprintf+0x90e>
10003c80:	9b09      	ldr	r3, [sp, #36]	; 0x24
10003c82:	003a      	movs	r2, r7
10003c84:	1bdc      	subs	r4, r3, r7
10003c86:	0023      	movs	r3, r4
10003c88:	465c      	mov	r4, fp
10003c8a:	46ab      	mov	fp, r5
10003c8c:	4655      	mov	r5, sl
10003c8e:	46b2      	mov	sl, r6
10003c90:	001e      	movs	r6, r3
10003c92:	1c57      	adds	r7, r2, #1
10003c94:	9b08      	ldr	r3, [sp, #32]
10003c96:	0029      	movs	r1, r5
10003c98:	47a0      	blx	r4
10003c9a:	5df0      	ldrb	r0, [r6, r7]
10003c9c:	003a      	movs	r2, r7
10003c9e:	2800      	cmp	r0, #0
10003ca0:	d1f7      	bne.n	10003c92 <_vsnprintf+0x20e>
10003ca2:	4656      	mov	r6, sl
10003ca4:	46aa      	mov	sl, r5
10003ca6:	465d      	mov	r5, fp
10003ca8:	46a3      	mov	fp, r4
10003caa:	9b0d      	ldr	r3, [sp, #52]	; 0x34
10003cac:	2b00      	cmp	r3, #0
10003cae:	d000      	beq.n	10003cb2 <_vsnprintf+0x22e>
10003cb0:	e219      	b.n	100040e6 <_vsnprintf+0x662>
10003cb2:	9b10      	ldr	r3, [sp, #64]	; 0x40
10003cb4:	9309      	str	r3, [sp, #36]	; 0x24
10003cb6:	e6fa      	b.n	10003aae <_vsnprintf+0x2a>
10003cb8:	9b09      	ldr	r3, [sp, #36]	; 0x24
10003cba:	1d1a      	adds	r2, r3, #4
10003cbc:	681b      	ldr	r3, [r3, #0]
10003cbe:	9209      	str	r2, [sp, #36]	; 0x24
10003cc0:	2b00      	cmp	r3, #0
10003cc2:	d100      	bne.n	10003cc6 <_vsnprintf+0x242>
10003cc4:	e159      	b.n	10003f7a <_vsnprintf+0x4f6>
10003cc6:	2221      	movs	r2, #33	; 0x21
10003cc8:	4314      	orrs	r4, r2
10003cca:	46a4      	mov	ip, r4
10003ccc:	210f      	movs	r1, #15
10003cce:	2200      	movs	r2, #0
10003cd0:	ac16      	add	r4, sp, #88	; 0x58
10003cd2:	4689      	mov	r9, r1
10003cd4:	e002      	b.n	10003cdc <_vsnprintf+0x258>
10003cd6:	2920      	cmp	r1, #32
10003cd8:	d00c      	beq.n	10003cf4 <_vsnprintf+0x270>
10003cda:	000a      	movs	r2, r1
10003cdc:	4649      	mov	r1, r9
10003cde:	4019      	ands	r1, r3
10003ce0:	b2ce      	uxtb	r6, r1
10003ce2:	0030      	movs	r0, r6
10003ce4:	3037      	adds	r0, #55	; 0x37
10003ce6:	2909      	cmp	r1, #9
10003ce8:	d800      	bhi.n	10003cec <_vsnprintf+0x268>
10003cea:	3807      	subs	r0, #7
10003cec:	1c51      	adds	r1, r2, #1
10003cee:	54a0      	strb	r0, [r4, r2]
10003cf0:	091b      	lsrs	r3, r3, #4
10003cf2:	d1f0      	bne.n	10003cd6 <_vsnprintf+0x252>
10003cf4:	4663      	mov	r3, ip
10003cf6:	9306      	str	r3, [sp, #24]
10003cf8:	2308      	movs	r3, #8
10003cfa:	9305      	str	r3, [sp, #20]
10003cfc:	9b0c      	ldr	r3, [sp, #48]	; 0x30
10003cfe:	9101      	str	r1, [sp, #4]
10003d00:	9304      	str	r3, [sp, #16]
10003d02:	2310      	movs	r3, #16
10003d04:	9303      	str	r3, [sp, #12]
10003d06:	2300      	movs	r3, #0
10003d08:	9302      	str	r3, [sp, #8]
10003d0a:	003a      	movs	r2, r7
10003d0c:	9400      	str	r4, [sp, #0]
10003d0e:	9b08      	ldr	r3, [sp, #32]
10003d10:	4651      	mov	r1, sl
10003d12:	4658      	mov	r0, fp
10003d14:	f7fe fd34 	bl	10002780 <_ntoa_format>
10003d18:	0007      	movs	r7, r0
10003d1a:	e6c8      	b.n	10003aae <_vsnprintf+0x2a>
10003d1c:	9b09      	ldr	r3, [sp, #36]	; 0x24
10003d1e:	3304      	adds	r3, #4
10003d20:	930c      	str	r3, [sp, #48]	; 0x30
10003d22:	1c7b      	adds	r3, r7, #1
10003d24:	930a      	str	r3, [sp, #40]	; 0x28
10003d26:	001e      	movs	r6, r3
10003d28:	07a3      	lsls	r3, r4, #30
10003d2a:	d400      	bmi.n	10003d2e <_vsnprintf+0x2aa>
10003d2c:	e136      	b.n	10003f9c <_vsnprintf+0x518>
10003d2e:	9b09      	ldr	r3, [sp, #36]	; 0x24
10003d30:	003a      	movs	r2, r7
10003d32:	7818      	ldrb	r0, [r3, #0]
10003d34:	4651      	mov	r1, sl
10003d36:	9b08      	ldr	r3, [sp, #32]
10003d38:	47d8      	blx	fp
10003d3a:	464b      	mov	r3, r9
10003d3c:	444f      	add	r7, r9
10003d3e:	2b01      	cmp	r3, #1
10003d40:	d800      	bhi.n	10003d44 <_vsnprintf+0x2c0>
10003d42:	e35b      	b.n	100043fc <_vsnprintf+0x978>
10003d44:	002b      	movs	r3, r5
10003d46:	0032      	movs	r2, r6
10003d48:	4655      	mov	r5, sl
10003d4a:	465e      	mov	r6, fp
10003d4c:	469a      	mov	sl, r3
10003d4e:	1c54      	adds	r4, r2, #1
10003d50:	9b08      	ldr	r3, [sp, #32]
10003d52:	0029      	movs	r1, r5
10003d54:	2020      	movs	r0, #32
10003d56:	47b0      	blx	r6
10003d58:	0022      	movs	r2, r4
10003d5a:	42bc      	cmp	r4, r7
10003d5c:	d1f7      	bne.n	10003d4e <_vsnprintf+0x2ca>
10003d5e:	4653      	mov	r3, sl
10003d60:	46b3      	mov	fp, r6
10003d62:	46aa      	mov	sl, r5
10003d64:	0027      	movs	r7, r4
10003d66:	001d      	movs	r5, r3
10003d68:	9b0c      	ldr	r3, [sp, #48]	; 0x30
10003d6a:	9309      	str	r3, [sp, #36]	; 0x24
10003d6c:	e69f      	b.n	10003aae <_vsnprintf+0x2a>
10003d6e:	46c0      	nop			; (mov r8, r8)
10003d70:	10003a85 	.word	0x10003a85
10003d74:	200016e8 	.word	0x200016e8
10003d78:	10009190 	.word	0x10009190
10003d7c:	100091d4 	.word	0x100091d4
10003d80:	10002761 	.word	0x10002761
10003d84:	10009220 	.word	0x10009220
10003d88:	2878      	cmp	r0, #120	; 0x78
10003d8a:	d100      	bne.n	10003d8e <_vsnprintf+0x30a>
10003d8c:	e126      	b.n	10003fdc <_vsnprintf+0x558>
10003d8e:	2858      	cmp	r0, #88	; 0x58
10003d90:	d100      	bne.n	10003d94 <_vsnprintf+0x310>
10003d92:	e19c      	b.n	100040ce <_vsnprintf+0x64a>
10003d94:	286f      	cmp	r0, #111	; 0x6f
10003d96:	d100      	bne.n	10003d9a <_vsnprintf+0x316>
10003d98:	e252      	b.n	10004240 <_vsnprintf+0x7bc>
10003d9a:	2862      	cmp	r0, #98	; 0x62
10003d9c:	d100      	bne.n	10003da0 <_vsnprintf+0x31c>
10003d9e:	e32a      	b.n	100043f6 <_vsnprintf+0x972>
10003da0:	2310      	movs	r3, #16
10003da2:	0022      	movs	r2, r4
10003da4:	439a      	bics	r2, r3
10003da6:	920a      	str	r2, [sp, #40]	; 0x28
10003da8:	2869      	cmp	r0, #105	; 0x69
10003daa:	d000      	beq.n	10003dae <_vsnprintf+0x32a>
10003dac:	e377      	b.n	1000449e <_vsnprintf+0xa1a>
10003dae:	0563      	lsls	r3, r4, #21
10003db0:	d500      	bpl.n	10003db4 <_vsnprintf+0x330>
10003db2:	e242      	b.n	1000423a <_vsnprintf+0x7b6>
10003db4:	2380      	movs	r3, #128	; 0x80
10003db6:	009b      	lsls	r3, r3, #2
10003db8:	401c      	ands	r4, r3
10003dba:	46a4      	mov	ip, r4
10003dbc:	3bf7      	subs	r3, #247	; 0xf7
10003dbe:	3bff      	subs	r3, #255	; 0xff
10003dc0:	930d      	str	r3, [sp, #52]	; 0x34
10003dc2:	4663      	mov	r3, ip
10003dc4:	2b00      	cmp	r3, #0
10003dc6:	d000      	beq.n	10003dca <_vsnprintf+0x346>
10003dc8:	e1dc      	b.n	10004184 <_vsnprintf+0x700>
10003dca:	2680      	movs	r6, #128	; 0x80
10003dcc:	9b0a      	ldr	r3, [sp, #40]	; 0x28
10003dce:	0076      	lsls	r6, r6, #1
10003dd0:	401e      	ands	r6, r3
10003dd2:	9b09      	ldr	r3, [sp, #36]	; 0x24
10003dd4:	3304      	adds	r3, #4
10003dd6:	9310      	str	r3, [sp, #64]	; 0x40
10003dd8:	2e00      	cmp	r6, #0
10003dda:	d000      	beq.n	10003dde <_vsnprintf+0x35a>
10003ddc:	e2aa      	b.n	10004334 <_vsnprintf+0x8b0>
10003dde:	9b0a      	ldr	r3, [sp, #40]	; 0x28
10003de0:	065b      	lsls	r3, r3, #25
10003de2:	d400      	bmi.n	10003de6 <_vsnprintf+0x362>
10003de4:	e29e      	b.n	10004324 <_vsnprintf+0x8a0>
10003de6:	9b09      	ldr	r3, [sp, #36]	; 0x24
10003de8:	781b      	ldrb	r3, [r3, #0]
10003dea:	17da      	asrs	r2, r3, #31
10003dec:	1898      	adds	r0, r3, r2
10003dee:	4050      	eors	r0, r2
10003df0:	0fda      	lsrs	r2, r3, #31
10003df2:	9211      	str	r2, [sp, #68]	; 0x44
10003df4:	2b00      	cmp	r3, #0
10003df6:	d108      	bne.n	10003e0a <_vsnprintf+0x386>
10003df8:	9a0a      	ldr	r2, [sp, #40]	; 0x28
10003dfa:	3310      	adds	r3, #16
10003dfc:	0011      	movs	r1, r2
10003dfe:	4399      	bics	r1, r3
10003e00:	000b      	movs	r3, r1
10003e02:	910a      	str	r1, [sp, #40]	; 0x28
10003e04:	0552      	lsls	r2, r2, #21
10003e06:	d500      	bpl.n	10003e0a <_vsnprintf+0x386>
10003e08:	e32f      	b.n	1000446a <_vsnprintf+0x9e6>
10003e0a:	9a0a      	ldr	r2, [sp, #40]	; 0x28
10003e0c:	2361      	movs	r3, #97	; 0x61
10003e0e:	0692      	lsls	r2, r2, #26
10003e10:	d500      	bpl.n	10003e14 <_vsnprintf+0x390>
10003e12:	2341      	movs	r3, #65	; 0x41
10003e14:	b2db      	uxtb	r3, r3
10003e16:	3b0a      	subs	r3, #10
10003e18:	9714      	str	r7, [sp, #80]	; 0x50
10003e1a:	ac16      	add	r4, sp, #88	; 0x58
10003e1c:	9309      	str	r3, [sp, #36]	; 0x24
10003e1e:	9f0d      	ldr	r7, [sp, #52]	; 0x34
10003e20:	e00a      	b.n	10003e38 <_vsnprintf+0x3b4>
10003e22:	3330      	adds	r3, #48	; 0x30
10003e24:	b2db      	uxtb	r3, r3
10003e26:	1c72      	adds	r2, r6, #1
10003e28:	55a3      	strb	r3, [r4, r6]
10003e2a:	2800      	cmp	r0, #0
10003e2c:	d100      	bne.n	10003e30 <_vsnprintf+0x3ac>
10003e2e:	e194      	b.n	1000415a <_vsnprintf+0x6d6>
10003e30:	2a20      	cmp	r2, #32
10003e32:	d100      	bne.n	10003e36 <_vsnprintf+0x3b2>
10003e34:	e191      	b.n	1000415a <_vsnprintf+0x6d6>
10003e36:	0016      	movs	r6, r2
10003e38:	0039      	movs	r1, r7
10003e3a:	f000 fbbf 	bl	100045bc <__wrap___aeabi_uidiv>
10003e3e:	b2cb      	uxtb	r3, r1
10003e40:	2909      	cmp	r1, #9
10003e42:	d9ee      	bls.n	10003e22 <_vsnprintf+0x39e>
10003e44:	9a09      	ldr	r2, [sp, #36]	; 0x24
10003e46:	4694      	mov	ip, r2
10003e48:	4463      	add	r3, ip
10003e4a:	b2db      	uxtb	r3, r3
10003e4c:	e7eb      	b.n	10003e26 <_vsnprintf+0x3a2>
10003e4e:	2300      	movs	r3, #0
10003e50:	4699      	mov	r9, r3
10003e52:	0003      	movs	r3, r0
10003e54:	4649      	mov	r1, r9
10003e56:	e001      	b.n	10003e5c <_vsnprintf+0x3d8>
10003e58:	0015      	movs	r5, r2
10003e5a:	3201      	adds	r2, #1
10003e5c:	0088      	lsls	r0, r1, #2
10003e5e:	1840      	adds	r0, r0, r1
10003e60:	0040      	lsls	r0, r0, #1
10003e62:	18c0      	adds	r0, r0, r3
10003e64:	7813      	ldrb	r3, [r2, #0]
10003e66:	0001      	movs	r1, r0
10003e68:	0018      	movs	r0, r3
10003e6a:	3830      	subs	r0, #48	; 0x30
10003e6c:	3930      	subs	r1, #48	; 0x30
10003e6e:	2809      	cmp	r0, #9
10003e70:	d9f2      	bls.n	10003e58 <_vsnprintf+0x3d4>
10003e72:	0018      	movs	r0, r3
10003e74:	2300      	movs	r3, #0
10003e76:	4689      	mov	r9, r1
10003e78:	930c      	str	r3, [sp, #48]	; 0x30
10003e7a:	1ca9      	adds	r1, r5, #2
10003e7c:	0015      	movs	r5, r2
10003e7e:	282e      	cmp	r0, #46	; 0x2e
10003e80:	d000      	beq.n	10003e84 <_vsnprintf+0x400>
10003e82:	e65e      	b.n	10003b42 <_vsnprintf+0xbe>
10003e84:	2380      	movs	r3, #128	; 0x80
10003e86:	7868      	ldrb	r0, [r5, #1]
10003e88:	00db      	lsls	r3, r3, #3
10003e8a:	431c      	orrs	r4, r3
10003e8c:	0003      	movs	r3, r0
10003e8e:	3b30      	subs	r3, #48	; 0x30
10003e90:	2b09      	cmp	r3, #9
10003e92:	d915      	bls.n	10003ec0 <_vsnprintf+0x43c>
10003e94:	282a      	cmp	r0, #42	; 0x2a
10003e96:	d100      	bne.n	10003e9a <_vsnprintf+0x416>
10003e98:	e102      	b.n	100040a0 <_vsnprintf+0x61c>
10003e9a:	000d      	movs	r5, r1
10003e9c:	3101      	adds	r1, #1
10003e9e:	e650      	b.n	10003b42 <_vsnprintf+0xbe>
10003ea0:	9909      	ldr	r1, [sp, #36]	; 0x24
10003ea2:	1d0b      	adds	r3, r1, #4
10003ea4:	6809      	ldr	r1, [r1, #0]
10003ea6:	4689      	mov	r9, r1
10003ea8:	2900      	cmp	r1, #0
10003eaa:	da04      	bge.n	10003eb6 <_vsnprintf+0x432>
10003eac:	2102      	movs	r1, #2
10003eae:	430c      	orrs	r4, r1
10003eb0:	4649      	mov	r1, r9
10003eb2:	4249      	negs	r1, r1
10003eb4:	4689      	mov	r9, r1
10003eb6:	7868      	ldrb	r0, [r5, #1]
10003eb8:	1ca9      	adds	r1, r5, #2
10003eba:	9309      	str	r3, [sp, #36]	; 0x24
10003ebc:	0015      	movs	r5, r2
10003ebe:	e63b      	b.n	10003b38 <_vsnprintf+0xb4>
10003ec0:	0003      	movs	r3, r0
10003ec2:	2200      	movs	r2, #0
10003ec4:	e000      	b.n	10003ec8 <_vsnprintf+0x444>
10003ec6:	0029      	movs	r1, r5
10003ec8:	0090      	lsls	r0, r2, #2
10003eca:	1880      	adds	r0, r0, r2
10003ecc:	0040      	lsls	r0, r0, #1
10003ece:	18c0      	adds	r0, r0, r3
10003ed0:	784b      	ldrb	r3, [r1, #1]
10003ed2:	0002      	movs	r2, r0
10003ed4:	0018      	movs	r0, r3
10003ed6:	3830      	subs	r0, #48	; 0x30
10003ed8:	1c4d      	adds	r5, r1, #1
10003eda:	3a30      	subs	r2, #48	; 0x30
10003edc:	2809      	cmp	r0, #9
10003ede:	d9f2      	bls.n	10003ec6 <_vsnprintf+0x442>
10003ee0:	0018      	movs	r0, r3
10003ee2:	920c      	str	r2, [sp, #48]	; 0x30
10003ee4:	3102      	adds	r1, #2
10003ee6:	e62c      	b.n	10003b42 <_vsnprintf+0xbe>
10003ee8:	2320      	movs	r3, #32
10003eea:	0002      	movs	r2, r0
10003eec:	439a      	bics	r2, r3
10003eee:	2a47      	cmp	r2, #71	; 0x47
10003ef0:	d104      	bne.n	10003efc <_vsnprintf+0x478>
10003ef2:	2380      	movs	r3, #128	; 0x80
10003ef4:	011b      	lsls	r3, r3, #4
10003ef6:	431c      	orrs	r4, r3
10003ef8:	2302      	movs	r3, #2
10003efa:	4398      	bics	r0, r3
10003efc:	2845      	cmp	r0, #69	; 0x45
10003efe:	d101      	bne.n	10003f04 <_vsnprintf+0x480>
10003f00:	2320      	movs	r3, #32
10003f02:	431c      	orrs	r4, r3
10003f04:	2207      	movs	r2, #7
10003f06:	9b09      	ldr	r3, [sp, #36]	; 0x24
10003f08:	3307      	adds	r3, #7
10003f0a:	4393      	bics	r3, r2
10003f0c:	3201      	adds	r2, #1
10003f0e:	4694      	mov	ip, r2
10003f10:	449c      	add	ip, r3
10003f12:	4662      	mov	r2, ip
10003f14:	9209      	str	r2, [sp, #36]	; 0x24
10003f16:	681a      	ldr	r2, [r3, #0]
10003f18:	685b      	ldr	r3, [r3, #4]
10003f1a:	0010      	movs	r0, r2
10003f1c:	0019      	movs	r1, r3
10003f1e:	900a      	str	r0, [sp, #40]	; 0x28
10003f20:	910b      	str	r1, [sp, #44]	; 0x2c
10003f22:	f000 fe00 	bl	10004b26 <__wrap___aeabi_dcmpun>
10003f26:	2800      	cmp	r0, #0
10003f28:	d000      	beq.n	10003f2c <_vsnprintf+0x4a8>
10003f2a:	e0b1      	b.n	10004090 <_vsnprintf+0x60c>
10003f2c:	980a      	ldr	r0, [sp, #40]	; 0x28
10003f2e:	990b      	ldr	r1, [sp, #44]	; 0x2c
10003f30:	2201      	movs	r2, #1
10003f32:	4bd2      	ldr	r3, [pc, #840]	; (1000427c <_vsnprintf+0x7f8>)
10003f34:	4252      	negs	r2, r2
10003f36:	f000 fdf1 	bl	10004b1c <__wrap___aeabi_dcmpgt>
10003f3a:	2800      	cmp	r0, #0
10003f3c:	d000      	beq.n	10003f40 <_vsnprintf+0x4bc>
10003f3e:	e0a7      	b.n	10004090 <_vsnprintf+0x60c>
10003f40:	980a      	ldr	r0, [sp, #40]	; 0x28
10003f42:	990b      	ldr	r1, [sp, #44]	; 0x2c
10003f44:	2201      	movs	r2, #1
10003f46:	4bce      	ldr	r3, [pc, #824]	; (10004280 <_vsnprintf+0x7fc>)
10003f48:	4252      	negs	r2, r2
10003f4a:	f000 fdd9 	bl	10004b00 <__wrap___aeabi_dcmplt>
10003f4e:	2800      	cmp	r0, #0
10003f50:	d000      	beq.n	10003f54 <_vsnprintf+0x4d0>
10003f52:	e09d      	b.n	10004090 <_vsnprintf+0x60c>
10003f54:	464b      	mov	r3, r9
10003f56:	9303      	str	r3, [sp, #12]
10003f58:	9b0c      	ldr	r3, [sp, #48]	; 0x30
10003f5a:	9404      	str	r4, [sp, #16]
10003f5c:	9302      	str	r3, [sp, #8]
10003f5e:	003a      	movs	r2, r7
10003f60:	9b0a      	ldr	r3, [sp, #40]	; 0x28
10003f62:	9c0b      	ldr	r4, [sp, #44]	; 0x2c
10003f64:	4651      	mov	r1, sl
10003f66:	9300      	str	r3, [sp, #0]
10003f68:	9401      	str	r4, [sp, #4]
10003f6a:	4658      	mov	r0, fp
10003f6c:	9b08      	ldr	r3, [sp, #32]
10003f6e:	f7ff f8bb 	bl	100030e8 <_etoa.part.0>
10003f72:	0007      	movs	r7, r0
10003f74:	e59b      	b.n	10003aae <_vsnprintf+0x2a>
10003f76:	000d      	movs	r5, r1
10003f78:	e605      	b.n	10003b86 <_vsnprintf+0x102>
10003f7a:	2210      	movs	r2, #16
10003f7c:	0021      	movs	r1, r4
10003f7e:	4391      	bics	r1, r2
10003f80:	3211      	adds	r2, #17
10003f82:	4311      	orrs	r1, r2
10003f84:	468c      	mov	ip, r1
10003f86:	0562      	lsls	r2, r4, #21
10003f88:	d400      	bmi.n	10003f8c <_vsnprintf+0x508>
10003f8a:	e69f      	b.n	10003ccc <_vsnprintf+0x248>
10003f8c:	2100      	movs	r1, #0
10003f8e:	ac16      	add	r4, sp, #88	; 0x58
10003f90:	e6b0      	b.n	10003cf4 <_vsnprintf+0x270>
10003f92:	2800      	cmp	r0, #0
10003f94:	d100      	bne.n	10003f98 <_vsnprintf+0x514>
10003f96:	e26e      	b.n	10004476 <_vsnprintf+0x9f2>
10003f98:	1e5a      	subs	r2, r3, #1
10003f9a:	e649      	b.n	10003c30 <_vsnprintf+0x1ac>
10003f9c:	464b      	mov	r3, r9
10003f9e:	2b01      	cmp	r3, #1
10003fa0:	d800      	bhi.n	10003fa4 <_vsnprintf+0x520>
10003fa2:	e271      	b.n	10004488 <_vsnprintf+0xa04>
10003fa4:	1e7c      	subs	r4, r7, #1
10003fa6:	444c      	add	r4, r9
10003fa8:	46a9      	mov	r9, r5
10003faa:	0025      	movs	r5, r4
10003fac:	0034      	movs	r4, r6
10003fae:	e001      	b.n	10003fb4 <_vsnprintf+0x530>
10003fb0:	0027      	movs	r7, r4
10003fb2:	3401      	adds	r4, #1
10003fb4:	9b08      	ldr	r3, [sp, #32]
10003fb6:	003a      	movs	r2, r7
10003fb8:	4651      	mov	r1, sl
10003fba:	2020      	movs	r0, #32
10003fbc:	0026      	movs	r6, r4
10003fbe:	47d8      	blx	fp
10003fc0:	42ac      	cmp	r4, r5
10003fc2:	d1f5      	bne.n	10003fb0 <_vsnprintf+0x52c>
10003fc4:	464d      	mov	r5, r9
10003fc6:	3702      	adds	r7, #2
10003fc8:	9b09      	ldr	r3, [sp, #36]	; 0x24
10003fca:	0032      	movs	r2, r6
10003fcc:	7818      	ldrb	r0, [r3, #0]
10003fce:	4651      	mov	r1, sl
10003fd0:	9b08      	ldr	r3, [sp, #32]
10003fd2:	47d8      	blx	fp
10003fd4:	e6c8      	b.n	10003d68 <_vsnprintf+0x2e4>
10003fd6:	2320      	movs	r3, #32
10003fd8:	431c      	orrs	r4, r3
10003fda:	e5f7      	b.n	10003bcc <_vsnprintf+0x148>
10003fdc:	2380      	movs	r3, #128	; 0x80
10003fde:	2210      	movs	r2, #16
10003fe0:	00db      	lsls	r3, r3, #3
10003fe2:	4023      	ands	r3, r4
10003fe4:	920d      	str	r2, [sp, #52]	; 0x34
10003fe6:	220c      	movs	r2, #12
10003fe8:	4394      	bics	r4, r2
10003fea:	940a      	str	r4, [sp, #40]	; 0x28
10003fec:	0022      	movs	r2, r4
10003fee:	2b00      	cmp	r3, #0
10003ff0:	d002      	beq.n	10003ff8 <_vsnprintf+0x574>
10003ff2:	2301      	movs	r3, #1
10003ff4:	439a      	bics	r2, r3
10003ff6:	920a      	str	r2, [sp, #40]	; 0x28
10003ff8:	2380      	movs	r3, #128	; 0x80
10003ffa:	9a0a      	ldr	r2, [sp, #40]	; 0x28
10003ffc:	009b      	lsls	r3, r3, #2
10003ffe:	401a      	ands	r2, r3
10004000:	4694      	mov	ip, r2
10004002:	2869      	cmp	r0, #105	; 0x69
10004004:	d100      	bne.n	10004008 <_vsnprintf+0x584>
10004006:	e6dc      	b.n	10003dc2 <_vsnprintf+0x33e>
10004008:	2864      	cmp	r0, #100	; 0x64
1000400a:	d100      	bne.n	1000400e <_vsnprintf+0x58a>
1000400c:	e6d9      	b.n	10003dc2 <_vsnprintf+0x33e>
1000400e:	4663      	mov	r3, ip
10004010:	2b00      	cmp	r3, #0
10004012:	d000      	beq.n	10004016 <_vsnprintf+0x592>
10004014:	e149      	b.n	100042aa <_vsnprintf+0x826>
10004016:	2680      	movs	r6, #128	; 0x80
10004018:	9b0a      	ldr	r3, [sp, #40]	; 0x28
1000401a:	0076      	lsls	r6, r6, #1
1000401c:	401e      	ands	r6, r3
1000401e:	9b09      	ldr	r3, [sp, #36]	; 0x24
10004020:	3304      	adds	r3, #4
10004022:	9310      	str	r3, [sp, #64]	; 0x40
10004024:	2e00      	cmp	r6, #0
10004026:	d000      	beq.n	1000402a <_vsnprintf+0x5a6>
10004028:	e1f0      	b.n	1000440c <_vsnprintf+0x988>
1000402a:	9b0a      	ldr	r3, [sp, #40]	; 0x28
1000402c:	065b      	lsls	r3, r3, #25
1000402e:	d400      	bmi.n	10004032 <_vsnprintf+0x5ae>
10004030:	e1e6      	b.n	10004400 <_vsnprintf+0x97c>
10004032:	9b09      	ldr	r3, [sp, #36]	; 0x24
10004034:	7818      	ldrb	r0, [r3, #0]
10004036:	2800      	cmp	r0, #0
10004038:	d108      	bne.n	1000404c <_vsnprintf+0x5c8>
1000403a:	9a0a      	ldr	r2, [sp, #40]	; 0x28
1000403c:	2310      	movs	r3, #16
1000403e:	0011      	movs	r1, r2
10004040:	4399      	bics	r1, r3
10004042:	000b      	movs	r3, r1
10004044:	910a      	str	r1, [sp, #40]	; 0x28
10004046:	0552      	lsls	r2, r2, #21
10004048:	d500      	bpl.n	1000404c <_vsnprintf+0x5c8>
1000404a:	e211      	b.n	10004470 <_vsnprintf+0x9ec>
1000404c:	9a0a      	ldr	r2, [sp, #40]	; 0x28
1000404e:	2361      	movs	r3, #97	; 0x61
10004050:	0692      	lsls	r2, r2, #26
10004052:	d500      	bpl.n	10004056 <_vsnprintf+0x5d2>
10004054:	2341      	movs	r3, #65	; 0x41
10004056:	b2db      	uxtb	r3, r3
10004058:	3b0a      	subs	r3, #10
1000405a:	9511      	str	r5, [sp, #68]	; 0x44
1000405c:	ac16      	add	r4, sp, #88	; 0x58
1000405e:	9309      	str	r3, [sp, #36]	; 0x24
10004060:	9d0d      	ldr	r5, [sp, #52]	; 0x34
10004062:	e00a      	b.n	1000407a <_vsnprintf+0x5f6>
10004064:	3330      	adds	r3, #48	; 0x30
10004066:	b2db      	uxtb	r3, r3
10004068:	1c72      	adds	r2, r6, #1
1000406a:	55a3      	strb	r3, [r4, r6]
1000406c:	2800      	cmp	r0, #0
1000406e:	d100      	bne.n	10004072 <_vsnprintf+0x5ee>
10004070:	e0f8      	b.n	10004264 <_vsnprintf+0x7e0>
10004072:	2a20      	cmp	r2, #32
10004074:	d100      	bne.n	10004078 <_vsnprintf+0x5f4>
10004076:	e0f5      	b.n	10004264 <_vsnprintf+0x7e0>
10004078:	0016      	movs	r6, r2
1000407a:	0029      	movs	r1, r5
1000407c:	f000 fa9e 	bl	100045bc <__wrap___aeabi_uidiv>
10004080:	b2cb      	uxtb	r3, r1
10004082:	2909      	cmp	r1, #9
10004084:	d9ee      	bls.n	10004064 <_vsnprintf+0x5e0>
10004086:	9a09      	ldr	r2, [sp, #36]	; 0x24
10004088:	4694      	mov	ip, r2
1000408a:	4463      	add	r3, ip
1000408c:	b2db      	uxtb	r3, r3
1000408e:	e7eb      	b.n	10004068 <_vsnprintf+0x5e4>
10004090:	464b      	mov	r3, r9
10004092:	9303      	str	r3, [sp, #12]
10004094:	9b0c      	ldr	r3, [sp, #48]	; 0x30
10004096:	9404      	str	r4, [sp, #16]
10004098:	9302      	str	r3, [sp, #8]
1000409a:	9b0a      	ldr	r3, [sp, #40]	; 0x28
1000409c:	9c0b      	ldr	r4, [sp, #44]	; 0x2c
1000409e:	e5a5      	b.n	10003bec <_vsnprintf+0x168>
100040a0:	9e09      	ldr	r6, [sp, #36]	; 0x24
100040a2:	78a8      	ldrb	r0, [r5, #2]
100040a4:	6832      	ldr	r2, [r6, #0]
100040a6:	1ce9      	adds	r1, r5, #3
100040a8:	43d3      	mvns	r3, r2
100040aa:	17db      	asrs	r3, r3, #31
100040ac:	401a      	ands	r2, r3
100040ae:	1d33      	adds	r3, r6, #4
100040b0:	920c      	str	r2, [sp, #48]	; 0x30
100040b2:	9309      	str	r3, [sp, #36]	; 0x24
100040b4:	3502      	adds	r5, #2
100040b6:	e544      	b.n	10003b42 <_vsnprintf+0xbe>
100040b8:	23c0      	movs	r3, #192	; 0xc0
100040ba:	78a8      	ldrb	r0, [r5, #2]
100040bc:	431c      	orrs	r4, r3
100040be:	3503      	adds	r5, #3
100040c0:	e561      	b.n	10003b86 <_vsnprintf+0x102>
100040c2:	23c0      	movs	r3, #192	; 0xc0
100040c4:	009b      	lsls	r3, r3, #2
100040c6:	78a8      	ldrb	r0, [r5, #2]
100040c8:	431c      	orrs	r4, r3
100040ca:	3503      	adds	r5, #3
100040cc:	e55b      	b.n	10003b86 <_vsnprintf+0x102>
100040ce:	230c      	movs	r3, #12
100040d0:	0022      	movs	r2, r4
100040d2:	439a      	bics	r2, r3
100040d4:	3314      	adds	r3, #20
100040d6:	431a      	orrs	r2, r3
100040d8:	920a      	str	r2, [sp, #40]	; 0x28
100040da:	0563      	lsls	r3, r4, #21
100040dc:	d400      	bmi.n	100040e0 <_vsnprintf+0x65c>
100040de:	e0a4      	b.n	1000422a <_vsnprintf+0x7a6>
100040e0:	2310      	movs	r3, #16
100040e2:	930d      	str	r3, [sp, #52]	; 0x34
100040e4:	e785      	b.n	10003ff2 <_vsnprintf+0x56e>
100040e6:	45b1      	cmp	r9, r6
100040e8:	d800      	bhi.n	100040ec <_vsnprintf+0x668>
100040ea:	e5e2      	b.n	10003cb2 <_vsnprintf+0x22e>
100040ec:	464b      	mov	r3, r9
100040ee:	19db      	adds	r3, r3, r7
100040f0:	1b9e      	subs	r6, r3, r6
100040f2:	9b08      	ldr	r3, [sp, #32]
100040f4:	003a      	movs	r2, r7
100040f6:	4699      	mov	r9, r3
100040f8:	002b      	movs	r3, r5
100040fa:	465c      	mov	r4, fp
100040fc:	4655      	mov	r5, sl
100040fe:	469a      	mov	sl, r3
10004100:	3701      	adds	r7, #1
10004102:	464b      	mov	r3, r9
10004104:	0029      	movs	r1, r5
10004106:	2020      	movs	r0, #32
10004108:	47a0      	blx	r4
1000410a:	003a      	movs	r2, r7
1000410c:	42b7      	cmp	r7, r6
1000410e:	d1f7      	bne.n	10004100 <_vsnprintf+0x67c>
10004110:	4653      	mov	r3, sl
10004112:	46a3      	mov	fp, r4
10004114:	46aa      	mov	sl, r5
10004116:	001d      	movs	r5, r3
10004118:	e5cb      	b.n	10003cb2 <_vsnprintf+0x22e>
1000411a:	1c73      	adds	r3, r6, #1
1000411c:	45b1      	cmp	r9, r6
1000411e:	d800      	bhi.n	10004122 <_vsnprintf+0x69e>
10004120:	e1b8      	b.n	10004494 <_vsnprintf+0xa10>
10004122:	464b      	mov	r3, r9
10004124:	19db      	adds	r3, r3, r7
10004126:	1b9e      	subs	r6, r3, r6
10004128:	9b08      	ldr	r3, [sp, #32]
1000412a:	465c      	mov	r4, fp
1000412c:	003a      	movs	r2, r7
1000412e:	46ab      	mov	fp, r5
10004130:	4655      	mov	r5, sl
10004132:	469a      	mov	sl, r3
10004134:	3701      	adds	r7, #1
10004136:	4653      	mov	r3, sl
10004138:	0029      	movs	r1, r5
1000413a:	2020      	movs	r0, #32
1000413c:	47a0      	blx	r4
1000413e:	003a      	movs	r2, r7
10004140:	42b7      	cmp	r7, r6
10004142:	d1f7      	bne.n	10004134 <_vsnprintf+0x6b0>
10004144:	464b      	mov	r3, r9
10004146:	46aa      	mov	sl, r5
10004148:	465d      	mov	r5, fp
1000414a:	46a3      	mov	fp, r4
1000414c:	1c5e      	adds	r6, r3, #1
1000414e:	9b09      	ldr	r3, [sp, #36]	; 0x24
10004150:	7818      	ldrb	r0, [r3, #0]
10004152:	2800      	cmp	r0, #0
10004154:	d000      	beq.n	10004158 <_vsnprintf+0x6d4>
10004156:	e58f      	b.n	10003c78 <_vsnprintf+0x1f4>
10004158:	e5ab      	b.n	10003cb2 <_vsnprintf+0x22e>
1000415a:	9f14      	ldr	r7, [sp, #80]	; 0x50
1000415c:	9b0a      	ldr	r3, [sp, #40]	; 0x28
1000415e:	9306      	str	r3, [sp, #24]
10004160:	464b      	mov	r3, r9
10004162:	9305      	str	r3, [sp, #20]
10004164:	9b0c      	ldr	r3, [sp, #48]	; 0x30
10004166:	9304      	str	r3, [sp, #16]
10004168:	9b0d      	ldr	r3, [sp, #52]	; 0x34
1000416a:	9303      	str	r3, [sp, #12]
1000416c:	9b11      	ldr	r3, [sp, #68]	; 0x44
1000416e:	9302      	str	r3, [sp, #8]
10004170:	9201      	str	r2, [sp, #4]
10004172:	9400      	str	r4, [sp, #0]
10004174:	003a      	movs	r2, r7
10004176:	9b08      	ldr	r3, [sp, #32]
10004178:	4651      	mov	r1, sl
1000417a:	4658      	mov	r0, fp
1000417c:	f7fe fb00 	bl	10002780 <_ntoa_format>
10004180:	0007      	movs	r7, r0
10004182:	e596      	b.n	10003cb2 <_vsnprintf+0x22e>
10004184:	2207      	movs	r2, #7
10004186:	9b09      	ldr	r3, [sp, #36]	; 0x24
10004188:	3307      	adds	r3, #7
1000418a:	4393      	bics	r3, r2
1000418c:	3201      	adds	r2, #1
1000418e:	4694      	mov	ip, r2
10004190:	449c      	add	ip, r3
10004192:	4662      	mov	r2, ip
10004194:	9209      	str	r2, [sp, #36]	; 0x24
10004196:	cb44      	ldmia	r3!, {r2, r6}
10004198:	17f3      	asrs	r3, r6, #31
1000419a:	9312      	str	r3, [sp, #72]	; 0x48
1000419c:	9313      	str	r3, [sp, #76]	; 0x4c
1000419e:	9812      	ldr	r0, [sp, #72]	; 0x48
100041a0:	9913      	ldr	r1, [sp, #76]	; 0x4c
100041a2:	0003      	movs	r3, r0
100041a4:	4053      	eors	r3, r2
100041a6:	930e      	str	r3, [sp, #56]	; 0x38
100041a8:	000b      	movs	r3, r1
100041aa:	4073      	eors	r3, r6
100041ac:	930f      	str	r3, [sp, #60]	; 0x3c
100041ae:	9b0e      	ldr	r3, [sp, #56]	; 0x38
100041b0:	9c0f      	ldr	r4, [sp, #60]	; 0x3c
100041b2:	1a1b      	subs	r3, r3, r0
100041b4:	418c      	sbcs	r4, r1
100041b6:	930e      	str	r3, [sp, #56]	; 0x38
100041b8:	940f      	str	r4, [sp, #60]	; 0x3c
100041ba:	0ff3      	lsrs	r3, r6, #31
100041bc:	9315      	str	r3, [sp, #84]	; 0x54
100041be:	4332      	orrs	r2, r6
100041c0:	d107      	bne.n	100041d2 <_vsnprintf+0x74e>
100041c2:	9a0a      	ldr	r2, [sp, #40]	; 0x28
100041c4:	2310      	movs	r3, #16
100041c6:	0011      	movs	r1, r2
100041c8:	4399      	bics	r1, r3
100041ca:	910a      	str	r1, [sp, #40]	; 0x28
100041cc:	0552      	lsls	r2, r2, #21
100041ce:	d500      	bpl.n	100041d2 <_vsnprintf+0x74e>
100041d0:	e15d      	b.n	1000448e <_vsnprintf+0xa0a>
100041d2:	9a0a      	ldr	r2, [sp, #40]	; 0x28
100041d4:	2361      	movs	r3, #97	; 0x61
100041d6:	0692      	lsls	r2, r2, #26
100041d8:	d500      	bpl.n	100041dc <_vsnprintf+0x758>
100041da:	2341      	movs	r3, #65	; 0x41
100041dc:	b2db      	uxtb	r3, r3
100041de:	3b0a      	subs	r3, #10
100041e0:	9310      	str	r3, [sp, #64]	; 0x40
100041e2:	464b      	mov	r3, r9
100041e4:	ac16      	add	r4, sp, #88	; 0x58
100041e6:	9711      	str	r7, [sp, #68]	; 0x44
100041e8:	46a9      	mov	r9, r5
100041ea:	0027      	movs	r7, r4
100041ec:	9c0e      	ldr	r4, [sp, #56]	; 0x38
100041ee:	9d0f      	ldr	r5, [sp, #60]	; 0x3c
100041f0:	2600      	movs	r6, #0
100041f2:	9314      	str	r3, [sp, #80]	; 0x50
100041f4:	e00b      	b.n	1000420e <_vsnprintf+0x78a>
100041f6:	3230      	adds	r2, #48	; 0x30
100041f8:	b2d2      	uxtb	r2, r2
100041fa:	55ba      	strb	r2, [r7, r6]
100041fc:	0002      	movs	r2, r0
100041fe:	1c73      	adds	r3, r6, #1
10004200:	0004      	movs	r4, r0
10004202:	000d      	movs	r5, r1
10004204:	430a      	orrs	r2, r1
10004206:	d03d      	beq.n	10004284 <_vsnprintf+0x800>
10004208:	2b20      	cmp	r3, #32
1000420a:	d03b      	beq.n	10004284 <_vsnprintf+0x800>
1000420c:	001e      	movs	r6, r3
1000420e:	9a0d      	ldr	r2, [sp, #52]	; 0x34
10004210:	2300      	movs	r3, #0
10004212:	0020      	movs	r0, r4
10004214:	0029      	movs	r1, r5
10004216:	f000 fa17 	bl	10004648 <__wrap___aeabi_uldivmod>
1000421a:	b2d2      	uxtb	r2, r2
1000421c:	2a09      	cmp	r2, #9
1000421e:	d9ea      	bls.n	100041f6 <_vsnprintf+0x772>
10004220:	9b10      	ldr	r3, [sp, #64]	; 0x40
10004222:	469c      	mov	ip, r3
10004224:	4462      	add	r2, ip
10004226:	b2d2      	uxtb	r2, r2
10004228:	e7e7      	b.n	100041fa <_vsnprintf+0x776>
1000422a:	2380      	movs	r3, #128	; 0x80
1000422c:	009b      	lsls	r3, r3, #2
1000422e:	401c      	ands	r4, r3
10004230:	3bf1      	subs	r3, #241	; 0xf1
10004232:	3bff      	subs	r3, #255	; 0xff
10004234:	46a4      	mov	ip, r4
10004236:	930d      	str	r3, [sp, #52]	; 0x34
10004238:	e6e9      	b.n	1000400e <_vsnprintf+0x58a>
1000423a:	230a      	movs	r3, #10
1000423c:	930d      	str	r3, [sp, #52]	; 0x34
1000423e:	e6d8      	b.n	10003ff2 <_vsnprintf+0x56e>
10004240:	2308      	movs	r3, #8
10004242:	930d      	str	r3, [sp, #52]	; 0x34
10004244:	2380      	movs	r3, #128	; 0x80
10004246:	00db      	lsls	r3, r3, #3
10004248:	4023      	ands	r3, r4
1000424a:	2864      	cmp	r0, #100	; 0x64
1000424c:	d000      	beq.n	10004250 <_vsnprintf+0x7cc>
1000424e:	e6ca      	b.n	10003fe6 <_vsnprintf+0x562>
10004250:	0022      	movs	r2, r4
10004252:	940a      	str	r4, [sp, #40]	; 0x28
10004254:	2b00      	cmp	r3, #0
10004256:	d000      	beq.n	1000425a <_vsnprintf+0x7d6>
10004258:	e6cb      	b.n	10003ff2 <_vsnprintf+0x56e>
1000425a:	2380      	movs	r3, #128	; 0x80
1000425c:	009b      	lsls	r3, r3, #2
1000425e:	401a      	ands	r2, r3
10004260:	4694      	mov	ip, r2
10004262:	e5ae      	b.n	10003dc2 <_vsnprintf+0x33e>
10004264:	9d11      	ldr	r5, [sp, #68]	; 0x44
10004266:	9b0a      	ldr	r3, [sp, #40]	; 0x28
10004268:	9306      	str	r3, [sp, #24]
1000426a:	464b      	mov	r3, r9
1000426c:	9305      	str	r3, [sp, #20]
1000426e:	9b0c      	ldr	r3, [sp, #48]	; 0x30
10004270:	9304      	str	r3, [sp, #16]
10004272:	9b0d      	ldr	r3, [sp, #52]	; 0x34
10004274:	9303      	str	r3, [sp, #12]
10004276:	2300      	movs	r3, #0
10004278:	e779      	b.n	1000416e <_vsnprintf+0x6ea>
1000427a:	46c0      	nop			; (mov r8, r8)
1000427c:	7fefffff 	.word	0x7fefffff
10004280:	ffefffff 	.word	0xffefffff
10004284:	9a14      	ldr	r2, [sp, #80]	; 0x50
10004286:	940e      	str	r4, [sp, #56]	; 0x38
10004288:	950f      	str	r5, [sp, #60]	; 0x3c
1000428a:	464d      	mov	r5, r9
1000428c:	4691      	mov	r9, r2
1000428e:	003c      	movs	r4, r7
10004290:	9f11      	ldr	r7, [sp, #68]	; 0x44
10004292:	9a0a      	ldr	r2, [sp, #40]	; 0x28
10004294:	9301      	str	r3, [sp, #4]
10004296:	9206      	str	r2, [sp, #24]
10004298:	464a      	mov	r2, r9
1000429a:	9205      	str	r2, [sp, #20]
1000429c:	9a0c      	ldr	r2, [sp, #48]	; 0x30
1000429e:	9204      	str	r2, [sp, #16]
100042a0:	9a0d      	ldr	r2, [sp, #52]	; 0x34
100042a2:	9203      	str	r2, [sp, #12]
100042a4:	9a15      	ldr	r2, [sp, #84]	; 0x54
100042a6:	9202      	str	r2, [sp, #8]
100042a8:	e52f      	b.n	10003d0a <_vsnprintf+0x286>
100042aa:	2207      	movs	r2, #7
100042ac:	9b09      	ldr	r3, [sp, #36]	; 0x24
100042ae:	3307      	adds	r3, #7
100042b0:	4393      	bics	r3, r2
100042b2:	3201      	adds	r2, #1
100042b4:	4694      	mov	ip, r2
100042b6:	449c      	add	ip, r3
100042b8:	4662      	mov	r2, ip
100042ba:	cb03      	ldmia	r3!, {r0, r1}
100042bc:	0003      	movs	r3, r0
100042be:	9209      	str	r2, [sp, #36]	; 0x24
100042c0:	430b      	orrs	r3, r1
100042c2:	d108      	bne.n	100042d6 <_vsnprintf+0x852>
100042c4:	9a0a      	ldr	r2, [sp, #40]	; 0x28
100042c6:	3310      	adds	r3, #16
100042c8:	0014      	movs	r4, r2
100042ca:	439c      	bics	r4, r3
100042cc:	0023      	movs	r3, r4
100042ce:	940a      	str	r4, [sp, #40]	; 0x28
100042d0:	0552      	lsls	r2, r2, #21
100042d2:	d500      	bpl.n	100042d6 <_vsnprintf+0x852>
100042d4:	e0e0      	b.n	10004498 <_vsnprintf+0xa14>
100042d6:	9a0a      	ldr	r2, [sp, #40]	; 0x28
100042d8:	2361      	movs	r3, #97	; 0x61
100042da:	0692      	lsls	r2, r2, #26
100042dc:	d500      	bpl.n	100042e0 <_vsnprintf+0x85c>
100042de:	2341      	movs	r3, #65	; 0x41
100042e0:	b2db      	uxtb	r3, r3
100042e2:	3b0a      	subs	r3, #10
100042e4:	9514      	str	r5, [sp, #80]	; 0x50
100042e6:	2600      	movs	r6, #0
100042e8:	ac16      	add	r4, sp, #88	; 0x58
100042ea:	9310      	str	r3, [sp, #64]	; 0x40
100042ec:	9711      	str	r7, [sp, #68]	; 0x44
100042ee:	9d0d      	ldr	r5, [sp, #52]	; 0x34
100042f0:	e00a      	b.n	10004308 <_vsnprintf+0x884>
100042f2:	3230      	adds	r2, #48	; 0x30
100042f4:	b2d1      	uxtb	r1, r2
100042f6:	55a1      	strb	r1, [r4, r6]
100042f8:	0018      	movs	r0, r3
100042fa:	1c72      	adds	r2, r6, #1
100042fc:	0039      	movs	r1, r7
100042fe:	433b      	orrs	r3, r7
10004300:	d065      	beq.n	100043ce <_vsnprintf+0x94a>
10004302:	2a20      	cmp	r2, #32
10004304:	d063      	beq.n	100043ce <_vsnprintf+0x94a>
10004306:	0016      	movs	r6, r2
10004308:	002a      	movs	r2, r5
1000430a:	2300      	movs	r3, #0
1000430c:	f000 f99c 	bl	10004648 <__wrap___aeabi_uldivmod>
10004310:	b2d2      	uxtb	r2, r2
10004312:	0003      	movs	r3, r0
10004314:	000f      	movs	r7, r1
10004316:	2a09      	cmp	r2, #9
10004318:	d9eb      	bls.n	100042f2 <_vsnprintf+0x86e>
1000431a:	9910      	ldr	r1, [sp, #64]	; 0x40
1000431c:	468c      	mov	ip, r1
1000431e:	4462      	add	r2, ip
10004320:	b2d1      	uxtb	r1, r2
10004322:	e7e8      	b.n	100042f6 <_vsnprintf+0x872>
10004324:	9b0a      	ldr	r3, [sp, #40]	; 0x28
10004326:	061b      	lsls	r3, r3, #24
10004328:	d400      	bmi.n	1000432c <_vsnprintf+0x8a8>
1000432a:	e0a7      	b.n	1000447c <_vsnprintf+0x9f8>
1000432c:	9b09      	ldr	r3, [sp, #36]	; 0x24
1000432e:	2200      	movs	r2, #0
10004330:	5e9b      	ldrsh	r3, [r3, r2]
10004332:	e55a      	b.n	10003dea <_vsnprintf+0x366>
10004334:	9b09      	ldr	r3, [sp, #36]	; 0x24
10004336:	681b      	ldr	r3, [r3, #0]
10004338:	17da      	asrs	r2, r3, #31
1000433a:	1898      	adds	r0, r3, r2
1000433c:	4050      	eors	r0, r2
1000433e:	0fda      	lsrs	r2, r3, #31
10004340:	9211      	str	r2, [sp, #68]	; 0x44
10004342:	2b00      	cmp	r3, #0
10004344:	d108      	bne.n	10004358 <_vsnprintf+0x8d4>
10004346:	9a0a      	ldr	r2, [sp, #40]	; 0x28
10004348:	3310      	adds	r3, #16
1000434a:	0011      	movs	r1, r2
1000434c:	4399      	bics	r1, r3
1000434e:	000b      	movs	r3, r1
10004350:	910a      	str	r1, [sp, #40]	; 0x28
10004352:	0552      	lsls	r2, r2, #21
10004354:	d500      	bpl.n	10004358 <_vsnprintf+0x8d4>
10004356:	e088      	b.n	1000446a <_vsnprintf+0x9e6>
10004358:	9b0a      	ldr	r3, [sp, #40]	; 0x28
1000435a:	2661      	movs	r6, #97	; 0x61
1000435c:	069b      	lsls	r3, r3, #26
1000435e:	d500      	bpl.n	10004362 <_vsnprintf+0x8de>
10004360:	2641      	movs	r6, #65	; 0x41
10004362:	b2f6      	uxtb	r6, r6
10004364:	9709      	str	r7, [sp, #36]	; 0x24
10004366:	ac16      	add	r4, sp, #88	; 0x58
10004368:	3e0a      	subs	r6, #10
1000436a:	4667      	mov	r7, ip
1000436c:	e008      	b.n	10004380 <_vsnprintf+0x8fc>
1000436e:	3330      	adds	r3, #48	; 0x30
10004370:	b2db      	uxtb	r3, r3
10004372:	1c7a      	adds	r2, r7, #1
10004374:	55e3      	strb	r3, [r4, r7]
10004376:	2800      	cmp	r0, #0
10004378:	d071      	beq.n	1000445e <_vsnprintf+0x9da>
1000437a:	2a20      	cmp	r2, #32
1000437c:	d06f      	beq.n	1000445e <_vsnprintf+0x9da>
1000437e:	0017      	movs	r7, r2
10004380:	990d      	ldr	r1, [sp, #52]	; 0x34
10004382:	f000 f91b 	bl	100045bc <__wrap___aeabi_uidiv>
10004386:	b2cb      	uxtb	r3, r1
10004388:	2909      	cmp	r1, #9
1000438a:	d9f0      	bls.n	1000436e <_vsnprintf+0x8ea>
1000438c:	199b      	adds	r3, r3, r6
1000438e:	b2db      	uxtb	r3, r3
10004390:	e7ef      	b.n	10004372 <_vsnprintf+0x8ee>
10004392:	9b0c      	ldr	r3, [sp, #48]	; 0x30
10004394:	003a      	movs	r2, r7
10004396:	19dc      	adds	r4, r3, r7
10004398:	9b09      	ldr	r3, [sp, #36]	; 0x24
1000439a:	1bdb      	subs	r3, r3, r7
1000439c:	9309      	str	r3, [sp, #36]	; 0x24
1000439e:	002b      	movs	r3, r5
100043a0:	4655      	mov	r5, sl
100043a2:	46b2      	mov	sl, r6
100043a4:	465e      	mov	r6, fp
100043a6:	469b      	mov	fp, r3
100043a8:	e008      	b.n	100043bc <_vsnprintf+0x938>
100043aa:	9b08      	ldr	r3, [sp, #32]
100043ac:	0029      	movs	r1, r5
100043ae:	1c57      	adds	r7, r2, #1
100043b0:	47b0      	blx	r6
100043b2:	9b09      	ldr	r3, [sp, #36]	; 0x24
100043b4:	5dd8      	ldrb	r0, [r3, r7]
100043b6:	2800      	cmp	r0, #0
100043b8:	d017      	beq.n	100043ea <_vsnprintf+0x966>
100043ba:	003a      	movs	r2, r7
100043bc:	4294      	cmp	r4, r2
100043be:	d1f4      	bne.n	100043aa <_vsnprintf+0x926>
100043c0:	465b      	mov	r3, fp
100043c2:	0027      	movs	r7, r4
100043c4:	46b3      	mov	fp, r6
100043c6:	4656      	mov	r6, sl
100043c8:	46aa      	mov	sl, r5
100043ca:	001d      	movs	r5, r3
100043cc:	e46d      	b.n	10003caa <_vsnprintf+0x226>
100043ce:	9f11      	ldr	r7, [sp, #68]	; 0x44
100043d0:	9d14      	ldr	r5, [sp, #80]	; 0x50
100043d2:	9b0a      	ldr	r3, [sp, #40]	; 0x28
100043d4:	9306      	str	r3, [sp, #24]
100043d6:	464b      	mov	r3, r9
100043d8:	9305      	str	r3, [sp, #20]
100043da:	9b0c      	ldr	r3, [sp, #48]	; 0x30
100043dc:	9201      	str	r2, [sp, #4]
100043de:	9304      	str	r3, [sp, #16]
100043e0:	9b0d      	ldr	r3, [sp, #52]	; 0x34
100043e2:	9303      	str	r3, [sp, #12]
100043e4:	2300      	movs	r3, #0
100043e6:	9302      	str	r3, [sp, #8]
100043e8:	e48f      	b.n	10003d0a <_vsnprintf+0x286>
100043ea:	465b      	mov	r3, fp
100043ec:	46b3      	mov	fp, r6
100043ee:	4656      	mov	r6, sl
100043f0:	46aa      	mov	sl, r5
100043f2:	001d      	movs	r5, r3
100043f4:	e459      	b.n	10003caa <_vsnprintf+0x226>
100043f6:	2302      	movs	r3, #2
100043f8:	930d      	str	r3, [sp, #52]	; 0x34
100043fa:	e723      	b.n	10004244 <_vsnprintf+0x7c0>
100043fc:	9f0a      	ldr	r7, [sp, #40]	; 0x28
100043fe:	e4b3      	b.n	10003d68 <_vsnprintf+0x2e4>
10004400:	9b0a      	ldr	r3, [sp, #40]	; 0x28
10004402:	061b      	lsls	r3, r3, #24
10004404:	d53d      	bpl.n	10004482 <_vsnprintf+0x9fe>
10004406:	9b09      	ldr	r3, [sp, #36]	; 0x24
10004408:	8818      	ldrh	r0, [r3, #0]
1000440a:	e614      	b.n	10004036 <_vsnprintf+0x5b2>
1000440c:	9b09      	ldr	r3, [sp, #36]	; 0x24
1000440e:	6818      	ldr	r0, [r3, #0]
10004410:	2800      	cmp	r0, #0
10004412:	d107      	bne.n	10004424 <_vsnprintf+0x9a0>
10004414:	9a0a      	ldr	r2, [sp, #40]	; 0x28
10004416:	2310      	movs	r3, #16
10004418:	0011      	movs	r1, r2
1000441a:	4399      	bics	r1, r3
1000441c:	000b      	movs	r3, r1
1000441e:	910a      	str	r1, [sp, #40]	; 0x28
10004420:	0552      	lsls	r2, r2, #21
10004422:	d425      	bmi.n	10004470 <_vsnprintf+0x9ec>
10004424:	9b0a      	ldr	r3, [sp, #40]	; 0x28
10004426:	2661      	movs	r6, #97	; 0x61
10004428:	069b      	lsls	r3, r3, #26
1000442a:	d500      	bpl.n	1000442e <_vsnprintf+0x9aa>
1000442c:	2641      	movs	r6, #65	; 0x41
1000442e:	b2f6      	uxtb	r6, r6
10004430:	9709      	str	r7, [sp, #36]	; 0x24
10004432:	ac16      	add	r4, sp, #88	; 0x58
10004434:	3e0a      	subs	r6, #10
10004436:	4667      	mov	r7, ip
10004438:	e008      	b.n	1000444c <_vsnprintf+0x9c8>
1000443a:	3330      	adds	r3, #48	; 0x30
1000443c:	b2db      	uxtb	r3, r3
1000443e:	1c7a      	adds	r2, r7, #1
10004440:	55e3      	strb	r3, [r4, r7]
10004442:	2800      	cmp	r0, #0
10004444:	d00e      	beq.n	10004464 <_vsnprintf+0x9e0>
10004446:	2a20      	cmp	r2, #32
10004448:	d00c      	beq.n	10004464 <_vsnprintf+0x9e0>
1000444a:	0017      	movs	r7, r2
1000444c:	990d      	ldr	r1, [sp, #52]	; 0x34
1000444e:	f000 f8b5 	bl	100045bc <__wrap___aeabi_uidiv>
10004452:	b2cb      	uxtb	r3, r1
10004454:	2909      	cmp	r1, #9
10004456:	d9f0      	bls.n	1000443a <_vsnprintf+0x9b6>
10004458:	199b      	adds	r3, r3, r6
1000445a:	b2db      	uxtb	r3, r3
1000445c:	e7ef      	b.n	1000443e <_vsnprintf+0x9ba>
1000445e:	9f09      	ldr	r7, [sp, #36]	; 0x24
10004460:	9b0a      	ldr	r3, [sp, #40]	; 0x28
10004462:	e67c      	b.n	1000415e <_vsnprintf+0x6da>
10004464:	9f09      	ldr	r7, [sp, #36]	; 0x24
10004466:	9b0a      	ldr	r3, [sp, #40]	; 0x28
10004468:	e6fe      	b.n	10004268 <_vsnprintf+0x7e4>
1000446a:	2200      	movs	r2, #0
1000446c:	ac16      	add	r4, sp, #88	; 0x58
1000446e:	e676      	b.n	1000415e <_vsnprintf+0x6da>
10004470:	2200      	movs	r2, #0
10004472:	ac16      	add	r4, sp, #88	; 0x58
10004474:	e6f8      	b.n	10004268 <_vsnprintf+0x7e4>
10004476:	2600      	movs	r6, #0
10004478:	f7ff fbed 	bl	10003c56 <_vsnprintf+0x1d2>
1000447c:	9b09      	ldr	r3, [sp, #36]	; 0x24
1000447e:	681b      	ldr	r3, [r3, #0]
10004480:	e4b3      	b.n	10003dea <_vsnprintf+0x366>
10004482:	9b09      	ldr	r3, [sp, #36]	; 0x24
10004484:	6818      	ldr	r0, [r3, #0]
10004486:	e5d6      	b.n	10004036 <_vsnprintf+0x5b2>
10004488:	003e      	movs	r6, r7
1000448a:	9f0a      	ldr	r7, [sp, #40]	; 0x28
1000448c:	e59c      	b.n	10003fc8 <_vsnprintf+0x544>
1000448e:	2300      	movs	r3, #0
10004490:	ac16      	add	r4, sp, #88	; 0x58
10004492:	e6fe      	b.n	10004292 <_vsnprintf+0x80e>
10004494:	001e      	movs	r6, r3
10004496:	e65c      	b.n	10004152 <_vsnprintf+0x6ce>
10004498:	2200      	movs	r2, #0
1000449a:	ac16      	add	r4, sp, #88	; 0x58
1000449c:	e79a      	b.n	100043d4 <_vsnprintf+0x950>
1000449e:	3b06      	subs	r3, #6
100044a0:	0014      	movs	r4, r2
100044a2:	930d      	str	r3, [sp, #52]	; 0x34
100044a4:	e6ce      	b.n	10004244 <_vsnprintf+0x7c0>
100044a6:	46c0      	nop			; (mov r8, r8)

100044a8 <vfctprintf>:
100044a8:	b500      	push	{lr}
100044aa:	b085      	sub	sp, #20
100044ac:	9103      	str	r1, [sp, #12]
100044ae:	2101      	movs	r1, #1
100044b0:	9002      	str	r0, [sp, #8]
100044b2:	9300      	str	r3, [sp, #0]
100044b4:	4803      	ldr	r0, [pc, #12]	; (100044c4 <vfctprintf+0x1c>)
100044b6:	0013      	movs	r3, r2
100044b8:	424a      	negs	r2, r1
100044ba:	a902      	add	r1, sp, #8
100044bc:	f7ff fae2 	bl	10003a84 <_vsnprintf>
100044c0:	b005      	add	sp, #20
100044c2:	bd00      	pop	{pc}
100044c4:	10002765 	.word	0x10002765

100044c8 <weak_raw_vprintf>:
100044c8:	b510      	push	{r4, lr}
100044ca:	4a09      	ldr	r2, [pc, #36]	; (100044f0 <weak_raw_vprintf+0x28>)
100044cc:	b084      	sub	sp, #16
100044ce:	6814      	ldr	r4, [r2, #0]
100044d0:	2c00      	cmp	r4, #0
100044d2:	d009      	beq.n	100044e8 <weak_raw_vprintf+0x20>
100044d4:	2201      	movs	r2, #1
100044d6:	9100      	str	r1, [sp, #0]
100044d8:	0003      	movs	r3, r0
100044da:	4252      	negs	r2, r2
100044dc:	a903      	add	r1, sp, #12
100044de:	4805      	ldr	r0, [pc, #20]	; (100044f4 <weak_raw_vprintf+0x2c>)
100044e0:	47a0      	blx	r4
100044e2:	2001      	movs	r0, #1
100044e4:	b004      	add	sp, #16
100044e6:	bd10      	pop	{r4, pc}
100044e8:	f001 f868 	bl	100055bc <__wrap_puts>
100044ec:	2000      	movs	r0, #0
100044ee:	e7f9      	b.n	100044e4 <weak_raw_vprintf+0x1c>
100044f0:	200016e8 	.word	0x200016e8
100044f4:	10002775 	.word	0x10002775

100044f8 <__aeabi_bits_init>:
100044f8:	4801      	ldr	r0, [pc, #4]	; (10004500 <__aeabi_bits_init+0x8>)
100044fa:	2104      	movs	r1, #4
100044fc:	4b01      	ldr	r3, [pc, #4]	; (10004504 <__aeabi_bits_init+0xc>)
100044fe:	4718      	bx	r3
10004500:	20000330 	.word	0x20000330
10004504:	10004529 	.word	0x10004529

10004508 <rom_func_lookup>:
10004508:	2314      	movs	r3, #20
1000450a:	b510      	push	{r4, lr}
1000450c:	0001      	movs	r1, r0
1000450e:	8818      	ldrh	r0, [r3, #0]
10004510:	3304      	adds	r3, #4
10004512:	881b      	ldrh	r3, [r3, #0]
10004514:	4798      	blx	r3
10004516:	bd10      	pop	{r4, pc}

10004518 <rom_data_lookup>:
10004518:	2316      	movs	r3, #22
1000451a:	b510      	push	{r4, lr}
1000451c:	0001      	movs	r1, r0
1000451e:	8818      	ldrh	r0, [r3, #0]
10004520:	3302      	adds	r3, #2
10004522:	881b      	ldrh	r3, [r3, #0]
10004524:	4798      	blx	r3
10004526:	bd10      	pop	{r4, pc}

10004528 <rom_funcs_lookup>:
10004528:	b5f0      	push	{r4, r5, r6, r7, lr}
1000452a:	46c6      	mov	lr, r8
1000452c:	b500      	push	{lr}
1000452e:	2900      	cmp	r1, #0
10004530:	d016      	beq.n	10004560 <rom_funcs_lookup+0x38>
10004532:	2314      	movs	r3, #20
10004534:	0004      	movs	r4, r0
10004536:	2501      	movs	r5, #1
10004538:	4698      	mov	r8, r3
1000453a:	2718      	movs	r7, #24
1000453c:	0089      	lsls	r1, r1, #2
1000453e:	1846      	adds	r6, r0, r1
10004540:	4643      	mov	r3, r8
10004542:	6821      	ldr	r1, [r4, #0]
10004544:	8818      	ldrh	r0, [r3, #0]
10004546:	883b      	ldrh	r3, [r7, #0]
10004548:	4798      	blx	r3
1000454a:	c401      	stmia	r4!, {r0}
1000454c:	1e43      	subs	r3, r0, #1
1000454e:	4198      	sbcs	r0, r3
10004550:	4240      	negs	r0, r0
10004552:	4005      	ands	r5, r0
10004554:	42a6      	cmp	r6, r4
10004556:	d1f3      	bne.n	10004540 <rom_funcs_lookup+0x18>
10004558:	0028      	movs	r0, r5
1000455a:	bc04      	pop	{r2}
1000455c:	4690      	mov	r8, r2
1000455e:	bdf0      	pop	{r4, r5, r6, r7, pc}
10004560:	2501      	movs	r5, #1
10004562:	e7f9      	b.n	10004558 <rom_funcs_lookup+0x30>

10004564 <__wrap___aeabi_idiv>:
10004564:	4a14      	ldr	r2, [pc, #80]	; (100045b8 <divmod_s32s32_savestate+0x20>)
10004566:	6f93      	ldr	r3, [r2, #120]	; 0x78
10004568:	089b      	lsrs	r3, r3, #2
1000456a:	d215      	bcs.n	10004598 <divmod_s32s32_savestate>

1000456c <divmod_s32s32_unsafe>:
1000456c:	6690      	str	r0, [r2, #104]	; 0x68
1000456e:	66d1      	str	r1, [r2, #108]	; 0x6c
10004570:	2900      	cmp	r1, #0
10004572:	d005      	beq.n	10004580 <divmod_s32s32_unsafe+0x14>
10004574:	e7ff      	b.n	10004576 <divmod_s32s32_unsafe+0xa>
10004576:	e7ff      	b.n	10004578 <divmod_s32s32_unsafe+0xc>
10004578:	e7ff      	b.n	1000457a <divmod_s32s32_unsafe+0xe>
1000457a:	6f51      	ldr	r1, [r2, #116]	; 0x74
1000457c:	6f10      	ldr	r0, [r2, #112]	; 0x70
1000457e:	4770      	bx	lr
10004580:	b504      	push	{r2, lr}
10004582:	2180      	movs	r1, #128	; 0x80
10004584:	0609      	lsls	r1, r1, #24
10004586:	17c2      	asrs	r2, r0, #31
10004588:	4051      	eors	r1, r2
1000458a:	2800      	cmp	r0, #0
1000458c:	d000      	beq.n	10004590 <divmod_s32s32_unsafe+0x24>
1000458e:	43c8      	mvns	r0, r1
10004590:	f004 fcd2 	bl	10008f38 <____aeabi_idiv0_veneer>
10004594:	2100      	movs	r1, #0
10004596:	bd04      	pop	{r2, pc}

10004598 <divmod_s32s32_savestate>:
10004598:	6f93      	ldr	r3, [r2, #120]	; 0x78
1000459a:	085b      	lsrs	r3, r3, #1
1000459c:	d3fd      	bcc.n	1000459a <divmod_s32s32_savestate+0x2>
1000459e:	b5f0      	push	{r4, r5, r6, r7, lr}
100045a0:	6e94      	ldr	r4, [r2, #104]	; 0x68
100045a2:	6ed5      	ldr	r5, [r2, #108]	; 0x6c
100045a4:	6f57      	ldr	r7, [r2, #116]	; 0x74
100045a6:	6f16      	ldr	r6, [r2, #112]	; 0x70
100045a8:	f7ff ffe0 	bl	1000456c <divmod_s32s32_unsafe>
100045ac:	6694      	str	r4, [r2, #104]	; 0x68
100045ae:	66d5      	str	r5, [r2, #108]	; 0x6c
100045b0:	6757      	str	r7, [r2, #116]	; 0x74
100045b2:	6716      	str	r6, [r2, #112]	; 0x70
100045b4:	bdf0      	pop	{r4, r5, r6, r7, pc}
100045b6:	0000      	.short	0x0000
100045b8:	d0000000 	.word	0xd0000000

100045bc <__wrap___aeabi_uidiv>:
100045bc:	4a13      	ldr	r2, [pc, #76]	; (1000460c <divmod_u32u32_savestate+0x20>)
100045be:	6f93      	ldr	r3, [r2, #120]	; 0x78
100045c0:	089b      	lsrs	r3, r3, #2
100045c2:	d213      	bcs.n	100045ec <divmod_u32u32_savestate>

100045c4 <divmod_u32u32_unsafe>:
100045c4:	6610      	str	r0, [r2, #96]	; 0x60
100045c6:	6651      	str	r1, [r2, #100]	; 0x64
100045c8:	2900      	cmp	r1, #0
100045ca:	d005      	beq.n	100045d8 <divmod_u32u32_unsafe+0x14>
100045cc:	e7ff      	b.n	100045ce <divmod_u32u32_unsafe+0xa>
100045ce:	e7ff      	b.n	100045d0 <divmod_u32u32_unsafe+0xc>
100045d0:	e7ff      	b.n	100045d2 <divmod_u32u32_unsafe+0xe>
100045d2:	6f51      	ldr	r1, [r2, #116]	; 0x74
100045d4:	6f10      	ldr	r0, [r2, #112]	; 0x70
100045d6:	4770      	bx	lr
100045d8:	b504      	push	{r2, lr}
100045da:	2800      	cmp	r0, #0
100045dc:	d001      	beq.n	100045e2 <divmod_u32u32_unsafe+0x1e>
100045de:	2000      	movs	r0, #0
100045e0:	43c0      	mvns	r0, r0
100045e2:	f004 fca9 	bl	10008f38 <____aeabi_idiv0_veneer>
100045e6:	2100      	movs	r1, #0
100045e8:	bd04      	pop	{r2, pc}
100045ea:	46c0      	nop			; (mov r8, r8)

100045ec <divmod_u32u32_savestate>:
100045ec:	6f93      	ldr	r3, [r2, #120]	; 0x78
100045ee:	085b      	lsrs	r3, r3, #1
100045f0:	d3fd      	bcc.n	100045ee <divmod_u32u32_savestate+0x2>
100045f2:	b5f0      	push	{r4, r5, r6, r7, lr}
100045f4:	6e94      	ldr	r4, [r2, #104]	; 0x68
100045f6:	6ed5      	ldr	r5, [r2, #108]	; 0x6c
100045f8:	6f57      	ldr	r7, [r2, #116]	; 0x74
100045fa:	6f16      	ldr	r6, [r2, #112]	; 0x70
100045fc:	f7ff ffe2 	bl	100045c4 <divmod_u32u32_unsafe>
10004600:	6694      	str	r4, [r2, #104]	; 0x68
10004602:	66d5      	str	r5, [r2, #108]	; 0x6c
10004604:	6757      	str	r7, [r2, #116]	; 0x74
10004606:	6716      	str	r6, [r2, #112]	; 0x70
10004608:	bdf0      	pop	{r4, r5, r6, r7, pc}
1000460a:	0000      	.short	0x0000
1000460c:	d0000000 	.word	0xd0000000

10004610 <__wrap___aeabi_ldivmod>:
10004610:	4694      	mov	ip, r2
10004612:	4a4e      	ldr	r2, [pc, #312]	; (1000474c <udiv0+0x1a>)
10004614:	6f92      	ldr	r2, [r2, #120]	; 0x78
10004616:	0892      	lsrs	r2, r2, #2
10004618:	4662      	mov	r2, ip
1000461a:	d201      	bcs.n	10004620 <divmod_s64s64_savestate>
1000461c:	e030      	b.n	10004680 <divmod_s64s64_unsafe>
1000461e:	46c0      	nop			; (mov r8, r8)

10004620 <divmod_s64s64_savestate>:
10004620:	b5f0      	push	{r4, r5, r6, r7, lr}
10004622:	4e4a      	ldr	r6, [pc, #296]	; (1000474c <udiv0+0x1a>)
10004624:	6fb5      	ldr	r5, [r6, #120]	; 0x78
10004626:	086d      	lsrs	r5, r5, #1
10004628:	d3fc      	bcc.n	10004624 <divmod_s64s64_savestate+0x4>
1000462a:	6e34      	ldr	r4, [r6, #96]	; 0x60
1000462c:	6e75      	ldr	r5, [r6, #100]	; 0x64
1000462e:	6f77      	ldr	r7, [r6, #116]	; 0x74
10004630:	6f36      	ldr	r6, [r6, #112]	; 0x70
10004632:	f000 f825 	bl	10004680 <divmod_s64s64_unsafe>
10004636:	4694      	mov	ip, r2
10004638:	4a44      	ldr	r2, [pc, #272]	; (1000474c <udiv0+0x1a>)
1000463a:	6614      	str	r4, [r2, #96]	; 0x60
1000463c:	6655      	str	r5, [r2, #100]	; 0x64
1000463e:	6757      	str	r7, [r2, #116]	; 0x74
10004640:	6716      	str	r6, [r2, #112]	; 0x70
10004642:	4662      	mov	r2, ip
10004644:	bdf0      	pop	{r4, r5, r6, r7, pc}
10004646:	46c0      	nop			; (mov r8, r8)

10004648 <__wrap___aeabi_uldivmod>:
10004648:	4694      	mov	ip, r2
1000464a:	4a40      	ldr	r2, [pc, #256]	; (1000474c <udiv0+0x1a>)
1000464c:	6f92      	ldr	r2, [r2, #120]	; 0x78
1000464e:	0892      	lsrs	r2, r2, #2
10004650:	4662      	mov	r2, ip
10004652:	d201      	bcs.n	10004658 <divmod_u64u64_savestate>
10004654:	e058      	b.n	10004708 <divmod_u64u64_unsafe>
10004656:	46c0      	nop			; (mov r8, r8)

10004658 <divmod_u64u64_savestate>:
10004658:	b5f0      	push	{r4, r5, r6, r7, lr}
1000465a:	4e3c      	ldr	r6, [pc, #240]	; (1000474c <udiv0+0x1a>)
1000465c:	6fb5      	ldr	r5, [r6, #120]	; 0x78
1000465e:	086d      	lsrs	r5, r5, #1
10004660:	d3fc      	bcc.n	1000465c <divmod_u64u64_savestate+0x4>
10004662:	6e34      	ldr	r4, [r6, #96]	; 0x60
10004664:	6e75      	ldr	r5, [r6, #100]	; 0x64
10004666:	6f77      	ldr	r7, [r6, #116]	; 0x74
10004668:	6f36      	ldr	r6, [r6, #112]	; 0x70
1000466a:	f000 f84d 	bl	10004708 <divmod_u64u64_unsafe>
1000466e:	4694      	mov	ip, r2
10004670:	4a36      	ldr	r2, [pc, #216]	; (1000474c <udiv0+0x1a>)
10004672:	6614      	str	r4, [r2, #96]	; 0x60
10004674:	6655      	str	r5, [r2, #100]	; 0x64
10004676:	6757      	str	r7, [r2, #116]	; 0x74
10004678:	6716      	str	r6, [r2, #112]	; 0x70
1000467a:	4662      	mov	r2, ip
1000467c:	bdf0      	pop	{r4, r5, r6, r7, pc}
1000467e:	46c0      	nop			; (mov r8, r8)

10004680 <divmod_s64s64_unsafe>:
10004680:	2b00      	cmp	r3, #0
10004682:	db24      	blt.n	100046ce <l41_1+0x26>
10004684:	d011      	beq.n	100046aa <l41_1+0x2>
10004686:	2900      	cmp	r1, #0
10004688:	da3e      	bge.n	10004708 <divmod_u64u64_unsafe>
1000468a:	b500      	push	{lr}
1000468c:	43c9      	mvns	r1, r1
1000468e:	4240      	negs	r0, r0
10004690:	d100      	bne.n	10004694 <l39_1>
10004692:	3101      	adds	r1, #1

10004694 <l39_1>:
10004694:	f000 f838 	bl	10004708 <divmod_u64u64_unsafe>
10004698:	43c9      	mvns	r1, r1
1000469a:	4240      	negs	r0, r0
1000469c:	d100      	bne.n	100046a0 <l40_1>
1000469e:	3101      	adds	r1, #1

100046a0 <l40_1>:
100046a0:	43db      	mvns	r3, r3
100046a2:	4252      	negs	r2, r2
100046a4:	d100      	bne.n	100046a8 <l41_1>
100046a6:	3301      	adds	r3, #1

100046a8 <l41_1>:
100046a8:	bd00      	pop	{pc}
100046aa:	2a00      	cmp	r2, #0
100046ac:	d1eb      	bne.n	10004686 <divmod_s64s64_unsafe+0x6>
100046ae:	2800      	cmp	r0, #0
100046b0:	d101      	bne.n	100046b6 <l41_1+0xe>
100046b2:	2900      	cmp	r1, #0
100046b4:	d005      	beq.n	100046c2 <l41_1+0x1a>
100046b6:	2000      	movs	r0, #0
100046b8:	0fc9      	lsrs	r1, r1, #31
100046ba:	07c9      	lsls	r1, r1, #31
100046bc:	d101      	bne.n	100046c2 <l41_1+0x1a>
100046be:	43c0      	mvns	r0, r0
100046c0:	0841      	lsrs	r1, r0, #1
100046c2:	b500      	push	{lr}
100046c4:	f004 fc30 	bl	10008f28 <____aeabi_ldiv0_veneer>
100046c8:	2200      	movs	r2, #0
100046ca:	2300      	movs	r3, #0
100046cc:	bd00      	pop	{pc}
100046ce:	b500      	push	{lr}
100046d0:	2900      	cmp	r1, #0
100046d2:	db0a      	blt.n	100046ea <l43_1+0x2>
100046d4:	43db      	mvns	r3, r3
100046d6:	4252      	negs	r2, r2
100046d8:	d100      	bne.n	100046dc <l42_1>
100046da:	3301      	adds	r3, #1

100046dc <l42_1>:
100046dc:	f000 f814 	bl	10004708 <divmod_u64u64_unsafe>
100046e0:	43c9      	mvns	r1, r1
100046e2:	4240      	negs	r0, r0
100046e4:	d100      	bne.n	100046e8 <l43_1>
100046e6:	3101      	adds	r1, #1

100046e8 <l43_1>:
100046e8:	bd00      	pop	{pc}
100046ea:	43c9      	mvns	r1, r1
100046ec:	4240      	negs	r0, r0
100046ee:	d100      	bne.n	100046f2 <l44_1>
100046f0:	3101      	adds	r1, #1

100046f2 <l44_1>:
100046f2:	43db      	mvns	r3, r3
100046f4:	4252      	negs	r2, r2
100046f6:	d100      	bne.n	100046fa <l45_1>
100046f8:	3301      	adds	r3, #1

100046fa <l45_1>:
100046fa:	f000 f805 	bl	10004708 <divmod_u64u64_unsafe>
100046fe:	43db      	mvns	r3, r3
10004700:	4252      	negs	r2, r2
10004702:	d100      	bne.n	10004706 <l46_1>
10004704:	3301      	adds	r3, #1

10004706 <l46_1>:
10004706:	bd00      	pop	{pc}

10004708 <divmod_u64u64_unsafe>:
10004708:	2900      	cmp	r1, #0
1000470a:	d123      	bne.n	10004754 <y64>
1000470c:	2b00      	cmp	r3, #0
1000470e:	d118      	bne.n	10004742 <udiv0+0x10>
10004710:	2a00      	cmp	r2, #0
10004712:	d00c      	beq.n	1000472e <divmod_u64u64_unsafe+0x26>
10004714:	46bc      	mov	ip, r7
10004716:	4f0d      	ldr	r7, [pc, #52]	; (1000474c <udiv0+0x1a>)
10004718:	6638      	str	r0, [r7, #96]	; 0x60
1000471a:	667a      	str	r2, [r7, #100]	; 0x64
1000471c:	2100      	movs	r1, #0
1000471e:	2300      	movs	r3, #0
10004720:	e7ff      	b.n	10004722 <divmod_u64u64_unsafe+0x1a>
10004722:	e7ff      	b.n	10004724 <divmod_u64u64_unsafe+0x1c>
10004724:	e7ff      	b.n	10004726 <divmod_u64u64_unsafe+0x1e>
10004726:	6f7a      	ldr	r2, [r7, #116]	; 0x74
10004728:	6f38      	ldr	r0, [r7, #112]	; 0x70
1000472a:	4667      	mov	r7, ip
1000472c:	4770      	bx	lr
1000472e:	2800      	cmp	r0, #0
10004730:	d001      	beq.n	10004736 <udiv0+0x4>

10004732 <udiv0>:
10004732:	4807      	ldr	r0, [pc, #28]	; (10004750 <udiv0+0x1e>)
10004734:	0001      	movs	r1, r0
10004736:	b500      	push	{lr}
10004738:	f004 fbf6 	bl	10008f28 <____aeabi_ldiv0_veneer>
1000473c:	2200      	movs	r2, #0
1000473e:	2300      	movs	r3, #0
10004740:	bd00      	pop	{pc}
10004742:	0002      	movs	r2, r0
10004744:	000b      	movs	r3, r1
10004746:	2000      	movs	r0, #0
10004748:	2100      	movs	r1, #0
1000474a:	4770      	bx	lr
1000474c:	d0000000 	.word	0xd0000000
10004750:	ffffffff 	.word	0xffffffff

10004754 <y64>:
10004754:	2b00      	cmp	r3, #0
10004756:	d000      	beq.n	1000475a <y64+0x6>
10004758:	e0bd      	b.n	100048d6 <y64_x48>
1000475a:	0c13      	lsrs	r3, r2, #16
1000475c:	d126      	bne.n	100047ac <y64_x32>
1000475e:	2a00      	cmp	r2, #0
10004760:	d0e7      	beq.n	10004732 <udiv0>
10004762:	b480      	push	{r7}
10004764:	4f10      	ldr	r7, [pc, #64]	; (100047a8 <y64+0x54>)
10004766:	6639      	str	r1, [r7, #96]	; 0x60
10004768:	667a      	str	r2, [r7, #100]	; 0x64
1000476a:	e7ff      	b.n	1000476c <y64+0x18>
1000476c:	e7ff      	b.n	1000476e <y64+0x1a>
1000476e:	b430      	push	{r4, r5}
10004770:	0c04      	lsrs	r4, r0, #16
10004772:	6f7b      	ldr	r3, [r7, #116]	; 0x74
10004774:	6f39      	ldr	r1, [r7, #112]	; 0x70
10004776:	041b      	lsls	r3, r3, #16
10004778:	4323      	orrs	r3, r4
1000477a:	663b      	str	r3, [r7, #96]	; 0x60
1000477c:	e7ff      	b.n	1000477e <y64+0x2a>
1000477e:	e7ff      	b.n	10004780 <y64+0x2c>
10004780:	e7ff      	b.n	10004782 <y64+0x2e>
10004782:	46c0      	nop			; (mov r8, r8)
10004784:	b284      	uxth	r4, r0
10004786:	6f7b      	ldr	r3, [r7, #116]	; 0x74
10004788:	6f3d      	ldr	r5, [r7, #112]	; 0x70
1000478a:	041b      	lsls	r3, r3, #16
1000478c:	4323      	orrs	r3, r4
1000478e:	663b      	str	r3, [r7, #96]	; 0x60
10004790:	e7ff      	b.n	10004792 <y64+0x3e>
10004792:	e7ff      	b.n	10004794 <y64+0x40>
10004794:	46c0      	nop			; (mov r8, r8)
10004796:	2300      	movs	r3, #0
10004798:	042c      	lsls	r4, r5, #16
1000479a:	0c2d      	lsrs	r5, r5, #16
1000479c:	6f7a      	ldr	r2, [r7, #116]	; 0x74
1000479e:	6f38      	ldr	r0, [r7, #112]	; 0x70
100047a0:	1900      	adds	r0, r0, r4
100047a2:	4169      	adcs	r1, r5
100047a4:	bcb0      	pop	{r4, r5, r7}
100047a6:	4770      	bx	lr
100047a8:	d0000000 	.word	0xd0000000

100047ac <y64_x32>:
100047ac:	b5f0      	push	{r4, r5, r6, r7, lr}
100047ae:	4694      	mov	ip, r2
100047b0:	2500      	movs	r5, #0
100047b2:	0e14      	lsrs	r4, r2, #24
100047b4:	d101      	bne.n	100047ba <y64_x32+0xe>
100047b6:	0212      	lsls	r2, r2, #8
100047b8:	3508      	adds	r5, #8
100047ba:	0f14      	lsrs	r4, r2, #28
100047bc:	d101      	bne.n	100047c2 <y64_x32+0x16>
100047be:	0112      	lsls	r2, r2, #4
100047c0:	3504      	adds	r5, #4
100047c2:	0f94      	lsrs	r4, r2, #30
100047c4:	d101      	bne.n	100047ca <y64_x32+0x1e>
100047c6:	0092      	lsls	r2, r2, #2
100047c8:	3502      	adds	r5, #2
100047ca:	0fd4      	lsrs	r4, r2, #31
100047cc:	d101      	bne.n	100047d2 <y64_x32+0x26>
100047ce:	0052      	lsls	r2, r2, #1
100047d0:	3501      	adds	r5, #1
100047d2:	0bd4      	lsrs	r4, r2, #15
100047d4:	3401      	adds	r4, #1
100047d6:	4f25      	ldr	r7, [pc, #148]	; (1000486c <y64_x32+0xc0>)
100047d8:	667c      	str	r4, [r7, #100]	; 0x64
100047da:	4c25      	ldr	r4, [pc, #148]	; (10004870 <y64_x32+0xc4>)
100047dc:	663c      	str	r4, [r7, #96]	; 0x60
100047de:	0c0e      	lsrs	r6, r1, #16
100047e0:	b293      	uxth	r3, r2
100047e2:	e7ff      	b.n	100047e4 <y64_x32+0x38>
100047e4:	e7ff      	b.n	100047e6 <y64_x32+0x3a>
100047e6:	e7ff      	b.n	100047e8 <y64_x32+0x3c>
100047e8:	6f3c      	ldr	r4, [r7, #112]	; 0x70
100047ea:	4366      	muls	r6, r4
100047ec:	0c36      	lsrs	r6, r6, #16
100047ee:	0377      	lsls	r7, r6, #13
100047f0:	46be      	mov	lr, r7
100047f2:	4373      	muls	r3, r6
100047f4:	0bdf      	lsrs	r7, r3, #15
100047f6:	045b      	lsls	r3, r3, #17
100047f8:	1ac0      	subs	r0, r0, r3
100047fa:	41b9      	sbcs	r1, r7
100047fc:	0c13      	lsrs	r3, r2, #16
100047fe:	4373      	muls	r3, r6
10004800:	18db      	adds	r3, r3, r3
10004802:	1ac9      	subs	r1, r1, r3
10004804:	08ce      	lsrs	r6, r1, #3
10004806:	4366      	muls	r6, r4
10004808:	0c36      	lsrs	r6, r6, #16
1000480a:	44b6      	add	lr, r6
1000480c:	b293      	uxth	r3, r2
1000480e:	4373      	muls	r3, r6
10004810:	0f1f      	lsrs	r7, r3, #28
10004812:	011b      	lsls	r3, r3, #4
10004814:	1ac0      	subs	r0, r0, r3
10004816:	41b9      	sbcs	r1, r7
10004818:	0c13      	lsrs	r3, r2, #16
1000481a:	4373      	muls	r3, r6
1000481c:	0b1f      	lsrs	r7, r3, #12
1000481e:	051b      	lsls	r3, r3, #20
10004820:	1ac0      	subs	r0, r0, r3
10004822:	41b9      	sbcs	r1, r7
10004824:	0d86      	lsrs	r6, r0, #22
10004826:	028f      	lsls	r7, r1, #10
10004828:	433e      	orrs	r6, r7
1000482a:	4366      	muls	r6, r4
1000482c:	0c36      	lsrs	r6, r6, #16
1000482e:	2d09      	cmp	r5, #9
10004830:	db24      	blt.n	1000487c <last0>
10004832:	0a52      	lsrs	r2, r2, #9
10004834:	4372      	muls	r2, r6
10004836:	1a80      	subs	r0, r0, r2
10004838:	0377      	lsls	r7, r6, #13
1000483a:	0a46      	lsrs	r6, r0, #9
1000483c:	4366      	muls	r6, r4
1000483e:	0c36      	lsrs	r6, r6, #16
10004840:	2316      	movs	r3, #22
10004842:	1b5b      	subs	r3, r3, r5
10004844:	40de      	lsrs	r6, r3
10004846:	40df      	lsrs	r7, r3
10004848:	19bf      	adds	r7, r7, r6
1000484a:	4664      	mov	r4, ip
1000484c:	4366      	muls	r6, r4
1000484e:	1b82      	subs	r2, r0, r6
10004850:	4670      	mov	r0, lr
10004852:	3504      	adds	r5, #4
10004854:	3306      	adds	r3, #6
10004856:	0001      	movs	r1, r0
10004858:	40d9      	lsrs	r1, r3
1000485a:	40a8      	lsls	r0, r5
1000485c:	19c0      	adds	r0, r0, r7
1000485e:	d300      	bcc.n	10004862 <y64_x32+0xb6>
10004860:	3101      	adds	r1, #1
10004862:	42a2      	cmp	r2, r4
10004864:	d206      	bcs.n	10004874 <y64_x32+0xc8>
10004866:	2300      	movs	r3, #0
10004868:	bdf0      	pop	{r4, r5, r6, r7, pc}
1000486a:	0000      	.short	0x0000
1000486c:	d0000000 	.word	0xd0000000
10004870:	ffffffff 	.word	0xffffffff
10004874:	1b12      	subs	r2, r2, r4
10004876:	3001      	adds	r0, #1
10004878:	d3f3      	bcc.n	10004862 <y64_x32+0xb6>
1000487a:	e7f1      	b.n	10004860 <y64_x32+0xb4>

1000487c <last0>:
1000487c:	2709      	movs	r7, #9
1000487e:	1b7f      	subs	r7, r7, r5
10004880:	40fe      	lsrs	r6, r7
10004882:	4664      	mov	r4, ip
10004884:	b2a2      	uxth	r2, r4
10004886:	4372      	muls	r2, r6
10004888:	1a80      	subs	r0, r0, r2
1000488a:	d200      	bcs.n	1000488e <last0+0x12>
1000488c:	3901      	subs	r1, #1
1000488e:	0c22      	lsrs	r2, r4, #16
10004890:	4372      	muls	r2, r6
10004892:	0c13      	lsrs	r3, r2, #16
10004894:	0412      	lsls	r2, r2, #16
10004896:	1a82      	subs	r2, r0, r2
10004898:	4199      	sbcs	r1, r3
1000489a:	000b      	movs	r3, r1
1000489c:	4670      	mov	r0, lr
1000489e:	3504      	adds	r5, #4
100048a0:	3713      	adds	r7, #19
100048a2:	0001      	movs	r1, r0
100048a4:	40f9      	lsrs	r1, r7
100048a6:	40a8      	lsls	r0, r5
100048a8:	1980      	adds	r0, r0, r6
100048aa:	d300      	bcc.n	100048ae <last0+0x32>
100048ac:	3101      	adds	r1, #1
100048ae:	2b00      	cmp	r3, #0
100048b0:	d102      	bne.n	100048b8 <last0+0x3c>
100048b2:	42a2      	cmp	r2, r4
100048b4:	d20a      	bcs.n	100048cc <last0+0x50>
100048b6:	bdf0      	pop	{r4, r5, r6, r7, pc}
100048b8:	3001      	adds	r0, #1
100048ba:	d300      	bcc.n	100048be <last0+0x42>
100048bc:	3101      	adds	r1, #1
100048be:	1b12      	subs	r2, r2, r4
100048c0:	d2fa      	bcs.n	100048b8 <last0+0x3c>
100048c2:	3b01      	subs	r3, #1
100048c4:	d1f8      	bne.n	100048b8 <last0+0x3c>
100048c6:	42a2      	cmp	r2, r4
100048c8:	d200      	bcs.n	100048cc <last0+0x50>
100048ca:	bdf0      	pop	{r4, r5, r6, r7, pc}
100048cc:	3001      	adds	r0, #1
100048ce:	d300      	bcc.n	100048d2 <last0+0x56>
100048d0:	3101      	adds	r1, #1
100048d2:	1b12      	subs	r2, r2, r4
100048d4:	e7f7      	b.n	100048c6 <last0+0x4a>

100048d6 <y64_x48>:
100048d6:	b5f0      	push	{r4, r5, r6, r7, lr}
100048d8:	0c1c      	lsrs	r4, r3, #16
100048da:	d000      	beq.n	100048de <y64_x48+0x8>
100048dc:	e080      	b.n	100049e0 <y64_x64>
100048de:	b40c      	push	{r2, r3}
100048e0:	2500      	movs	r5, #0
100048e2:	0a1c      	lsrs	r4, r3, #8
100048e4:	d104      	bne.n	100048f0 <y64_x48+0x1a>
100048e6:	021b      	lsls	r3, r3, #8
100048e8:	0e16      	lsrs	r6, r2, #24
100048ea:	4333      	orrs	r3, r6
100048ec:	0212      	lsls	r2, r2, #8
100048ee:	3508      	adds	r5, #8
100048f0:	0b1c      	lsrs	r4, r3, #12
100048f2:	d104      	bne.n	100048fe <y64_x48+0x28>
100048f4:	011b      	lsls	r3, r3, #4
100048f6:	0f16      	lsrs	r6, r2, #28
100048f8:	4333      	orrs	r3, r6
100048fa:	0112      	lsls	r2, r2, #4
100048fc:	3504      	adds	r5, #4
100048fe:	0b9c      	lsrs	r4, r3, #14
10004900:	d104      	bne.n	1000490c <y64_x48+0x36>
10004902:	009b      	lsls	r3, r3, #2
10004904:	0f96      	lsrs	r6, r2, #30
10004906:	4333      	orrs	r3, r6
10004908:	0092      	lsls	r2, r2, #2
1000490a:	3502      	adds	r5, #2
1000490c:	0bdc      	lsrs	r4, r3, #15
1000490e:	d102      	bne.n	10004916 <y64_x48+0x40>
10004910:	1892      	adds	r2, r2, r2
10004912:	415b      	adcs	r3, r3
10004914:	3501      	adds	r5, #1
10004916:	001c      	movs	r4, r3
10004918:	1897      	adds	r7, r2, r2
1000491a:	4164      	adcs	r4, r4
1000491c:	3401      	adds	r4, #1
1000491e:	4f46      	ldr	r7, [pc, #280]	; (10004a38 <y64_x64+0x58>)
10004920:	667c      	str	r4, [r7, #100]	; 0x64
10004922:	4c46      	ldr	r4, [pc, #280]	; (10004a3c <y64_x64+0x5c>)
10004924:	663c      	str	r4, [r7, #96]	; 0x60
10004926:	0c0e      	lsrs	r6, r1, #16
10004928:	e7ff      	b.n	1000492a <y64_x48+0x54>
1000492a:	e7ff      	b.n	1000492c <y64_x48+0x56>
1000492c:	e7ff      	b.n	1000492e <y64_x48+0x58>
1000492e:	46c0      	nop			; (mov r8, r8)
10004930:	6f3c      	ldr	r4, [r7, #112]	; 0x70
10004932:	4366      	muls	r6, r4
10004934:	0c36      	lsrs	r6, r6, #16
10004936:	0377      	lsls	r7, r6, #13
10004938:	46be      	mov	lr, r7
1000493a:	b297      	uxth	r7, r2
1000493c:	4377      	muls	r7, r6
1000493e:	1bc0      	subs	r0, r0, r7
10004940:	d200      	bcs.n	10004944 <y64_x48+0x6e>
10004942:	3901      	subs	r1, #1
10004944:	1bc0      	subs	r0, r0, r7
10004946:	d200      	bcs.n	1000494a <y64_x48+0x74>
10004948:	3901      	subs	r1, #1
1000494a:	b29f      	uxth	r7, r3
1000494c:	4377      	muls	r7, r6
1000494e:	1bc9      	subs	r1, r1, r7
10004950:	1bc9      	subs	r1, r1, r7
10004952:	0c17      	lsrs	r7, r2, #16
10004954:	4377      	muls	r7, r6
10004956:	047e      	lsls	r6, r7, #17
10004958:	0bff      	lsrs	r7, r7, #15
1000495a:	1b80      	subs	r0, r0, r6
1000495c:	41b9      	sbcs	r1, r7
1000495e:	08ce      	lsrs	r6, r1, #3
10004960:	4366      	muls	r6, r4
10004962:	0c36      	lsrs	r6, r6, #16
10004964:	2d0c      	cmp	r5, #12
10004966:	db33      	blt.n	100049d0 <last1>
10004968:	44b6      	add	lr, r6
1000496a:	0b12      	lsrs	r2, r2, #12
1000496c:	051f      	lsls	r7, r3, #20
1000496e:	433a      	orrs	r2, r7
10004970:	0b1b      	lsrs	r3, r3, #12
10004972:	b297      	uxth	r7, r2
10004974:	4377      	muls	r7, r6
10004976:	1bc0      	subs	r0, r0, r7
10004978:	d200      	bcs.n	1000497c <y64_x48+0xa6>
1000497a:	3901      	subs	r1, #1
1000497c:	b29f      	uxth	r7, r3
1000497e:	4377      	muls	r7, r6
10004980:	1bc9      	subs	r1, r1, r7
10004982:	0c17      	lsrs	r7, r2, #16
10004984:	4377      	muls	r7, r6
10004986:	043e      	lsls	r6, r7, #16
10004988:	0c3f      	lsrs	r7, r7, #16
1000498a:	1b80      	subs	r0, r0, r6
1000498c:	41b9      	sbcs	r1, r7
1000498e:	0d86      	lsrs	r6, r0, #22
10004990:	028f      	lsls	r7, r1, #10
10004992:	433e      	orrs	r6, r7
10004994:	4366      	muls	r6, r4
10004996:	2729      	movs	r7, #41	; 0x29
10004998:	1b7f      	subs	r7, r7, r5
1000499a:	40fe      	lsrs	r6, r7
1000499c:	3d0c      	subs	r5, #12
1000499e:	4677      	mov	r7, lr
100049a0:	40af      	lsls	r7, r5
100049a2:	19bf      	adds	r7, r7, r6
100049a4:	bc30      	pop	{r4, r5}
100049a6:	b2a2      	uxth	r2, r4
100049a8:	b2ab      	uxth	r3, r5
100049aa:	4372      	muls	r2, r6
100049ac:	4373      	muls	r3, r6
100049ae:	1a80      	subs	r0, r0, r2
100049b0:	4199      	sbcs	r1, r3
100049b2:	0c22      	lsrs	r2, r4, #16
100049b4:	4372      	muls	r2, r6
100049b6:	0c13      	lsrs	r3, r2, #16
100049b8:	0412      	lsls	r2, r2, #16
100049ba:	1a80      	subs	r0, r0, r2
100049bc:	4199      	sbcs	r1, r3
100049be:	0002      	movs	r2, r0
100049c0:	000b      	movs	r3, r1
100049c2:	3701      	adds	r7, #1
100049c4:	1b00      	subs	r0, r0, r4
100049c6:	41a9      	sbcs	r1, r5
100049c8:	d2f9      	bcs.n	100049be <y64_x48+0xe8>
100049ca:	1e78      	subs	r0, r7, #1
100049cc:	2100      	movs	r1, #0
100049ce:	bdf0      	pop	{r4, r5, r6, r7, pc}

100049d0 <last1>:
100049d0:	270c      	movs	r7, #12
100049d2:	1b7f      	subs	r7, r7, r5
100049d4:	40fe      	lsrs	r6, r7
100049d6:	4677      	mov	r7, lr
100049d8:	0b7f      	lsrs	r7, r7, #13
100049da:	40af      	lsls	r7, r5
100049dc:	19ff      	adds	r7, r7, r7
100049de:	e7e0      	b.n	100049a2 <y64_x48+0xcc>

100049e0 <y64_x64>:
100049e0:	2400      	movs	r4, #0
100049e2:	1c5d      	adds	r5, r3, #1
100049e4:	d007      	beq.n	100049f6 <y64_x64+0x16>
100049e6:	4f14      	ldr	r7, [pc, #80]	; (10004a38 <y64_x64+0x58>)
100049e8:	667d      	str	r5, [r7, #100]	; 0x64
100049ea:	6639      	str	r1, [r7, #96]	; 0x60
100049ec:	e7ff      	b.n	100049ee <y64_x64+0xe>
100049ee:	e7ff      	b.n	100049f0 <y64_x64+0x10>
100049f0:	e7ff      	b.n	100049f2 <y64_x64+0x12>
100049f2:	e7ff      	b.n	100049f4 <y64_x64+0x14>
100049f4:	6f3c      	ldr	r4, [r7, #112]	; 0x70
100049f6:	b295      	uxth	r5, r2
100049f8:	b29e      	uxth	r6, r3
100049fa:	4365      	muls	r5, r4
100049fc:	4366      	muls	r6, r4
100049fe:	1b40      	subs	r0, r0, r5
10004a00:	41b1      	sbcs	r1, r6
10004a02:	0c15      	lsrs	r5, r2, #16
10004a04:	0c1e      	lsrs	r6, r3, #16
10004a06:	4365      	muls	r5, r4
10004a08:	4366      	muls	r6, r4
10004a0a:	0436      	lsls	r6, r6, #16
10004a0c:	0c2f      	lsrs	r7, r5, #16
10004a0e:	433e      	orrs	r6, r7
10004a10:	042d      	lsls	r5, r5, #16
10004a12:	1b40      	subs	r0, r0, r5
10004a14:	41b1      	sbcs	r1, r6
10004a16:	4299      	cmp	r1, r3
10004a18:	d204      	bcs.n	10004a24 <y64_x64+0x44>
10004a1a:	0002      	movs	r2, r0
10004a1c:	000b      	movs	r3, r1
10004a1e:	0020      	movs	r0, r4
10004a20:	2100      	movs	r1, #0
10004a22:	bdf0      	pop	{r4, r5, r6, r7, pc}
10004a24:	d101      	bne.n	10004a2a <y64_x64+0x4a>
10004a26:	4290      	cmp	r0, r2
10004a28:	d3f7      	bcc.n	10004a1a <y64_x64+0x3a>
10004a2a:	1a80      	subs	r0, r0, r2
10004a2c:	4199      	sbcs	r1, r3
10004a2e:	3401      	adds	r4, #1
10004a30:	4299      	cmp	r1, r3
10004a32:	d3f2      	bcc.n	10004a1a <y64_x64+0x3a>
10004a34:	e7f6      	b.n	10004a24 <y64_x64+0x44>
10004a36:	0000      	.short	0x0000
10004a38:	d0000000 	.word	0xd0000000
10004a3c:	ffffffff 	.word	0xffffffff

10004a40 <__wrap___aeabi_drsub>:
10004a40:	4048      	eors	r0, r1
10004a42:	4041      	eors	r1, r0
10004a44:	4048      	eors	r0, r1

10004a46 <__wrap___aeabi_dsub>:
10004a46:	b418      	push	{r3, r4}
10004a48:	4b11      	ldr	r3, [pc, #68]	; (10004a90 <__wrap___aeabi_dmul+0x14>)
10004a4a:	685b      	ldr	r3, [r3, #4]
10004a4c:	46fc      	mov	ip, pc
10004a4e:	9301      	str	r3, [sp, #4]
10004a50:	bd08      	pop	{r3, pc}
10004a52:	df04      	.short	0xdf04
10004a54:	10004c73 	.word	0x10004c73

10004a58 <__wrap___aeabi_dadd>:
10004a58:	b418      	push	{r3, r4}
10004a5a:	4b0d      	ldr	r3, [pc, #52]	; (10004a90 <__wrap___aeabi_dmul+0x14>)
10004a5c:	681b      	ldr	r3, [r3, #0]
10004a5e:	46fc      	mov	ip, pc
10004a60:	9301      	str	r3, [sp, #4]
10004a62:	bd08      	pop	{r3, pc}
10004a64:	4c7ddf00 	.word	0x4c7ddf00
10004a68:	1000      	.short	0x1000

10004a6a <__wrap___aeabi_ddiv>:
10004a6a:	b418      	push	{r3, r4}
10004a6c:	4b08      	ldr	r3, [pc, #32]	; (10004a90 <__wrap___aeabi_dmul+0x14>)
10004a6e:	68db      	ldr	r3, [r3, #12]
10004a70:	46fc      	mov	ip, pc
10004a72:	9301      	str	r3, [sp, #4]
10004a74:	bd08      	pop	{r3, pc}
10004a76:	df0c      	.short	0xdf0c
10004a78:	10004f35 	.word	0x10004f35

10004a7c <__wrap___aeabi_dmul>:
10004a7c:	b418      	push	{r3, r4}
10004a7e:	4b04      	ldr	r3, [pc, #16]	; (10004a90 <__wrap___aeabi_dmul+0x14>)
10004a80:	689b      	ldr	r3, [r3, #8]
10004a82:	46fc      	mov	ip, pc
10004a84:	9301      	str	r3, [sp, #4]
10004a86:	bd08      	pop	{r3, pc}
10004a88:	4dd9df08 	.word	0x4dd9df08
10004a8c:	00001000 	.word	0x00001000
10004a90:	20001724 	.word	0x20001724

10004a94 <__wrap___aeabi_cdrcmple>:
10004a94:	b5ff      	push	{r0, r1, r2, r3, r4, r5, r6, r7, lr}
10004a96:	4050      	eors	r0, r2
10004a98:	4042      	eors	r2, r0
10004a9a:	4050      	eors	r0, r2
10004a9c:	4059      	eors	r1, r3
10004a9e:	404b      	eors	r3, r1
10004aa0:	4059      	eors	r1, r3
10004aa2:	e000      	b.n	10004aa6 <__aeabi_dfcmple_guts>

10004aa4 <__wrap___aeabi_cdcmpeq>:
10004aa4:	b5ff      	push	{r0, r1, r2, r3, r4, r5, r6, r7, lr}

10004aa6 <__aeabi_dfcmple_guts>:
10004aa6:	4f15      	ldr	r7, [pc, #84]	; (10004afc <__aeabi_dfcmple_guts+0x56>)
10004aa8:	004c      	lsls	r4, r1, #1
10004aaa:	0d64      	lsrs	r4, r4, #21
10004aac:	d003      	beq.n	10004ab6 <__aeabi_dfcmple_guts+0x10>
10004aae:	42bc      	cmp	r4, r7
10004ab0:	d104      	bne.n	10004abc <__aeabi_dfcmple_guts+0x16>
10004ab2:	030c      	lsls	r4, r1, #12
10004ab4:	d814      	bhi.n	10004ae0 <__aeabi_dfcmple_guts+0x3a>
10004ab6:	2000      	movs	r0, #0
10004ab8:	0d09      	lsrs	r1, r1, #20
10004aba:	0509      	lsls	r1, r1, #20
10004abc:	005c      	lsls	r4, r3, #1
10004abe:	0d64      	lsrs	r4, r4, #21
10004ac0:	d003      	beq.n	10004aca <__aeabi_dfcmple_guts+0x24>
10004ac2:	42bc      	cmp	r4, r7
10004ac4:	d104      	bne.n	10004ad0 <__aeabi_dfcmple_guts+0x2a>
10004ac6:	031c      	lsls	r4, r3, #12
10004ac8:	d80a      	bhi.n	10004ae0 <__aeabi_dfcmple_guts+0x3a>
10004aca:	2200      	movs	r2, #0
10004acc:	0d1b      	lsrs	r3, r3, #20
10004ace:	051b      	lsls	r3, r3, #20
10004ad0:	2601      	movs	r6, #1
10004ad2:	404b      	eors	r3, r1
10004ad4:	d409      	bmi.n	10004aea <__aeabi_dfcmple_guts+0x44>
10004ad6:	404b      	eors	r3, r1
10004ad8:	d503      	bpl.n	10004ae2 <__aeabi_dfcmple_guts+0x3c>
10004ada:	428b      	cmp	r3, r1
10004adc:	d100      	bne.n	10004ae0 <__aeabi_dfcmple_guts+0x3a>
10004ade:	4282      	cmp	r2, r0
10004ae0:	bdff      	pop	{r0, r1, r2, r3, r4, r5, r6, r7, pc}
10004ae2:	4299      	cmp	r1, r3
10004ae4:	d1fc      	bne.n	10004ae0 <__aeabi_dfcmple_guts+0x3a>
10004ae6:	4290      	cmp	r0, r2
10004ae8:	bdff      	pop	{r0, r1, r2, r3, r4, r5, r6, r7, pc}
10004aea:	430b      	orrs	r3, r1
10004aec:	18db      	adds	r3, r3, r3
10004aee:	4303      	orrs	r3, r0
10004af0:	4313      	orrs	r3, r2
10004af2:	d0f5      	beq.n	10004ae0 <__aeabi_dfcmple_guts+0x3a>
10004af4:	43c9      	mvns	r1, r1
10004af6:	1849      	adds	r1, r1, r1
10004af8:	bdff      	pop	{r0, r1, r2, r3, r4, r5, r6, r7, pc}
10004afa:	0000      	.short	0x0000
10004afc:	000007ff 	.word	0x000007ff

10004b00 <__wrap___aeabi_dcmplt>:
10004b00:	b500      	push	{lr}
10004b02:	f7ff ffcf 	bl	10004aa4 <__wrap___aeabi_cdcmpeq>
10004b06:	4180      	sbcs	r0, r0
10004b08:	bd00      	pop	{pc}
10004b0a:	46c0      	nop			; (mov r8, r8)

10004b0c <__wrap___aeabi_dcmpge>:
10004b0c:	b500      	push	{lr}
10004b0e:	f7ff ffc1 	bl	10004a94 <__wrap___aeabi_cdrcmple>
10004b12:	d901      	bls.n	10004b18 <__wrap___aeabi_dcmpge+0xc>
10004b14:	2000      	movs	r0, #0
10004b16:	bd00      	pop	{pc}
10004b18:	2001      	movs	r0, #1
10004b1a:	bd00      	pop	{pc}

10004b1c <__wrap___aeabi_dcmpgt>:
10004b1c:	b500      	push	{lr}
10004b1e:	f7ff ffb9 	bl	10004a94 <__wrap___aeabi_cdrcmple>
10004b22:	4180      	sbcs	r0, r0
10004b24:	bd00      	pop	{pc}

10004b26 <__wrap___aeabi_dcmpun>:
10004b26:	2001      	movs	r0, #1
10004b28:	0540      	lsls	r0, r0, #21
10004b2a:	004a      	lsls	r2, r1, #1
10004b2c:	1812      	adds	r2, r2, r0
10004b2e:	d804      	bhi.n	10004b3a <__wrap___aeabi_dcmpun+0x14>
10004b30:	005a      	lsls	r2, r3, #1
10004b32:	1812      	adds	r2, r2, r0
10004b34:	d801      	bhi.n	10004b3a <__wrap___aeabi_dcmpun+0x14>
10004b36:	2000      	movs	r0, #0
10004b38:	4770      	bx	lr
10004b3a:	2001      	movs	r0, #1
10004b3c:	4770      	bx	lr
10004b3e:	2000      	movs	r0, #0
10004b40:	4770      	bx	lr
	...

10004b44 <__wrap___aeabi_ui2d>:
10004b44:	2100      	movs	r1, #0
10004b46:	2800      	cmp	r0, #0
10004b48:	d105      	bne.n	10004b56 <__wrap___aeabi_i2d+0xa>
10004b4a:	4770      	bx	lr

10004b4c <__wrap___aeabi_i2d>:
10004b4c:	17c1      	asrs	r1, r0, #31
10004b4e:	4048      	eors	r0, r1
10004b50:	1a40      	subs	r0, r0, r1
10004b52:	d0fa      	beq.n	10004b4a <__wrap___aeabi_ui2d+0x6>
10004b54:	07c9      	lsls	r1, r1, #31
10004b56:	b513      	push	{r0, r1, r4, lr}
10004b58:	4b06      	ldr	r3, [pc, #24]	; (10004b74 <__wrap___aeabi_i2d+0x28>)
10004b5a:	681b      	ldr	r3, [r3, #0]
10004b5c:	4798      	blx	r3
10004b5e:	bc0c      	pop	{r2, r3}
10004b60:	1c44      	adds	r4, r0, #1
10004b62:	40a2      	lsls	r2, r4
10004b64:	0510      	lsls	r0, r2, #20
10004b66:	0b12      	lsrs	r2, r2, #12
10004b68:	4903      	ldr	r1, [pc, #12]	; (10004b78 <__wrap___aeabi_i2d+0x2c>)
10004b6a:	1b09      	subs	r1, r1, r4
10004b6c:	0509      	lsls	r1, r1, #20
10004b6e:	4319      	orrs	r1, r3
10004b70:	4311      	orrs	r1, r2
10004b72:	bd10      	pop	{r4, pc}
10004b74:	20001924 	.word	0x20001924
10004b78:	0000041f 	.word	0x0000041f

10004b7c <__wrap___aeabi_d2iz>:
10004b7c:	b510      	push	{r4, lr}
10004b7e:	004c      	lsls	r4, r1, #1
10004b80:	0d62      	lsrs	r2, r4, #21
10004b82:	2380      	movs	r3, #128	; 0x80
10004b84:	18d2      	adds	r2, r2, r3
10004b86:	00db      	lsls	r3, r3, #3
10004b88:	1ad2      	subs	r2, r2, r3
10004b8a:	055b      	lsls	r3, r3, #21
10004b8c:	2a7e      	cmp	r2, #126	; 0x7e
10004b8e:	dd10      	ble.n	10004bb2 <__wrap___aeabi_d2iz+0x36>
10004b90:	3a9e      	subs	r2, #158	; 0x9e
10004b92:	da13      	bge.n	10004bbc <__wrap___aeabi_d2iz+0x40>
10004b94:	17cc      	asrs	r4, r1, #31
10004b96:	0309      	lsls	r1, r1, #12
10004b98:	0849      	lsrs	r1, r1, #1
10004b9a:	4319      	orrs	r1, r3
10004b9c:	4252      	negs	r2, r2
10004b9e:	40d1      	lsrs	r1, r2
10004ba0:	0064      	lsls	r4, r4, #1
10004ba2:	3401      	adds	r4, #1
10004ba4:	3215      	adds	r2, #21
10004ba6:	2a20      	cmp	r2, #32
10004ba8:	da05      	bge.n	10004bb6 <__wrap___aeabi_d2iz+0x3a>
10004baa:	40d0      	lsrs	r0, r2
10004bac:	4308      	orrs	r0, r1
10004bae:	4360      	muls	r0, r4
10004bb0:	bd10      	pop	{r4, pc}
10004bb2:	2000      	movs	r0, #0
10004bb4:	bd10      	pop	{r4, pc}
10004bb6:	4608      	mov	r0, r1
10004bb8:	4360      	muls	r0, r4
10004bba:	bd10      	pop	{r4, pc}
10004bbc:	0fc8      	lsrs	r0, r1, #31
10004bbe:	18c0      	adds	r0, r0, r3
10004bc0:	3801      	subs	r0, #1
10004bc2:	bd10      	pop	{r4, pc}

10004bc4 <__wrap___aeabi_d2uiz>:
10004bc4:	b418      	push	{r3, r4}
10004bc6:	4b04      	ldr	r3, [pc, #16]	; (10004bd8 <__wrap___aeabi_d2uiz+0x14>)
10004bc8:	6a5b      	ldr	r3, [r3, #36]	; 0x24
10004bca:	46fc      	mov	ip, pc
10004bcc:	9301      	str	r3, [sp, #4]
10004bce:	bd08      	pop	{r3, pc}
10004bd0:	5161df24 	.word	0x5161df24
10004bd4:	00001000 	.word	0x00001000
10004bd8:	20001724 	.word	0x20001724

10004bdc <__wrap___aeabi_d2f>:
10004bdc:	b418      	push	{r3, r4}
10004bde:	4b04      	ldr	r3, [pc, #16]	; (10004bf0 <__wrap___aeabi_d2f+0x14>)
10004be0:	6fdb      	ldr	r3, [r3, #124]	; 0x7c
10004be2:	46fc      	mov	ip, pc
10004be4:	9301      	str	r3, [sp, #4]
10004be6:	bd08      	pop	{r3, pc}
10004be8:	51dddf7c 	.word	0x51dddf7c
10004bec:	00001000 	.word	0x00001000
10004bf0:	20001724 	.word	0x20001724

10004bf4 <__aeabi_double_init>:
10004bf4:	2313      	movs	r3, #19
10004bf6:	b570      	push	{r4, r5, r6, lr}
10004bf8:	781c      	ldrb	r4, [r3, #0]
10004bfa:	2c01      	cmp	r4, #1
10004bfc:	d00c      	beq.n	10004c18 <__aeabi_double_init+0x24>
10004bfe:	dd15      	ble.n	10004c2c <__aeabi_double_init+0x38>
10004c00:	480c      	ldr	r0, [pc, #48]	; (10004c34 <__aeabi_double_init+0x40>)
10004c02:	f7ff fc89 	bl	10004518 <rom_data_lookup>
10004c06:	4d0c      	ldr	r5, [pc, #48]	; (10004c38 <__aeabi_double_init+0x44>)
10004c08:	0001      	movs	r1, r0
10004c0a:	2280      	movs	r2, #128	; 0x80
10004c0c:	0028      	movs	r0, r5
10004c0e:	f000 fbfb 	bl	10005408 <__wrap___aeabi_memcpy>
10004c12:	2c02      	cmp	r4, #2
10004c14:	d00b      	beq.n	10004c2e <__aeabi_double_init+0x3a>
10004c16:	bd70      	pop	{r4, r5, r6, pc}
10004c18:	4d07      	ldr	r5, [pc, #28]	; (10004c38 <__aeabi_double_init+0x44>)
10004c1a:	4a08      	ldr	r2, [pc, #32]	; (10004c3c <__aeabi_double_init+0x48>)
10004c1c:	0029      	movs	r1, r5
10004c1e:	002b      	movs	r3, r5
10004c20:	3180      	adds	r1, #128	; 0x80
10004c22:	c304      	stmia	r3!, {r2}
10004c24:	428b      	cmp	r3, r1
10004c26:	d1fc      	bne.n	10004c22 <__aeabi_double_init+0x2e>
10004c28:	64aa      	str	r2, [r5, #72]	; 0x48
10004c2a:	e7f4      	b.n	10004c16 <__aeabi_double_init+0x22>
10004c2c:	4d02      	ldr	r5, [pc, #8]	; (10004c38 <__aeabi_double_init+0x44>)
10004c2e:	4a03      	ldr	r2, [pc, #12]	; (10004c3c <__aeabi_double_init+0x48>)
10004c30:	64aa      	str	r2, [r5, #72]	; 0x48
10004c32:	e7f0      	b.n	10004c16 <__aeabi_double_init+0x22>
10004c34:	00004453 	.word	0x00004453
10004c38:	20001724 	.word	0x20001724
10004c3c:	10004c41 	.word	0x10004c41

10004c40 <double_table_shim_on_use_helper>:
10004c40:	b507      	push	{r0, r1, r2, lr}
10004c42:	4660      	mov	r0, ip
10004c44:	8801      	ldrh	r1, [r0, #0]
10004c46:	0a0a      	lsrs	r2, r1, #8
10004c48:	3002      	adds	r0, #2
10004c4a:	2adf      	cmp	r2, #223	; 0xdf
10004c4c:	d1fa      	bne.n	10004c44 <double_table_shim_on_use_helper+0x4>
10004c4e:	b2c9      	uxtb	r1, r1
10004c50:	0882      	lsrs	r2, r0, #2
10004c52:	d304      	bcc.n	10004c5e <double_table_shim_on_use_helper+0x1e>
10004c54:	8802      	ldrh	r2, [r0, #0]
10004c56:	8840      	ldrh	r0, [r0, #2]
10004c58:	0400      	lsls	r0, r0, #16
10004c5a:	4310      	orrs	r0, r2
10004c5c:	e000      	b.n	10004c60 <double_table_shim_on_use_helper+0x20>
10004c5e:	6800      	ldr	r0, [r0, #0]
10004c60:	4a01      	ldr	r2, [pc, #4]	; (10004c68 <double_table_shim_on_use_helper+0x28>)
10004c62:	5050      	str	r0, [r2, r1]
10004c64:	9003      	str	r0, [sp, #12]
10004c66:	bd07      	pop	{r0, r1, r2, pc}
10004c68:	20001724 	.word	0x20001724

10004c6c <drsub_shim>:
10004c6c:	b40f      	push	{r0, r1, r2, r3}
10004c6e:	bc03      	pop	{r0, r1}
10004c70:	bc0c      	pop	{r2, r3}

10004c72 <dsub_shim>:
10004c72:	b5f0      	push	{r4, r5, r6, r7, lr}
10004c74:	2401      	movs	r4, #1
10004c76:	07e4      	lsls	r4, r4, #31
10004c78:	4063      	eors	r3, r4
10004c7a:	e000      	b.n	10004c7e <da_entry>

10004c7c <dadd_shim>:
10004c7c:	b5f0      	push	{r4, r5, r6, r7, lr}

10004c7e <da_entry>:
10004c7e:	0d0c      	lsrs	r4, r1, #20
10004c80:	0fcf      	lsrs	r7, r1, #31
10004c82:	1e66      	subs	r6, r4, #1
10004c84:	0536      	lsls	r6, r6, #20
10004c86:	1b89      	subs	r1, r1, r6
10004c88:	0564      	lsls	r4, r4, #21
10004c8a:	d303      	bcc.n	10004c94 <l7_1>
10004c8c:	43c9      	mvns	r1, r1
10004c8e:	4240      	negs	r0, r0
10004c90:	d300      	bcc.n	10004c94 <l7_1>
10004c92:	3101      	adds	r1, #1

10004c94 <l7_1>:
10004c94:	0d64      	lsrs	r4, r4, #21
10004c96:	d003      	beq.n	10004ca0 <l7_2>
10004c98:	1c66      	adds	r6, r4, #1
10004c9a:	0af6      	lsrs	r6, r6, #11
10004c9c:	d007      	beq.n	10004cae <l7_3>
10004c9e:	1be4      	subs	r4, r4, r7

10004ca0 <l7_2>:
10004ca0:	2000      	movs	r0, #0
10004ca2:	007f      	lsls	r7, r7, #1
10004ca4:	1c79      	adds	r1, r7, #1
10004ca6:	0789      	lsls	r1, r1, #30
10004ca8:	1289      	asrs	r1, r1, #10
10004caa:	3c80      	subs	r4, #128	; 0x80
10004cac:	0324      	lsls	r4, r4, #12

10004cae <l7_3>:
10004cae:	0d1d      	lsrs	r5, r3, #20
10004cb0:	0fdf      	lsrs	r7, r3, #31
10004cb2:	1e6e      	subs	r6, r5, #1
10004cb4:	0536      	lsls	r6, r6, #20
10004cb6:	1b9b      	subs	r3, r3, r6
10004cb8:	056d      	lsls	r5, r5, #21
10004cba:	d303      	bcc.n	10004cc4 <l8_1>
10004cbc:	43db      	mvns	r3, r3
10004cbe:	4252      	negs	r2, r2
10004cc0:	d300      	bcc.n	10004cc4 <l8_1>
10004cc2:	3301      	adds	r3, #1

10004cc4 <l8_1>:
10004cc4:	0d6d      	lsrs	r5, r5, #21
10004cc6:	d003      	beq.n	10004cd0 <l8_2>
10004cc8:	1c6e      	adds	r6, r5, #1
10004cca:	0af6      	lsrs	r6, r6, #11
10004ccc:	d007      	beq.n	10004cde <l8_3>
10004cce:	1bed      	subs	r5, r5, r7

10004cd0 <l8_2>:
10004cd0:	2200      	movs	r2, #0
10004cd2:	007f      	lsls	r7, r7, #1
10004cd4:	1c7b      	adds	r3, r7, #1
10004cd6:	079b      	lsls	r3, r3, #30
10004cd8:	129b      	asrs	r3, r3, #10
10004cda:	3d80      	subs	r5, #128	; 0x80
10004cdc:	032d      	lsls	r5, r5, #12

10004cde <l8_3>:
10004cde:	1b2f      	subs	r7, r5, r4
10004ce0:	1b66      	subs	r6, r4, r5
10004ce2:	d458      	bmi.n	10004d96 <da_ygtx>
10004ce4:	46a4      	mov	ip, r4
10004ce6:	2e20      	cmp	r6, #32
10004ce8:	da46      	bge.n	10004d78 <da_xrgty>
10004cea:	3720      	adds	r7, #32
10004cec:	0014      	movs	r4, r2
10004cee:	40bc      	lsls	r4, r7

10004cf0 <da_xgty0>:
10004cf0:	001d      	movs	r5, r3
10004cf2:	40bd      	lsls	r5, r7
10004cf4:	40f2      	lsrs	r2, r6
10004cf6:	4133      	asrs	r3, r6
10004cf8:	432a      	orrs	r2, r5

10004cfa <da_add>:
10004cfa:	1880      	adds	r0, r0, r2
10004cfc:	4159      	adcs	r1, r3

10004cfe <da_pack>:
10004cfe:	0fcb      	lsrs	r3, r1, #31
10004d00:	d005      	beq.n	10004d0e <da_pack+0x10>
10004d02:	43c9      	mvns	r1, r1
10004d04:	43c0      	mvns	r0, r0
10004d06:	2200      	movs	r2, #0
10004d08:	4264      	negs	r4, r4
10004d0a:	4150      	adcs	r0, r2
10004d0c:	4151      	adcs	r1, r2
10004d0e:	4662      	mov	r2, ip
10004d10:	0d4d      	lsrs	r5, r1, #21
10004d12:	d128      	bne.n	10004d66 <da_0>
10004d14:	0d0d      	lsrs	r5, r1, #20
10004d16:	d107      	bne.n	10004d28 <da_1>
10004d18:	2800      	cmp	r0, #0
10004d1a:	d01f      	beq.n	10004d5c <da_5>

10004d1c <da_2>:
10004d1c:	1924      	adds	r4, r4, r4
10004d1e:	4140      	adcs	r0, r0
10004d20:	4149      	adcs	r1, r1
10004d22:	3a01      	subs	r2, #1
10004d24:	0d0d      	lsrs	r5, r1, #20
10004d26:	d0f9      	beq.n	10004d1c <da_2>

10004d28 <da_1>:
10004d28:	0064      	lsls	r4, r4, #1
10004d2a:	d306      	bcc.n	10004d3a <da_3>

10004d2c <da_4>:
10004d2c:	3001      	adds	r0, #1
10004d2e:	d300      	bcc.n	10004d32 <da_4+0x6>
10004d30:	3101      	adds	r1, #1
10004d32:	2c00      	cmp	r4, #0
10004d34:	d101      	bne.n	10004d3a <da_3>
10004d36:	0840      	lsrs	r0, r0, #1
10004d38:	0040      	lsls	r0, r0, #1

10004d3a <da_3>:
10004d3a:	3a01      	subs	r2, #1
10004d3c:	d40b      	bmi.n	10004d56 <da_6>
10004d3e:	1c94      	adds	r4, r2, #2
10004d40:	0ae4      	lsrs	r4, r4, #11
10004d42:	d104      	bne.n	10004d4e <da_7>
10004d44:	0512      	lsls	r2, r2, #20
10004d46:	4411      	add	r1, r2
10004d48:	07db      	lsls	r3, r3, #31
10004d4a:	4419      	add	r1, r3
10004d4c:	bdf0      	pop	{r4, r5, r6, r7, pc}

10004d4e <da_7>:
10004d4e:	07d9      	lsls	r1, r3, #31
10004d50:	4b20      	ldr	r3, [pc, #128]	; (10004dd4 <da_xmgty+0x4>)
10004d52:	4319      	orrs	r1, r3
10004d54:	e000      	b.n	10004d58 <da_6+0x2>

10004d56 <da_6>:
10004d56:	07d9      	lsls	r1, r3, #31
10004d58:	2000      	movs	r0, #0
10004d5a:	bdf0      	pop	{r4, r5, r6, r7, pc}

10004d5c <da_5>:
10004d5c:	2900      	cmp	r1, #0
10004d5e:	d1dd      	bne.n	10004d1c <da_2>
10004d60:	2c00      	cmp	r4, #0
10004d62:	d1db      	bne.n	10004d1c <da_2>
10004d64:	bdf0      	pop	{r4, r5, r6, r7, pc}

10004d66 <da_0>:
10004d66:	3201      	adds	r2, #1
10004d68:	07c6      	lsls	r6, r0, #31
10004d6a:	0840      	lsrs	r0, r0, #1
10004d6c:	07cd      	lsls	r5, r1, #31
10004d6e:	4328      	orrs	r0, r5
10004d70:	0849      	lsrs	r1, r1, #1
10004d72:	2e00      	cmp	r6, #0
10004d74:	d0e1      	beq.n	10004d3a <da_3>
10004d76:	e7d9      	b.n	10004d2c <da_4>

10004d78 <da_xrgty>:
10004d78:	2e3c      	cmp	r6, #60	; 0x3c
10004d7a:	da29      	bge.n	10004dd0 <da_xmgty>
10004d7c:	3e20      	subs	r6, #32
10004d7e:	3740      	adds	r7, #64	; 0x40
10004d80:	0014      	movs	r4, r2
10004d82:	40bc      	lsls	r4, r7
10004d84:	d000      	beq.n	10004d88 <da_xrgty+0x10>
10004d86:	2401      	movs	r4, #1
10004d88:	40f2      	lsrs	r2, r6
10004d8a:	4314      	orrs	r4, r2
10004d8c:	001a      	movs	r2, r3
10004d8e:	40bb      	lsls	r3, r7
10004d90:	431c      	orrs	r4, r3
10004d92:	17d3      	asrs	r3, r2, #31
10004d94:	e7ac      	b.n	10004cf0 <da_xgty0>

10004d96 <da_ygtx>:
10004d96:	46ac      	mov	ip, r5
10004d98:	2f20      	cmp	r7, #32
10004d9a:	da08      	bge.n	10004dae <da_yrgtx>
10004d9c:	3620      	adds	r6, #32
10004d9e:	0004      	movs	r4, r0
10004da0:	40b4      	lsls	r4, r6

10004da2 <da_ygtx0>:
10004da2:	000d      	movs	r5, r1
10004da4:	40b5      	lsls	r5, r6
10004da6:	40f8      	lsrs	r0, r7
10004da8:	4139      	asrs	r1, r7
10004daa:	4328      	orrs	r0, r5
10004dac:	e7a5      	b.n	10004cfa <da_add>

10004dae <da_yrgtx>:
10004dae:	2f3c      	cmp	r7, #60	; 0x3c
10004db0:	da0c      	bge.n	10004dcc <da_ymgtx>
10004db2:	3f20      	subs	r7, #32
10004db4:	3640      	adds	r6, #64	; 0x40
10004db6:	0004      	movs	r4, r0
10004db8:	40b4      	lsls	r4, r6
10004dba:	d000      	beq.n	10004dbe <da_yrgtx+0x10>
10004dbc:	2401      	movs	r4, #1
10004dbe:	40f8      	lsrs	r0, r7
10004dc0:	4304      	orrs	r4, r0
10004dc2:	0008      	movs	r0, r1
10004dc4:	40b1      	lsls	r1, r6
10004dc6:	430c      	orrs	r4, r1
10004dc8:	17c1      	asrs	r1, r0, #31
10004dca:	e7ea      	b.n	10004da2 <da_ygtx0>

10004dcc <da_ymgtx>:
10004dcc:	0010      	movs	r0, r2
10004dce:	0019      	movs	r1, r3

10004dd0 <da_xmgty>:
10004dd0:	2400      	movs	r4, #0
10004dd2:	e794      	b.n	10004cfe <da_pack>
10004dd4:	7ff00000 	.word	0x7ff00000

10004dd8 <dmul_shim>:
10004dd8:	b5f0      	push	{r4, r5, r6, r7, lr}
10004dda:	0d0c      	lsrs	r4, r1, #20
10004ddc:	1e66      	subs	r6, r4, #1
10004dde:	0536      	lsls	r6, r6, #20
10004de0:	1b89      	subs	r1, r1, r6
10004de2:	0ae6      	lsrs	r6, r4, #11
10004de4:	0564      	lsls	r4, r4, #21
10004de6:	0d64      	lsrs	r4, r4, #21
10004de8:	d002      	beq.n	10004df0 <l11_1>
10004dea:	1c65      	adds	r5, r4, #1
10004dec:	0aed      	lsrs	r5, r5, #11
10004dee:	d004      	beq.n	10004dfa <l11_2>

10004df0 <l11_1>:
10004df0:	2000      	movs	r0, #0
10004df2:	2101      	movs	r1, #1
10004df4:	0509      	lsls	r1, r1, #20
10004df6:	3c80      	subs	r4, #128	; 0x80
10004df8:	0324      	lsls	r4, r4, #12

10004dfa <l11_2>:
10004dfa:	46a4      	mov	ip, r4
10004dfc:	0d1c      	lsrs	r4, r3, #20
10004dfe:	1e67      	subs	r7, r4, #1
10004e00:	053f      	lsls	r7, r7, #20
10004e02:	1bdb      	subs	r3, r3, r7
10004e04:	0ae7      	lsrs	r7, r4, #11
10004e06:	0564      	lsls	r4, r4, #21
10004e08:	0d64      	lsrs	r4, r4, #21
10004e0a:	d002      	beq.n	10004e12 <l12_1>
10004e0c:	1c65      	adds	r5, r4, #1
10004e0e:	0aed      	lsrs	r5, r5, #11
10004e10:	d004      	beq.n	10004e1c <l12_2>

10004e12 <l12_1>:
10004e12:	2200      	movs	r2, #0
10004e14:	2301      	movs	r3, #1
10004e16:	051b      	lsls	r3, r3, #20
10004e18:	3c80      	subs	r4, #128	; 0x80
10004e1a:	0324      	lsls	r4, r4, #12

10004e1c <l12_2>:
10004e1c:	4077      	eors	r7, r6
10004e1e:	4464      	add	r4, ip
10004e20:	b497      	push	{r0, r1, r2, r4, r7}
10004e22:	b284      	uxth	r4, r0
10004e24:	b296      	uxth	r6, r2
10004e26:	4374      	muls	r4, r6
10004e28:	0c07      	lsrs	r7, r0, #16
10004e2a:	437e      	muls	r6, r7
10004e2c:	0c15      	lsrs	r5, r2, #16
10004e2e:	436f      	muls	r7, r5
10004e30:	b280      	uxth	r0, r0
10004e32:	4368      	muls	r0, r5
10004e34:	1836      	adds	r6, r6, r0
10004e36:	d302      	bcc.n	10004e3e <l13_1>
10004e38:	2001      	movs	r0, #1
10004e3a:	0400      	lsls	r0, r0, #16
10004e3c:	183f      	adds	r7, r7, r0

10004e3e <l13_1>:
10004e3e:	0430      	lsls	r0, r6, #16
10004e40:	0c35      	lsrs	r5, r6, #16
10004e42:	1900      	adds	r0, r0, r4
10004e44:	417d      	adcs	r5, r7
10004e46:	4684      	mov	ip, r0
10004e48:	b288      	uxth	r0, r1
10004e4a:	b29a      	uxth	r2, r3
10004e4c:	4350      	muls	r0, r2
10004e4e:	0c0c      	lsrs	r4, r1, #16
10004e50:	4362      	muls	r2, r4
10004e52:	0c1f      	lsrs	r7, r3, #16
10004e54:	437c      	muls	r4, r7
10004e56:	b28e      	uxth	r6, r1
10004e58:	437e      	muls	r6, r7
10004e5a:	1992      	adds	r2, r2, r6
10004e5c:	d302      	bcc.n	10004e64 <l14_1>
10004e5e:	2601      	movs	r6, #1
10004e60:	0436      	lsls	r6, r6, #16
10004e62:	19a4      	adds	r4, r4, r6

10004e64 <l14_1>:
10004e64:	0416      	lsls	r6, r2, #16
10004e66:	0c17      	lsrs	r7, r2, #16
10004e68:	1836      	adds	r6, r6, r0
10004e6a:	4167      	adcs	r7, r4
10004e6c:	bc01      	pop	{r0}
10004e6e:	b281      	uxth	r1, r0
10004e70:	b29a      	uxth	r2, r3
10004e72:	4351      	muls	r1, r2
10004e74:	0c04      	lsrs	r4, r0, #16
10004e76:	4362      	muls	r2, r4
10004e78:	0c1b      	lsrs	r3, r3, #16
10004e7a:	435c      	muls	r4, r3
10004e7c:	b280      	uxth	r0, r0
10004e7e:	4358      	muls	r0, r3
10004e80:	1812      	adds	r2, r2, r0
10004e82:	d302      	bcc.n	10004e8a <l15_1>
10004e84:	2001      	movs	r0, #1
10004e86:	0400      	lsls	r0, r0, #16
10004e88:	1824      	adds	r4, r4, r0

10004e8a <l15_1>:
10004e8a:	0410      	lsls	r0, r2, #16
10004e8c:	0c13      	lsrs	r3, r2, #16
10004e8e:	1840      	adds	r0, r0, r1
10004e90:	4163      	adcs	r3, r4
10004e92:	182d      	adds	r5, r5, r0
10004e94:	415e      	adcs	r6, r3
10004e96:	2000      	movs	r0, #0
10004e98:	4147      	adcs	r7, r0
10004e9a:	bc06      	pop	{r1, r2}
10004e9c:	b288      	uxth	r0, r1
10004e9e:	b293      	uxth	r3, r2
10004ea0:	4358      	muls	r0, r3
10004ea2:	0c0c      	lsrs	r4, r1, #16
10004ea4:	4363      	muls	r3, r4
10004ea6:	0c12      	lsrs	r2, r2, #16
10004ea8:	4354      	muls	r4, r2
10004eaa:	b289      	uxth	r1, r1
10004eac:	4351      	muls	r1, r2
10004eae:	185b      	adds	r3, r3, r1
10004eb0:	d302      	bcc.n	10004eb8 <l16_1>
10004eb2:	2101      	movs	r1, #1
10004eb4:	0409      	lsls	r1, r1, #16
10004eb6:	1864      	adds	r4, r4, r1

10004eb8 <l16_1>:
10004eb8:	0419      	lsls	r1, r3, #16
10004eba:	0c1a      	lsrs	r2, r3, #16
10004ebc:	1809      	adds	r1, r1, r0
10004ebe:	4162      	adcs	r2, r4
10004ec0:	186d      	adds	r5, r5, r1
10004ec2:	4156      	adcs	r6, r2
10004ec4:	2000      	movs	r0, #0
10004ec6:	4147      	adcs	r7, r0
10004ec8:	bc18      	pop	{r3, r4}
10004eca:	02f9      	lsls	r1, r7, #11
10004ecc:	0d72      	lsrs	r2, r6, #21
10004ece:	4311      	orrs	r1, r2
10004ed0:	02f0      	lsls	r0, r6, #11
10004ed2:	0d6a      	lsrs	r2, r5, #21
10004ed4:	4310      	orrs	r0, r2
10004ed6:	02ed      	lsls	r5, r5, #11
10004ed8:	0d0a      	lsrs	r2, r1, #20
10004eda:	d103      	bne.n	10004ee4 <l16_1+0x2c>
10004edc:	196d      	adds	r5, r5, r5
10004ede:	4140      	adcs	r0, r0
10004ee0:	4149      	adcs	r1, r1
10004ee2:	3b01      	subs	r3, #1
10004ee4:	4e12      	ldr	r6, [pc, #72]	; (10004f30 <dm_1+0xa>)
10004ee6:	1b9b      	subs	r3, r3, r6
10004ee8:	0076      	lsls	r6, r6, #1
10004eea:	42b3      	cmp	r3, r6
10004eec:	d20e      	bcs.n	10004f0c <dm_0>
10004eee:	006d      	lsls	r5, r5, #1
10004ef0:	d307      	bcc.n	10004f02 <l16_1+0x4a>
10004ef2:	3001      	adds	r0, #1
10004ef4:	2600      	movs	r6, #0
10004ef6:	4171      	adcs	r1, r6
10004ef8:	4666      	mov	r6, ip
10004efa:	4335      	orrs	r5, r6
10004efc:	d101      	bne.n	10004f02 <l16_1+0x4a>
10004efe:	0840      	lsrs	r0, r0, #1
10004f00:	0040      	lsls	r0, r0, #1
10004f02:	051b      	lsls	r3, r3, #20
10004f04:	18c9      	adds	r1, r1, r3

10004f06 <dm_2>:
10004f06:	07e4      	lsls	r4, r4, #31
10004f08:	4421      	add	r1, r4
10004f0a:	bdf0      	pop	{r4, r5, r6, r7, pc}

10004f0c <dm_0>:
10004f0c:	da0b      	bge.n	10004f26 <dm_1>
10004f0e:	3301      	adds	r3, #1
10004f10:	d106      	bne.n	10004f20 <dm_0+0x14>
10004f12:	3001      	adds	r0, #1
10004f14:	d104      	bne.n	10004f20 <dm_0+0x14>
10004f16:	3101      	adds	r1, #1
10004f18:	0d4f      	lsrs	r7, r1, #21
10004f1a:	d001      	beq.n	10004f20 <dm_0+0x14>
10004f1c:	0849      	lsrs	r1, r1, #1
10004f1e:	e7f2      	b.n	10004f06 <dm_2>
10004f20:	07e1      	lsls	r1, r4, #31
10004f22:	2000      	movs	r0, #0
10004f24:	bdf0      	pop	{r4, r5, r6, r7, pc}

10004f26 <dm_1>:
10004f26:	3601      	adds	r6, #1
10004f28:	0531      	lsls	r1, r6, #20
10004f2a:	2000      	movs	r0, #0
10004f2c:	e7eb      	b.n	10004f06 <dm_2>
10004f2e:	0000      	.short	0x0000
10004f30:	000003ff 	.word	0x000003ff

10004f34 <ddiv_shim>:
10004f34:	b5f0      	push	{r4, r5, r6, r7, lr}

10004f36 <ddiv0>:
10004f36:	0d1c      	lsrs	r4, r3, #20
10004f38:	1e67      	subs	r7, r4, #1
10004f3a:	053f      	lsls	r7, r7, #20
10004f3c:	1bdb      	subs	r3, r3, r7
10004f3e:	0ae7      	lsrs	r7, r4, #11
10004f40:	0564      	lsls	r4, r4, #21
10004f42:	0d64      	lsrs	r4, r4, #21
10004f44:	d002      	beq.n	10004f4c <l19_1>
10004f46:	1c66      	adds	r6, r4, #1
10004f48:	0af6      	lsrs	r6, r6, #11
10004f4a:	d004      	beq.n	10004f56 <l19_2>

10004f4c <l19_1>:
10004f4c:	2200      	movs	r2, #0
10004f4e:	2301      	movs	r3, #1
10004f50:	051b      	lsls	r3, r3, #20
10004f52:	3c80      	subs	r4, #128	; 0x80
10004f54:	0324      	lsls	r4, r4, #12

10004f56 <l19_2>:
10004f56:	25d0      	movs	r5, #208	; 0xd0
10004f58:	062d      	lsls	r5, r5, #24
10004f5a:	2600      	movs	r6, #0
10004f5c:	43f6      	mvns	r6, r6
10004f5e:	662e      	str	r6, [r5, #96]	; 0x60
10004f60:	091e      	lsrs	r6, r3, #4
10004f62:	666e      	str	r6, [r5, #100]	; 0x64
10004f64:	0fce      	lsrs	r6, r1, #31
10004f66:	19f6      	adds	r6, r6, r7
10004f68:	46b4      	mov	ip, r6
10004f6a:	0049      	lsls	r1, r1, #1
10004f6c:	0d4f      	lsrs	r7, r1, #21
10004f6e:	d002      	beq.n	10004f76 <l19_2+0x20>
10004f70:	1c7e      	adds	r6, r7, #1
10004f72:	0af6      	lsrs	r6, r6, #11
10004f74:	d003      	beq.n	10004f7e <l19_2+0x28>
10004f76:	2000      	movs	r0, #0
10004f78:	2100      	movs	r1, #0
10004f7a:	3f40      	subs	r7, #64	; 0x40
10004f7c:	033f      	lsls	r7, r7, #12
10004f7e:	1b3e      	subs	r6, r7, r4
10004f80:	00b6      	lsls	r6, r6, #2
10004f82:	44b4      	add	ip, r6
10004f84:	3f01      	subs	r7, #1
10004f86:	057f      	lsls	r7, r7, #21
10004f88:	1bc9      	subs	r1, r1, r7
10004f8a:	0849      	lsrs	r1, r1, #1
10004f8c:	6f2e      	ldr	r6, [r5, #112]	; 0x70
10004f8e:	3601      	adds	r6, #1
10004f90:	0876      	lsrs	r6, r6, #1
10004f92:	029c      	lsls	r4, r3, #10
10004f94:	0d95      	lsrs	r5, r2, #22
10004f96:	4325      	orrs	r5, r4
10004f98:	4375      	muls	r5, r6
10004f9a:	13ed      	asrs	r5, r5, #15
10004f9c:	4375      	muls	r5, r6
10004f9e:	13ad      	asrs	r5, r5, #14
10004fa0:	3501      	adds	r5, #1
10004fa2:	106d      	asrs	r5, r5, #1
10004fa4:	03f6      	lsls	r6, r6, #15
10004fa6:	1b76      	subs	r6, r6, r5
10004fa8:	b40c      	push	{r2, r3}
10004faa:	02cc      	lsls	r4, r1, #11
10004fac:	0d45      	lsrs	r5, r0, #21
10004fae:	432c      	orrs	r4, r5
10004fb0:	b2a2      	uxth	r2, r4
10004fb2:	b2b3      	uxth	r3, r6
10004fb4:	435a      	muls	r2, r3
10004fb6:	0c27      	lsrs	r7, r4, #16
10004fb8:	437b      	muls	r3, r7
10004fba:	0c35      	lsrs	r5, r6, #16
10004fbc:	436f      	muls	r7, r5
10004fbe:	b2a4      	uxth	r4, r4
10004fc0:	436c      	muls	r4, r5
10004fc2:	191b      	adds	r3, r3, r4
10004fc4:	d302      	bcc.n	10004fcc <l20_1>
10004fc6:	2401      	movs	r4, #1
10004fc8:	0424      	lsls	r4, r4, #16
10004fca:	193f      	adds	r7, r7, r4

10004fcc <l20_1>:
10004fcc:	041c      	lsls	r4, r3, #16
10004fce:	0c1d      	lsrs	r5, r3, #16
10004fd0:	18a4      	adds	r4, r4, r2
10004fd2:	417d      	adcs	r5, r7
10004fd4:	1924      	adds	r4, r4, r4
10004fd6:	416d      	adcs	r5, r5
10004fd8:	9a00      	ldr	r2, [sp, #0]
10004fda:	b291      	uxth	r1, r2
10004fdc:	b2ac      	uxth	r4, r5
10004fde:	4361      	muls	r1, r4
10004fe0:	0c17      	lsrs	r7, r2, #16
10004fe2:	437c      	muls	r4, r7
10004fe4:	0c2b      	lsrs	r3, r5, #16
10004fe6:	435f      	muls	r7, r3
10004fe8:	b292      	uxth	r2, r2
10004fea:	435a      	muls	r2, r3
10004fec:	18a4      	adds	r4, r4, r2
10004fee:	d302      	bcc.n	10004ff6 <l21_1>
10004ff0:	2201      	movs	r2, #1
10004ff2:	0412      	lsls	r2, r2, #16
10004ff4:	18bf      	adds	r7, r7, r2

10004ff6 <l21_1>:
10004ff6:	0422      	lsls	r2, r4, #16
10004ff8:	0c23      	lsrs	r3, r4, #16
10004ffa:	1852      	adds	r2, r2, r1
10004ffc:	417b      	adcs	r3, r7
10004ffe:	9c01      	ldr	r4, [sp, #4]
10005000:	436c      	muls	r4, r5
10005002:	191b      	adds	r3, r3, r4
10005004:	0e52      	lsrs	r2, r2, #25
10005006:	01d9      	lsls	r1, r3, #7
10005008:	430a      	orrs	r2, r1
1000500a:	0144      	lsls	r4, r0, #5
1000500c:	1aa0      	subs	r0, r4, r2
1000500e:	b281      	uxth	r1, r0
10005010:	b2b2      	uxth	r2, r6
10005012:	4351      	muls	r1, r2
10005014:	1403      	asrs	r3, r0, #16
10005016:	435a      	muls	r2, r3
10005018:	0c36      	lsrs	r6, r6, #16
1000501a:	4373      	muls	r3, r6
1000501c:	b287      	uxth	r7, r0
1000501e:	4377      	muls	r7, r6
10005020:	17d6      	asrs	r6, r2, #31
10005022:	19d2      	adds	r2, r2, r7
10005024:	2700      	movs	r7, #0
10005026:	417e      	adcs	r6, r7
10005028:	0436      	lsls	r6, r6, #16
1000502a:	199b      	adds	r3, r3, r6
1000502c:	0417      	lsls	r7, r2, #16
1000502e:	0c16      	lsrs	r6, r2, #16
10005030:	187f      	adds	r7, r7, r1
10005032:	415e      	adcs	r6, r3
10005034:	1673      	asrs	r3, r6, #25
10005036:	18ed      	adds	r5, r5, r3
10005038:	01f3      	lsls	r3, r6, #7
1000503a:	2600      	movs	r6, #0
1000503c:	3380      	adds	r3, #128	; 0x80
1000503e:	4175      	adcs	r5, r6
10005040:	0fa9      	lsrs	r1, r5, #30
10005042:	d106      	bne.n	10005052 <dd_0>
10005044:	0064      	lsls	r4, r4, #1
10005046:	0a69      	lsrs	r1, r5, #9
10005048:	05e8      	lsls	r0, r5, #23
1000504a:	0a5b      	lsrs	r3, r3, #9
1000504c:	4318      	orrs	r0, r3
1000504e:	d209      	bcs.n	10005064 <dd_1>
10005050:	e02f      	b.n	100050b2 <dd_2>

10005052 <dd_0>:
10005052:	2204      	movs	r2, #4
10005054:	4494      	add	ip, r2
10005056:	3380      	adds	r3, #128	; 0x80
10005058:	4175      	adcs	r5, r6
1000505a:	0aa9      	lsrs	r1, r5, #10
1000505c:	05a8      	lsls	r0, r5, #22
1000505e:	0a9b      	lsrs	r3, r3, #10
10005060:	4318      	orrs	r0, r3
10005062:	d326      	bcc.n	100050b2 <dd_2>

10005064 <dd_1>:
10005064:	4140      	adcs	r0, r0
10005066:	4149      	adcs	r1, r1
10005068:	0424      	lsls	r4, r4, #16
1000506a:	9a00      	ldr	r2, [sp, #0]
1000506c:	9b01      	ldr	r3, [sp, #4]
1000506e:	000d      	movs	r5, r1
10005070:	4355      	muls	r5, r2
10005072:	1b64      	subs	r4, r4, r5
10005074:	4343      	muls	r3, r0
10005076:	1ae4      	subs	r4, r4, r3
10005078:	b295      	uxth	r5, r2
1000507a:	b286      	uxth	r6, r0
1000507c:	4375      	muls	r5, r6
1000507e:	0c17      	lsrs	r7, r2, #16
10005080:	437e      	muls	r6, r7
10005082:	0c03      	lsrs	r3, r0, #16
10005084:	435f      	muls	r7, r3
10005086:	b292      	uxth	r2, r2
10005088:	435a      	muls	r2, r3
1000508a:	18b6      	adds	r6, r6, r2
1000508c:	d302      	bcc.n	10005094 <l23_1>
1000508e:	2201      	movs	r2, #1
10005090:	0412      	lsls	r2, r2, #16
10005092:	18bf      	adds	r7, r7, r2

10005094 <l23_1>:
10005094:	0432      	lsls	r2, r6, #16
10005096:	0c33      	lsrs	r3, r6, #16
10005098:	1952      	adds	r2, r2, r5
1000509a:	417b      	adcs	r3, r7
1000509c:	4252      	negs	r2, r2
1000509e:	419c      	sbcs	r4, r3
100050a0:	2c00      	cmp	r4, #0
100050a2:	d402      	bmi.n	100050aa <l23_1+0x16>
100050a4:	2200      	movs	r2, #0
100050a6:	3001      	adds	r0, #1
100050a8:	4151      	adcs	r1, r2
100050aa:	0840      	lsrs	r0, r0, #1
100050ac:	07ca      	lsls	r2, r1, #31
100050ae:	4310      	orrs	r0, r2
100050b0:	0849      	lsrs	r1, r1, #1

100050b2 <dd_2>:
100050b2:	b002      	add	sp, #8
100050b4:	4662      	mov	r2, ip
100050b6:	07d7      	lsls	r7, r2, #31
100050b8:	1092      	asrs	r2, r2, #2
100050ba:	4b08      	ldr	r3, [pc, #32]	; (100050dc <dd_4+0x6>)
100050bc:	18d2      	adds	r2, r2, r3
100050be:	4b08      	ldr	r3, [pc, #32]	; (100050e0 <dd_4+0xa>)
100050c0:	429a      	cmp	r2, r3
100050c2:	d203      	bcs.n	100050cc <dd_3>
100050c4:	0512      	lsls	r2, r2, #20
100050c6:	1889      	adds	r1, r1, r2

100050c8 <dd_5>:
100050c8:	19c9      	adds	r1, r1, r7
100050ca:	bdf0      	pop	{r4, r5, r6, r7, pc}

100050cc <dd_3>:
100050cc:	2000      	movs	r0, #0
100050ce:	2a00      	cmp	r2, #0
100050d0:	dc01      	bgt.n	100050d6 <dd_4>
100050d2:	0039      	movs	r1, r7
100050d4:	bdf0      	pop	{r4, r5, r6, r7, pc}

100050d6 <dd_4>:
100050d6:	3301      	adds	r3, #1
100050d8:	0519      	lsls	r1, r3, #20
100050da:	e7f5      	b.n	100050c8 <dd_5>
100050dc:	000003fd 	.word	0x000003fd
100050e0:	000007fe 	.word	0x000007fe

100050e4 <dcordic_rot_step>:
100050e4:	4662      	mov	r2, ip
100050e6:	ca18      	ldmia	r2!, {r3, r4}
100050e8:	4694      	mov	ip, r2
100050ea:	2900      	cmp	r1, #0
100050ec:	da1a      	bge.n	10005124 <dcordic_rot_step+0x40>
100050ee:	18c0      	adds	r0, r0, r3
100050f0:	4161      	adcs	r1, r4
100050f2:	465b      	mov	r3, fp
100050f4:	413b      	asrs	r3, r7
100050f6:	465c      	mov	r4, fp
100050f8:	40b4      	lsls	r4, r6
100050fa:	4652      	mov	r2, sl
100050fc:	40fa      	lsrs	r2, r7
100050fe:	4322      	orrs	r2, r4
10005100:	4644      	mov	r4, r8
10005102:	464d      	mov	r5, r9
10005104:	4162      	adcs	r2, r4
10005106:	416b      	adcs	r3, r5
10005108:	4690      	mov	r8, r2
1000510a:	4699      	mov	r9, r3
1000510c:	462b      	mov	r3, r5
1000510e:	40b3      	lsls	r3, r6
10005110:	413d      	asrs	r5, r7
10005112:	40fc      	lsrs	r4, r7
10005114:	431c      	orrs	r4, r3
10005116:	4652      	mov	r2, sl
10005118:	465b      	mov	r3, fp
1000511a:	41a2      	sbcs	r2, r4
1000511c:	41ab      	sbcs	r3, r5
1000511e:	4692      	mov	sl, r2
10005120:	469b      	mov	fp, r3
10005122:	4770      	bx	lr
10005124:	1ac0      	subs	r0, r0, r3
10005126:	41a1      	sbcs	r1, r4
10005128:	464b      	mov	r3, r9
1000512a:	413b      	asrs	r3, r7
1000512c:	464c      	mov	r4, r9
1000512e:	40b4      	lsls	r4, r6
10005130:	4642      	mov	r2, r8
10005132:	40fa      	lsrs	r2, r7
10005134:	4322      	orrs	r2, r4
10005136:	4654      	mov	r4, sl
10005138:	465d      	mov	r5, fp
1000513a:	4162      	adcs	r2, r4
1000513c:	416b      	adcs	r3, r5
1000513e:	4692      	mov	sl, r2
10005140:	469b      	mov	fp, r3
10005142:	462b      	mov	r3, r5
10005144:	40b3      	lsls	r3, r6
10005146:	413d      	asrs	r5, r7
10005148:	40fc      	lsrs	r4, r7
1000514a:	431c      	orrs	r4, r3
1000514c:	4642      	mov	r2, r8
1000514e:	464b      	mov	r3, r9
10005150:	41a2      	sbcs	r2, r4
10005152:	41ab      	sbcs	r3, r5
10005154:	4690      	mov	r8, r2
10005156:	4699      	mov	r9, r3
10005158:	4770      	bx	lr

1000515a <ret_dzero>:
1000515a:	2000      	movs	r0, #0
1000515c:	2100      	movs	r1, #0
1000515e:	4770      	bx	lr

10005160 <double2uint_shim>:
10005160:	2200      	movs	r2, #0

10005162 <double2ufix_shim>:
10005162:	b500      	push	{lr}
10005164:	3220      	adds	r2, #32
10005166:	f000 f804 	bl	10005172 <double2ufix64_shim>
1000516a:	0008      	movs	r0, r1
1000516c:	bd00      	pop	{pc}
	...

10005170 <double2uint64_shim>:
10005170:	2200      	movs	r2, #0

10005172 <double2ufix64_shim>:
10005172:	150b      	asrs	r3, r1, #20
10005174:	d4f1      	bmi.n	1000515a <ret_dzero>

10005176 <d2fix>:
10005176:	b510      	push	{r4, lr}
10005178:	4694      	mov	ip, r2
1000517a:	f000 f85d 	bl	10005238 <dunpacks>
1000517e:	1414      	asrs	r4, r2, #16
10005180:	3401      	adds	r4, #1
10005182:	da00      	bge.n	10005186 <d2fix+0x10>
10005184:	2100      	movs	r1, #0
10005186:	17cb      	asrs	r3, r1, #31
10005188:	4c13      	ldr	r4, [pc, #76]	; (100051d8 <d2fix_a+0x4c>)
1000518a:	4720      	bx	r4

1000518c <d2fix_a>:
1000518c:	4462      	add	r2, ip
1000518e:	3a34      	subs	r2, #52	; 0x34
10005190:	d40c      	bmi.n	100051ac <d2fix_a+0x20>
10005192:	2a0c      	cmp	r2, #12
10005194:	da07      	bge.n	100051a6 <d2fix_a+0x1a>
10005196:	0004      	movs	r4, r0
10005198:	4091      	lsls	r1, r2
1000519a:	4090      	lsls	r0, r2
1000519c:	4252      	negs	r2, r2
1000519e:	3220      	adds	r2, #32
100051a0:	40d4      	lsrs	r4, r2
100051a2:	4321      	orrs	r1, r4
100051a4:	bd10      	pop	{r4, pc}
100051a6:	43d8      	mvns	r0, r3
100051a8:	43d9      	mvns	r1, r3
100051aa:	bd10      	pop	{r4, pc}
100051ac:	3220      	adds	r2, #32
100051ae:	d407      	bmi.n	100051c0 <d2fix_a+0x34>
100051b0:	460c      	mov	r4, r1
100051b2:	4094      	lsls	r4, r2
100051b4:	4252      	negs	r2, r2
100051b6:	3220      	adds	r2, #32
100051b8:	4111      	asrs	r1, r2
100051ba:	40d0      	lsrs	r0, r2
100051bc:	4320      	orrs	r0, r4
100051be:	bd10      	pop	{r4, pc}
100051c0:	0008      	movs	r0, r1
100051c2:	17c9      	asrs	r1, r1, #31
100051c4:	3220      	adds	r2, #32
100051c6:	d403      	bmi.n	100051d0 <d2fix_a+0x44>
100051c8:	4252      	negs	r2, r2
100051ca:	3220      	adds	r2, #32
100051cc:	4110      	asrs	r0, r2
100051ce:	bd10      	pop	{r4, pc}
100051d0:	0018      	movs	r0, r3
100051d2:	0019      	movs	r1, r3
100051d4:	bd10      	pop	{r4, pc}
100051d6:	0000      	.short	0x0000
100051d8:	1000518d 	.word	0x1000518d

100051dc <double2float_shim>:
100051dc:	004a      	lsls	r2, r1, #1
100051de:	0d52      	lsrs	r2, r2, #21
100051e0:	4b14      	ldr	r3, [pc, #80]	; (10005234 <double2float_shim+0x58>)
100051e2:	1ad2      	subs	r2, r2, r3
100051e4:	dd13      	ble.n	1000520e <double2float_shim+0x32>
100051e6:	2aff      	cmp	r2, #255	; 0xff
100051e8:	da1e      	bge.n	10005228 <double2float_shim+0x4c>
100051ea:	05d2      	lsls	r2, r2, #23
100051ec:	0fcb      	lsrs	r3, r1, #31
100051ee:	07db      	lsls	r3, r3, #31
100051f0:	431a      	orrs	r2, r3
100051f2:	00c3      	lsls	r3, r0, #3
100051f4:	0f40      	lsrs	r0, r0, #29
100051f6:	0309      	lsls	r1, r1, #12
100051f8:	0a49      	lsrs	r1, r1, #9
100051fa:	4308      	orrs	r0, r1
100051fc:	4310      	orrs	r0, r2
100051fe:	005b      	lsls	r3, r3, #1
10005200:	d301      	bcc.n	10005206 <double2float_shim+0x2a>
10005202:	d001      	beq.n	10005208 <double2float_shim+0x2c>
10005204:	3001      	adds	r0, #1
10005206:	4770      	bx	lr
10005208:	0843      	lsrs	r3, r0, #1
1000520a:	d2fb      	bcs.n	10005204 <double2float_shim+0x28>
1000520c:	4770      	bx	lr
1000520e:	d002      	beq.n	10005216 <double2float_shim+0x3a>
10005210:	0fc8      	lsrs	r0, r1, #31
10005212:	07c0      	lsls	r0, r0, #31
10005214:	4770      	bx	lr
10005216:	030a      	lsls	r2, r1, #12
10005218:	1312      	asrs	r2, r2, #12
1000521a:	3201      	adds	r2, #1
1000521c:	d1f8      	bne.n	10005210 <double2float_shim+0x34>
1000521e:	0f42      	lsrs	r2, r0, #29
10005220:	2a07      	cmp	r2, #7
10005222:	d1f5      	bne.n	10005210 <double2float_shim+0x34>
10005224:	2201      	movs	r2, #1
10005226:	e000      	b.n	1000522a <double2float_shim+0x4e>
10005228:	22ff      	movs	r2, #255	; 0xff
1000522a:	0fc8      	lsrs	r0, r1, #31
1000522c:	0200      	lsls	r0, r0, #8
1000522e:	1880      	adds	r0, r0, r2
10005230:	05c0      	lsls	r0, r0, #23
10005232:	4770      	bx	lr
10005234:	00000380 	.word	0x00000380

10005238 <dunpacks>:
10005238:	0d0a      	lsrs	r2, r1, #20
1000523a:	0fcc      	lsrs	r4, r1, #31
1000523c:	1e53      	subs	r3, r2, #1
1000523e:	051b      	lsls	r3, r3, #20
10005240:	1ac9      	subs	r1, r1, r3
10005242:	0552      	lsls	r2, r2, #21
10005244:	d303      	bcc.n	1000524e <l60_1>
10005246:	43c9      	mvns	r1, r1
10005248:	4240      	negs	r0, r0
1000524a:	d300      	bcc.n	1000524e <l60_1>
1000524c:	3101      	adds	r1, #1

1000524e <l60_1>:
1000524e:	0d52      	lsrs	r2, r2, #21
10005250:	d003      	beq.n	1000525a <l60_2>
10005252:	1c53      	adds	r3, r2, #1
10005254:	0adb      	lsrs	r3, r3, #11
10005256:	d007      	beq.n	10005268 <l60_3>
10005258:	1b12      	subs	r2, r2, r4

1000525a <l60_2>:
1000525a:	2000      	movs	r0, #0
1000525c:	0064      	lsls	r4, r4, #1
1000525e:	1c61      	adds	r1, r4, #1
10005260:	0789      	lsls	r1, r1, #30
10005262:	1289      	asrs	r1, r1, #10
10005264:	3a80      	subs	r2, #128	; 0x80
10005266:	0312      	lsls	r2, r2, #12

10005268 <l60_3>:
10005268:	4b01      	ldr	r3, [pc, #4]	; (10005270 <l60_3+0x8>)
1000526a:	1ad2      	subs	r2, r2, r3
1000526c:	4770      	bx	lr
1000526e:	0000      	.short	0x0000
10005270:	000003ff 	.word	0x000003ff

10005274 <__wrap___aeabi_lmul>:
10005274:	4351      	muls	r1, r2
10005276:	4343      	muls	r3, r0
10005278:	18c9      	adds	r1, r1, r3
1000527a:	468c      	mov	ip, r1
1000527c:	0c11      	lsrs	r1, r2, #16
1000527e:	b283      	uxth	r3, r0
10005280:	434b      	muls	r3, r1
10005282:	b410      	push	{r4}
10005284:	0c04      	lsrs	r4, r0, #16
10005286:	4361      	muls	r1, r4
10005288:	b292      	uxth	r2, r2
1000528a:	b280      	uxth	r0, r0
1000528c:	4350      	muls	r0, r2
1000528e:	4362      	muls	r2, r4
10005290:	041c      	lsls	r4, r3, #16
10005292:	0c1b      	lsrs	r3, r3, #16
10005294:	1900      	adds	r0, r0, r4
10005296:	bc10      	pop	{r4}
10005298:	4159      	adcs	r1, r3
1000529a:	0413      	lsls	r3, r2, #16
1000529c:	0c12      	lsrs	r2, r2, #16
1000529e:	18c0      	adds	r0, r0, r3
100052a0:	4151      	adcs	r1, r2
100052a2:	4461      	add	r1, ip
100052a4:	4770      	bx	lr
	...

100052a8 <__wrap___aeabi_cfrcmple>:
100052a8:	b507      	push	{r0, r1, r2, lr}
100052aa:	4048      	eors	r0, r1
100052ac:	4041      	eors	r1, r0
100052ae:	4048      	eors	r0, r1
100052b0:	e001      	b.n	100052b6 <__aeabi_cfcmple_guts>
100052b2:	46c0      	nop			; (mov r8, r8)

100052b4 <__wrap___aeabi_cfcmpeq>:
100052b4:	b507      	push	{r0, r1, r2, lr}

100052b6 <__aeabi_cfcmple_guts>:
100052b6:	0042      	lsls	r2, r0, #1
100052b8:	0e12      	lsrs	r2, r2, #24
100052ba:	d003      	beq.n	100052c4 <__aeabi_cfcmple_guts+0xe>
100052bc:	2aff      	cmp	r2, #255	; 0xff
100052be:	d103      	bne.n	100052c8 <__aeabi_cfcmple_guts+0x12>
100052c0:	0242      	lsls	r2, r0, #9
100052c2:	d818      	bhi.n	100052f6 <__aeabi_cfcmple_guts+0x40>
100052c4:	0dc0      	lsrs	r0, r0, #23
100052c6:	05c0      	lsls	r0, r0, #23
100052c8:	004a      	lsls	r2, r1, #1
100052ca:	0e12      	lsrs	r2, r2, #24
100052cc:	d003      	beq.n	100052d6 <__aeabi_cfcmple_guts+0x20>
100052ce:	2aff      	cmp	r2, #255	; 0xff
100052d0:	d103      	bne.n	100052da <__aeabi_cfcmple_guts+0x24>
100052d2:	024a      	lsls	r2, r1, #9
100052d4:	d80f      	bhi.n	100052f6 <__aeabi_cfcmple_guts+0x40>
100052d6:	0dc9      	lsrs	r1, r1, #23
100052d8:	05c9      	lsls	r1, r1, #23
100052da:	2201      	movs	r2, #1
100052dc:	4041      	eors	r1, r0
100052de:	d405      	bmi.n	100052ec <__aeabi_cfcmple_guts+0x36>
100052e0:	4041      	eors	r1, r0
100052e2:	d501      	bpl.n	100052e8 <__aeabi_cfcmple_guts+0x32>
100052e4:	4281      	cmp	r1, r0
100052e6:	bd07      	pop	{r0, r1, r2, pc}
100052e8:	4288      	cmp	r0, r1
100052ea:	bd07      	pop	{r0, r1, r2, pc}
100052ec:	4301      	orrs	r1, r0
100052ee:	1849      	adds	r1, r1, r1
100052f0:	d001      	beq.n	100052f6 <__aeabi_cfcmple_guts+0x40>
100052f2:	43c0      	mvns	r0, r0
100052f4:	1800      	adds	r0, r0, r0
100052f6:	bd07      	pop	{r0, r1, r2, pc}

100052f8 <__wrap___aeabi_fcmplt>:
100052f8:	b500      	push	{lr}
100052fa:	f7ff ffdb 	bl	100052b4 <__wrap___aeabi_cfcmpeq>
100052fe:	4180      	sbcs	r0, r0
10005300:	bd00      	pop	{pc}
10005302:	46c0      	nop			; (mov r8, r8)

10005304 <__wrap___aeabi_i2f>:
10005304:	0fc1      	lsrs	r1, r0, #31
10005306:	07c9      	lsls	r1, r1, #31
10005308:	d500      	bpl.n	1000530c <__wrap___aeabi_i2f+0x8>
1000530a:	4240      	negs	r0, r0
1000530c:	2800      	cmp	r0, #0
1000530e:	d017      	beq.n	10005340 <__aeabi_i2f_main+0x30>

10005310 <__aeabi_i2f_main>:
10005310:	46f4      	mov	ip, lr
10005312:	b403      	push	{r0, r1}
10005314:	4b0b      	ldr	r3, [pc, #44]	; (10005344 <__aeabi_i2f_main+0x34>)
10005316:	681b      	ldr	r3, [r3, #0]
10005318:	4798      	blx	r3
1000531a:	bc06      	pop	{r1, r2}
1000531c:	4081      	lsls	r1, r0
1000531e:	389e      	subs	r0, #158	; 0x9e
10005320:	4240      	negs	r0, r0
10005322:	3180      	adds	r1, #128	; 0x80
10005324:	d207      	bcs.n	10005336 <__aeabi_i2f_main+0x26>
10005326:	060b      	lsls	r3, r1, #24
10005328:	d007      	beq.n	1000533a <__aeabi_i2f_main+0x2a>
1000532a:	0049      	lsls	r1, r1, #1
1000532c:	0a49      	lsrs	r1, r1, #9
1000532e:	05c0      	lsls	r0, r0, #23
10005330:	4310      	orrs	r0, r2
10005332:	4308      	orrs	r0, r1
10005334:	4760      	bx	ip
10005336:	3001      	adds	r0, #1
10005338:	e7f8      	b.n	1000532c <__aeabi_i2f_main+0x1c>
1000533a:	0a49      	lsrs	r1, r1, #9
1000533c:	0289      	lsls	r1, r1, #10
1000533e:	e7f5      	b.n	1000532c <__aeabi_i2f_main+0x1c>
10005340:	4770      	bx	lr
10005342:	0000      	.short	0x0000
10005344:	20001924 	.word	0x20001924

10005348 <__aeabi_float_init>:
10005348:	2313      	movs	r3, #19
1000534a:	b510      	push	{r4, lr}
1000534c:	781c      	ldrb	r4, [r3, #0]
1000534e:	4813      	ldr	r0, [pc, #76]	; (1000539c <__aeabi_float_init+0x54>)
10005350:	f7ff f8e2 	bl	10004518 <rom_data_lookup>
10005354:	2c01      	cmp	r4, #1
10005356:	d00b      	beq.n	10005370 <__aeabi_float_init+0x28>
10005358:	dd04      	ble.n	10005364 <__aeabi_float_init+0x1c>
1000535a:	0001      	movs	r1, r0
1000535c:	2280      	movs	r2, #128	; 0x80
1000535e:	4810      	ldr	r0, [pc, #64]	; (100053a0 <__aeabi_float_init+0x58>)
10005360:	f000 f852 	bl	10005408 <__wrap___aeabi_memcpy>
10005364:	480f      	ldr	r0, [pc, #60]	; (100053a4 <__aeabi_float_init+0x5c>)
10005366:	f7ff f8cf 	bl	10004508 <rom_func_lookup>
1000536a:	4b0f      	ldr	r3, [pc, #60]	; (100053a8 <__aeabi_float_init+0x60>)
1000536c:	6018      	str	r0, [r3, #0]
1000536e:	bd10      	pop	{r4, pc}
10005370:	4c0b      	ldr	r4, [pc, #44]	; (100053a0 <__aeabi_float_init+0x58>)
10005372:	0001      	movs	r1, r0
10005374:	2254      	movs	r2, #84	; 0x54
10005376:	0020      	movs	r0, r4
10005378:	f000 f846 	bl	10005408 <__wrap___aeabi_memcpy>
1000537c:	4b0b      	ldr	r3, [pc, #44]	; (100053ac <__aeabi_float_init+0x64>)
1000537e:	6563      	str	r3, [r4, #84]	; 0x54
10005380:	65a3      	str	r3, [r4, #88]	; 0x58
10005382:	65e3      	str	r3, [r4, #92]	; 0x5c
10005384:	6623      	str	r3, [r4, #96]	; 0x60
10005386:	6663      	str	r3, [r4, #100]	; 0x64
10005388:	66a3      	str	r3, [r4, #104]	; 0x68
1000538a:	66e3      	str	r3, [r4, #108]	; 0x6c
1000538c:	6723      	str	r3, [r4, #112]	; 0x70
1000538e:	6763      	str	r3, [r4, #116]	; 0x74
10005390:	67a3      	str	r3, [r4, #120]	; 0x78
10005392:	67e3      	str	r3, [r4, #124]	; 0x7c
10005394:	6223      	str	r3, [r4, #32]
10005396:	61e3      	str	r3, [r4, #28]
10005398:	e7e4      	b.n	10005364 <__aeabi_float_init+0x1c>
1000539a:	46c0      	nop			; (mov r8, r8)
1000539c:	00004653 	.word	0x00004653
100053a0:	20001824 	.word	0x20001824
100053a4:	0000334c 	.word	0x0000334c
100053a8:	20001924 	.word	0x20001924
100053ac:	100053b1 	.word	0x100053b1

100053b0 <float_table_shim_on_use_helper>:
100053b0:	b507      	push	{r0, r1, r2, lr}
100053b2:	4660      	mov	r0, ip
100053b4:	8801      	ldrh	r1, [r0, #0]
100053b6:	0a0a      	lsrs	r2, r1, #8
100053b8:	3002      	adds	r0, #2
100053ba:	2adf      	cmp	r2, #223	; 0xdf
100053bc:	d1fa      	bne.n	100053b4 <float_table_shim_on_use_helper+0x4>
100053be:	b2c9      	uxtb	r1, r1
100053c0:	0882      	lsrs	r2, r0, #2
100053c2:	d304      	bcc.n	100053ce <float_table_shim_on_use_helper+0x1e>
100053c4:	8802      	ldrh	r2, [r0, #0]
100053c6:	8840      	ldrh	r0, [r0, #2]
100053c8:	0400      	lsls	r0, r0, #16
100053ca:	4310      	orrs	r0, r2
100053cc:	e000      	b.n	100053d0 <float_table_shim_on_use_helper+0x20>
100053ce:	6800      	ldr	r0, [r0, #0]
100053d0:	4a01      	ldr	r2, [pc, #4]	; (100053d8 <float_table_shim_on_use_helper+0x28>)
100053d2:	5050      	str	r0, [r2, r1]
100053d4:	9003      	str	r0, [sp, #12]
100053d6:	bd07      	pop	{r0, r1, r2, pc}
100053d8:	20001824 	.word	0x20001824

100053dc <__wrap_malloc>:
100053dc:	b510      	push	{r4, lr}
100053de:	f003 f941 	bl	10008664 <malloc>
100053e2:	bd10      	pop	{r4, pc}

100053e4 <__wrap_calloc>:
100053e4:	b510      	push	{r4, lr}
100053e6:	f003 f905 	bl	100085f4 <calloc>
100053ea:	bd10      	pop	{r4, pc}

100053ec <__aeabi_mem_init>:
100053ec:	4801      	ldr	r0, [pc, #4]	; (100053f4 <__aeabi_mem_init+0x8>)
100053ee:	2104      	movs	r1, #4
100053f0:	4b01      	ldr	r3, [pc, #4]	; (100053f8 <__aeabi_mem_init+0xc>)
100053f2:	4718      	bx	r3
100053f4:	20000340 	.word	0x20000340
100053f8:	10004529 	.word	0x10004529

100053fc <__wrap_memset>:
100053fc:	4b01      	ldr	r3, [pc, #4]	; (10005404 <__wrap_memset+0x8>)
100053fe:	681b      	ldr	r3, [r3, #0]
10005400:	4718      	bx	r3
10005402:	0000      	.short	0x0000
10005404:	20000340 	.word	0x20000340

10005408 <__wrap___aeabi_memcpy>:
10005408:	4b01      	ldr	r3, [pc, #4]	; (10005410 <__wrap___aeabi_memcpy+0x8>)
1000540a:	685b      	ldr	r3, [r3, #4]
1000540c:	4718      	bx	r3
1000540e:	0000      	.short	0x0000
10005410:	20000340 	.word	0x20000340

10005414 <stdio_out_chars_crlf.part.0>:
10005414:	b5f0      	push	{r4, r5, r6, r7, lr}
10005416:	46c6      	mov	lr, r8
10005418:	0007      	movs	r7, r0
1000541a:	b500      	push	{lr}
1000541c:	000c      	movs	r4, r1
1000541e:	1e15      	subs	r5, r2, #0
10005420:	dd30      	ble.n	10005484 <stdio_out_chars_crlf.part.0+0x70>
10005422:	780a      	ldrb	r2, [r1, #0]
10005424:	7c03      	ldrb	r3, [r0, #16]
10005426:	2000      	movs	r0, #0
10005428:	2a0a      	cmp	r2, #10
1000542a:	d02e      	beq.n	1000548a <stdio_out_chars_crlf.part.0+0x76>
1000542c:	2101      	movs	r1, #1
1000542e:	2d01      	cmp	r5, #1
10005430:	d01b      	beq.n	1000546a <stdio_out_chars_crlf.part.0+0x56>
10005432:	4b1a      	ldr	r3, [pc, #104]	; (1000549c <stdio_out_chars_crlf.part.0+0x88>)
10005434:	4698      	mov	r8, r3
10005436:	e002      	b.n	1000543e <stdio_out_chars_crlf.part.0+0x2a>
10005438:	0031      	movs	r1, r6
1000543a:	42ae      	cmp	r6, r5
1000543c:	d015      	beq.n	1000546a <stdio_out_chars_crlf.part.0+0x56>
1000543e:	1e4b      	subs	r3, r1, #1
10005440:	5ce2      	ldrb	r2, [r4, r3]
10005442:	5c63      	ldrb	r3, [r4, r1]
10005444:	1c4e      	adds	r6, r1, #1
10005446:	2b0a      	cmp	r3, #10
10005448:	d1f6      	bne.n	10005438 <stdio_out_chars_crlf.part.0+0x24>
1000544a:	2a0d      	cmp	r2, #13
1000544c:	d0f4      	beq.n	10005438 <stdio_out_chars_crlf.part.0+0x24>
1000544e:	683b      	ldr	r3, [r7, #0]
10005450:	4288      	cmp	r0, r1
10005452:	da03      	bge.n	1000545c <stdio_out_chars_crlf.part.0+0x48>
10005454:	1a09      	subs	r1, r1, r0
10005456:	1820      	adds	r0, r4, r0
10005458:	4798      	blx	r3
1000545a:	683b      	ldr	r3, [r7, #0]
1000545c:	2102      	movs	r1, #2
1000545e:	4640      	mov	r0, r8
10005460:	4798      	blx	r3
10005462:	0030      	movs	r0, r6
10005464:	0031      	movs	r1, r6
10005466:	42ae      	cmp	r6, r5
10005468:	d1e9      	bne.n	1000543e <stdio_out_chars_crlf.part.0+0x2a>
1000546a:	4285      	cmp	r5, r0
1000546c:	dd03      	ble.n	10005476 <stdio_out_chars_crlf.part.0+0x62>
1000546e:	1a29      	subs	r1, r5, r0
10005470:	683b      	ldr	r3, [r7, #0]
10005472:	1820      	adds	r0, r4, r0
10005474:	4798      	blx	r3
10005476:	1964      	adds	r4, r4, r5
10005478:	3c01      	subs	r4, #1
1000547a:	7823      	ldrb	r3, [r4, #0]
1000547c:	3b0d      	subs	r3, #13
1000547e:	425a      	negs	r2, r3
10005480:	4153      	adcs	r3, r2
10005482:	743b      	strb	r3, [r7, #16]
10005484:	bc04      	pop	{r2}
10005486:	4690      	mov	r8, r2
10005488:	bdf0      	pop	{r4, r5, r6, r7, pc}
1000548a:	2b00      	cmp	r3, #0
1000548c:	d1ce      	bne.n	1000542c <stdio_out_chars_crlf.part.0+0x18>
1000548e:	4803      	ldr	r0, [pc, #12]	; (1000549c <stdio_out_chars_crlf.part.0+0x88>)
10005490:	2102      	movs	r1, #2
10005492:	683b      	ldr	r3, [r7, #0]
10005494:	4798      	blx	r3
10005496:	2001      	movs	r0, #1
10005498:	e7c8      	b.n	1000542c <stdio_out_chars_crlf.part.0+0x18>
1000549a:	46c0      	nop			; (mov r8, r8)
1000549c:	10009430 	.word	0x10009430

100054a0 <stdio_buffered_printer>:
100054a0:	b5f0      	push	{r4, r5, r6, r7, lr}
100054a2:	46c6      	mov	lr, r8
100054a4:	680b      	ldr	r3, [r1, #0]
100054a6:	b500      	push	{lr}
100054a8:	0006      	movs	r6, r0
100054aa:	000d      	movs	r5, r1
100054ac:	2b80      	cmp	r3, #128	; 0x80
100054ae:	d006      	beq.n	100054be <stdio_buffered_printer+0x1e>
100054b0:	1c5a      	adds	r2, r3, #1
100054b2:	602a      	str	r2, [r5, #0]
100054b4:	18ed      	adds	r5, r5, r3
100054b6:	712e      	strb	r6, [r5, #4]
100054b8:	bc04      	pop	{r2}
100054ba:	4690      	mov	r8, r2
100054bc:	bdf0      	pop	{r4, r5, r6, r7, pc}
100054be:	4b12      	ldr	r3, [pc, #72]	; (10005508 <stdio_buffered_printer+0x68>)
100054c0:	681c      	ldr	r4, [r3, #0]
100054c2:	2c00      	cmp	r4, #0
100054c4:	d017      	beq.n	100054f6 <stdio_buffered_printer+0x56>
100054c6:	1d0b      	adds	r3, r1, #4
100054c8:	4f10      	ldr	r7, [pc, #64]	; (1000550c <stdio_buffered_printer+0x6c>)
100054ca:	4698      	mov	r8, r3
100054cc:	e002      	b.n	100054d4 <stdio_buffered_printer+0x34>
100054ce:	68e4      	ldr	r4, [r4, #12]
100054d0:	2c00      	cmp	r4, #0
100054d2:	d010      	beq.n	100054f6 <stdio_buffered_printer+0x56>
100054d4:	6823      	ldr	r3, [r4, #0]
100054d6:	2b00      	cmp	r3, #0
100054d8:	d0f9      	beq.n	100054ce <stdio_buffered_printer+0x2e>
100054da:	683a      	ldr	r2, [r7, #0]
100054dc:	2a00      	cmp	r2, #0
100054de:	d001      	beq.n	100054e4 <stdio_buffered_printer+0x44>
100054e0:	42a2      	cmp	r2, r4
100054e2:	d1f4      	bne.n	100054ce <stdio_buffered_printer+0x2e>
100054e4:	7c60      	ldrb	r0, [r4, #17]
100054e6:	6829      	ldr	r1, [r5, #0]
100054e8:	2800      	cmp	r0, #0
100054ea:	d107      	bne.n	100054fc <stdio_buffered_printer+0x5c>
100054ec:	4640      	mov	r0, r8
100054ee:	4798      	blx	r3
100054f0:	68e4      	ldr	r4, [r4, #12]
100054f2:	2c00      	cmp	r4, #0
100054f4:	d1ee      	bne.n	100054d4 <stdio_buffered_printer+0x34>
100054f6:	2201      	movs	r2, #1
100054f8:	2300      	movs	r3, #0
100054fa:	e7da      	b.n	100054b2 <stdio_buffered_printer+0x12>
100054fc:	000a      	movs	r2, r1
100054fe:	0020      	movs	r0, r4
10005500:	4641      	mov	r1, r8
10005502:	f7ff ff87 	bl	10005414 <stdio_out_chars_crlf.part.0>
10005506:	e7e2      	b.n	100054ce <stdio_buffered_printer+0x2e>
10005508:	2000105c 	.word	0x2000105c
1000550c:	20001060 	.word	0x20001060

10005510 <__wrap_putchar>:
10005510:	b5f0      	push	{r4, r5, r6, r7, lr}
10005512:	46ce      	mov	lr, r9
10005514:	4647      	mov	r7, r8
10005516:	b580      	push	{r7, lr}
10005518:	b083      	sub	sp, #12
1000551a:	466b      	mov	r3, sp
1000551c:	1cde      	adds	r6, r3, #3
1000551e:	23d0      	movs	r3, #208	; 0xd0
10005520:	7030      	strb	r0, [r6, #0]
10005522:	061b      	lsls	r3, r3, #24
10005524:	681c      	ldr	r4, [r3, #0]
10005526:	4b22      	ldr	r3, [pc, #136]	; (100055b0 <__wrap_putchar+0xa0>)
10005528:	4680      	mov	r8, r0
1000552a:	a901      	add	r1, sp, #4
1000552c:	0018      	movs	r0, r3
1000552e:	4699      	mov	r9, r3
10005530:	f003 fd0a 	bl	10008f48 <__mutex_try_enter_veneer>
10005534:	1e07      	subs	r7, r0, #0
10005536:	d12d      	bne.n	10005594 <__wrap_putchar+0x84>
10005538:	9b01      	ldr	r3, [sp, #4]
1000553a:	429c      	cmp	r4, r3
1000553c:	d025      	beq.n	1000558a <__wrap_putchar+0x7a>
1000553e:	4648      	mov	r0, r9
10005540:	f003 fd1a 	bl	10008f78 <__mutex_enter_blocking_veneer>
10005544:	4b1b      	ldr	r3, [pc, #108]	; (100055b4 <__wrap_putchar+0xa4>)
10005546:	2701      	movs	r7, #1
10005548:	681c      	ldr	r4, [r3, #0]
1000554a:	2c00      	cmp	r4, #0
1000554c:	d026      	beq.n	1000559c <__wrap_putchar+0x8c>
1000554e:	4d1a      	ldr	r5, [pc, #104]	; (100055b8 <__wrap_putchar+0xa8>)
10005550:	e002      	b.n	10005558 <__wrap_putchar+0x48>
10005552:	68e4      	ldr	r4, [r4, #12]
10005554:	2c00      	cmp	r4, #0
10005556:	d010      	beq.n	1000557a <__wrap_putchar+0x6a>
10005558:	6823      	ldr	r3, [r4, #0]
1000555a:	2b00      	cmp	r3, #0
1000555c:	d0f9      	beq.n	10005552 <__wrap_putchar+0x42>
1000555e:	682a      	ldr	r2, [r5, #0]
10005560:	2a00      	cmp	r2, #0
10005562:	d001      	beq.n	10005568 <__wrap_putchar+0x58>
10005564:	42a2      	cmp	r2, r4
10005566:	d1f4      	bne.n	10005552 <__wrap_putchar+0x42>
10005568:	7c62      	ldrb	r2, [r4, #17]
1000556a:	2a00      	cmp	r2, #0
1000556c:	d11a      	bne.n	100055a4 <__wrap_putchar+0x94>
1000556e:	2101      	movs	r1, #1
10005570:	0030      	movs	r0, r6
10005572:	4798      	blx	r3
10005574:	68e4      	ldr	r4, [r4, #12]
10005576:	2c00      	cmp	r4, #0
10005578:	d1ee      	bne.n	10005558 <__wrap_putchar+0x48>
1000557a:	2f00      	cmp	r7, #0
1000557c:	d10e      	bne.n	1000559c <__wrap_putchar+0x8c>
1000557e:	4640      	mov	r0, r8
10005580:	b003      	add	sp, #12
10005582:	bc0c      	pop	{r2, r3}
10005584:	4690      	mov	r8, r2
10005586:	4699      	mov	r9, r3
10005588:	bdf0      	pop	{r4, r5, r6, r7, pc}
1000558a:	4b0a      	ldr	r3, [pc, #40]	; (100055b4 <__wrap_putchar+0xa4>)
1000558c:	681c      	ldr	r4, [r3, #0]
1000558e:	2c00      	cmp	r4, #0
10005590:	d1dd      	bne.n	1000554e <__wrap_putchar+0x3e>
10005592:	e7f4      	b.n	1000557e <__wrap_putchar+0x6e>
10005594:	4b07      	ldr	r3, [pc, #28]	; (100055b4 <__wrap_putchar+0xa4>)
10005596:	681c      	ldr	r4, [r3, #0]
10005598:	2c00      	cmp	r4, #0
1000559a:	d1d8      	bne.n	1000554e <__wrap_putchar+0x3e>
1000559c:	4648      	mov	r0, r9
1000559e:	f003 fcbb 	bl	10008f18 <__mutex_exit_veneer>
100055a2:	e7ec      	b.n	1000557e <__wrap_putchar+0x6e>
100055a4:	2201      	movs	r2, #1
100055a6:	0031      	movs	r1, r6
100055a8:	0020      	movs	r0, r4
100055aa:	f7ff ff33 	bl	10005414 <stdio_out_chars_crlf.part.0>
100055ae:	e7d0      	b.n	10005552 <__wrap_putchar+0x42>
100055b0:	20000bf0 	.word	0x20000bf0
100055b4:	2000105c 	.word	0x2000105c
100055b8:	20001060 	.word	0x20001060

100055bc <__wrap_puts>:
100055bc:	b5f0      	push	{r4, r5, r6, r7, lr}
100055be:	46de      	mov	lr, fp
100055c0:	4645      	mov	r5, r8
100055c2:	4657      	mov	r7, sl
100055c4:	464e      	mov	r6, r9
100055c6:	b5e0      	push	{r5, r6, r7, lr}
100055c8:	b083      	sub	sp, #12
100055ca:	4680      	mov	r8, r0
100055cc:	f003 fb2c 	bl	10008c28 <strlen>
100055d0:	23d0      	movs	r3, #208	; 0xd0
100055d2:	ad01      	add	r5, sp, #4
100055d4:	061b      	lsls	r3, r3, #24
100055d6:	0007      	movs	r7, r0
100055d8:	0029      	movs	r1, r5
100055da:	483c      	ldr	r0, [pc, #240]	; (100056cc <__wrap_puts+0x110>)
100055dc:	681c      	ldr	r4, [r3, #0]
100055de:	f003 fcb3 	bl	10008f48 <__mutex_try_enter_veneer>
100055e2:	4683      	mov	fp, r0
100055e4:	2800      	cmp	r0, #0
100055e6:	d14d      	bne.n	10005684 <__wrap_puts+0xc8>
100055e8:	9b01      	ldr	r3, [sp, #4]
100055ea:	429c      	cmp	r4, r3
100055ec:	d044      	beq.n	10005678 <__wrap_puts+0xbc>
100055ee:	4837      	ldr	r0, [pc, #220]	; (100056cc <__wrap_puts+0x110>)
100055f0:	f003 fcc2 	bl	10008f78 <__mutex_enter_blocking_veneer>
100055f4:	4b36      	ldr	r3, [pc, #216]	; (100056d0 <__wrap_puts+0x114>)
100055f6:	469a      	mov	sl, r3
100055f8:	681c      	ldr	r4, [r3, #0]
100055fa:	2301      	movs	r3, #1
100055fc:	469b      	mov	fp, r3
100055fe:	2c00      	cmp	r4, #0
10005600:	d045      	beq.n	1000568e <__wrap_puts+0xd2>
10005602:	230a      	movs	r3, #10
10005604:	4699      	mov	r9, r3
10005606:	003b      	movs	r3, r7
10005608:	4e32      	ldr	r6, [pc, #200]	; (100056d4 <__wrap_puts+0x118>)
1000560a:	4647      	mov	r7, r8
1000560c:	4698      	mov	r8, r3
1000560e:	e002      	b.n	10005616 <__wrap_puts+0x5a>
10005610:	68e4      	ldr	r4, [r4, #12]
10005612:	2c00      	cmp	r4, #0
10005614:	d019      	beq.n	1000564a <__wrap_puts+0x8e>
10005616:	6823      	ldr	r3, [r4, #0]
10005618:	2b00      	cmp	r3, #0
1000561a:	d0f9      	beq.n	10005610 <__wrap_puts+0x54>
1000561c:	6832      	ldr	r2, [r6, #0]
1000561e:	2a00      	cmp	r2, #0
10005620:	d001      	beq.n	10005626 <__wrap_puts+0x6a>
10005622:	42a2      	cmp	r2, r4
10005624:	d1f4      	bne.n	10005610 <__wrap_puts+0x54>
10005626:	7c62      	ldrb	r2, [r4, #17]
10005628:	2a00      	cmp	r2, #0
1000562a:	d140      	bne.n	100056ae <__wrap_puts+0xf2>
1000562c:	4641      	mov	r1, r8
1000562e:	0038      	movs	r0, r7
10005630:	4798      	blx	r3
10005632:	464b      	mov	r3, r9
10005634:	702b      	strb	r3, [r5, #0]
10005636:	7c62      	ldrb	r2, [r4, #17]
10005638:	6823      	ldr	r3, [r4, #0]
1000563a:	2a00      	cmp	r2, #0
1000563c:	d12b      	bne.n	10005696 <__wrap_puts+0xda>
1000563e:	2101      	movs	r1, #1
10005640:	0028      	movs	r0, r5
10005642:	4798      	blx	r3
10005644:	68e4      	ldr	r4, [r4, #12]
10005646:	2c00      	cmp	r4, #0
10005648:	d1e5      	bne.n	10005616 <__wrap_puts+0x5a>
1000564a:	465b      	mov	r3, fp
1000564c:	4647      	mov	r7, r8
1000564e:	2b00      	cmp	r3, #0
10005650:	d11d      	bne.n	1000568e <__wrap_puts+0xd2>
10005652:	4653      	mov	r3, sl
10005654:	681c      	ldr	r4, [r3, #0]
10005656:	2c00      	cmp	r4, #0
10005658:	d006      	beq.n	10005668 <__wrap_puts+0xac>
1000565a:	6863      	ldr	r3, [r4, #4]
1000565c:	2b00      	cmp	r3, #0
1000565e:	d02c      	beq.n	100056ba <__wrap_puts+0xfe>
10005660:	4798      	blx	r3
10005662:	68e4      	ldr	r4, [r4, #12]
10005664:	2c00      	cmp	r4, #0
10005666:	d1f8      	bne.n	1000565a <__wrap_puts+0x9e>
10005668:	0038      	movs	r0, r7
1000566a:	b003      	add	sp, #12
1000566c:	bc3c      	pop	{r2, r3, r4, r5}
1000566e:	4690      	mov	r8, r2
10005670:	4699      	mov	r9, r3
10005672:	46a2      	mov	sl, r4
10005674:	46ab      	mov	fp, r5
10005676:	bdf0      	pop	{r4, r5, r6, r7, pc}
10005678:	4b15      	ldr	r3, [pc, #84]	; (100056d0 <__wrap_puts+0x114>)
1000567a:	681c      	ldr	r4, [r3, #0]
1000567c:	469a      	mov	sl, r3
1000567e:	2c00      	cmp	r4, #0
10005680:	d1bf      	bne.n	10005602 <__wrap_puts+0x46>
10005682:	e7f1      	b.n	10005668 <__wrap_puts+0xac>
10005684:	4b12      	ldr	r3, [pc, #72]	; (100056d0 <__wrap_puts+0x114>)
10005686:	681c      	ldr	r4, [r3, #0]
10005688:	469a      	mov	sl, r3
1000568a:	2c00      	cmp	r4, #0
1000568c:	d1b9      	bne.n	10005602 <__wrap_puts+0x46>
1000568e:	480f      	ldr	r0, [pc, #60]	; (100056cc <__wrap_puts+0x110>)
10005690:	f003 fc42 	bl	10008f18 <__mutex_exit_veneer>
10005694:	e7dd      	b.n	10005652 <__wrap_puts+0x96>
10005696:	7c22      	ldrb	r2, [r4, #16]
10005698:	2a00      	cmp	r2, #0
1000569a:	d112      	bne.n	100056c2 <__wrap_puts+0x106>
1000569c:	2102      	movs	r1, #2
1000569e:	480e      	ldr	r0, [pc, #56]	; (100056d8 <__wrap_puts+0x11c>)
100056a0:	4798      	blx	r3
100056a2:	782b      	ldrb	r3, [r5, #0]
100056a4:	3b0d      	subs	r3, #13
100056a6:	425a      	negs	r2, r3
100056a8:	4153      	adcs	r3, r2
100056aa:	7423      	strb	r3, [r4, #16]
100056ac:	e7b0      	b.n	10005610 <__wrap_puts+0x54>
100056ae:	4642      	mov	r2, r8
100056b0:	0039      	movs	r1, r7
100056b2:	0020      	movs	r0, r4
100056b4:	f7ff feae 	bl	10005414 <stdio_out_chars_crlf.part.0>
100056b8:	e7bb      	b.n	10005632 <__wrap_puts+0x76>
100056ba:	68e4      	ldr	r4, [r4, #12]
100056bc:	2c00      	cmp	r4, #0
100056be:	d1cc      	bne.n	1000565a <__wrap_puts+0x9e>
100056c0:	e7d2      	b.n	10005668 <__wrap_puts+0xac>
100056c2:	2101      	movs	r1, #1
100056c4:	0028      	movs	r0, r5
100056c6:	4798      	blx	r3
100056c8:	e7eb      	b.n	100056a2 <__wrap_puts+0xe6>
100056ca:	46c0      	nop			; (mov r8, r8)
100056cc:	20000bf0 	.word	0x20000bf0
100056d0:	2000105c 	.word	0x2000105c
100056d4:	20001060 	.word	0x20001060
100056d8:	10009430 	.word	0x10009430

100056dc <stdio_set_driver_enabled>:
100056dc:	4b0d      	ldr	r3, [pc, #52]	; (10005714 <stdio_set_driver_enabled+0x38>)
100056de:	681a      	ldr	r2, [r3, #0]
100056e0:	2a00      	cmp	r2, #0
100056e2:	d012      	beq.n	1000570a <stdio_set_driver_enabled+0x2e>
100056e4:	4282      	cmp	r2, r0
100056e6:	d103      	bne.n	100056f0 <stdio_set_driver_enabled+0x14>
100056e8:	e009      	b.n	100056fe <stdio_set_driver_enabled+0x22>
100056ea:	4298      	cmp	r0, r3
100056ec:	d007      	beq.n	100056fe <stdio_set_driver_enabled+0x22>
100056ee:	001a      	movs	r2, r3
100056f0:	68d3      	ldr	r3, [r2, #12]
100056f2:	2b00      	cmp	r3, #0
100056f4:	d1f9      	bne.n	100056ea <stdio_set_driver_enabled+0xe>
100056f6:	2900      	cmp	r1, #0
100056f8:	d000      	beq.n	100056fc <stdio_set_driver_enabled+0x20>
100056fa:	60d0      	str	r0, [r2, #12]
100056fc:	4770      	bx	lr
100056fe:	2900      	cmp	r1, #0
10005700:	d1fc      	bne.n	100056fc <stdio_set_driver_enabled+0x20>
10005702:	68c3      	ldr	r3, [r0, #12]
10005704:	60d3      	str	r3, [r2, #12]
10005706:	60c1      	str	r1, [r0, #12]
10005708:	e7f8      	b.n	100056fc <stdio_set_driver_enabled+0x20>
1000570a:	2900      	cmp	r1, #0
1000570c:	d0f6      	beq.n	100056fc <stdio_set_driver_enabled+0x20>
1000570e:	6018      	str	r0, [r3, #0]
10005710:	e7f4      	b.n	100056fc <stdio_set_driver_enabled+0x20>
10005712:	46c0      	nop			; (mov r8, r8)
10005714:	2000105c 	.word	0x2000105c

10005718 <__wrap_vprintf>:
10005718:	b5f0      	push	{r4, r5, r6, r7, lr}
1000571a:	4647      	mov	r7, r8
1000571c:	46ce      	mov	lr, r9
1000571e:	23d0      	movs	r3, #208	; 0xd0
10005720:	b580      	push	{r7, lr}
10005722:	061b      	lsls	r3, r3, #24
10005724:	4f30      	ldr	r7, [pc, #192]	; (100057e8 <__wrap_vprintf+0xd0>)
10005726:	b0a3      	sub	sp, #140	; 0x8c
10005728:	681b      	ldr	r3, [r3, #0]
1000572a:	0004      	movs	r4, r0
1000572c:	000d      	movs	r5, r1
1000572e:	0038      	movs	r0, r7
10005730:	a901      	add	r1, sp, #4
10005732:	4698      	mov	r8, r3
10005734:	f003 fc08 	bl	10008f48 <__mutex_try_enter_veneer>
10005738:	1e06      	subs	r6, r0, #0
1000573a:	d106      	bne.n	1000574a <__wrap_vprintf+0x32>
1000573c:	9b01      	ldr	r3, [sp, #4]
1000573e:	4598      	cmp	r8, r3
10005740:	d003      	beq.n	1000574a <__wrap_vprintf+0x32>
10005742:	0038      	movs	r0, r7
10005744:	f003 fc18 	bl	10008f78 <__mutex_enter_blocking_veneer>
10005748:	3601      	adds	r6, #1
1000574a:	2284      	movs	r2, #132	; 0x84
1000574c:	2100      	movs	r1, #0
1000574e:	a801      	add	r0, sp, #4
10005750:	f7ff fe54 	bl	100053fc <__wrap_memset>
10005754:	002b      	movs	r3, r5
10005756:	0022      	movs	r2, r4
10005758:	a901      	add	r1, sp, #4
1000575a:	4824      	ldr	r0, [pc, #144]	; (100057ec <__wrap_vprintf+0xd4>)
1000575c:	f7fe fea4 	bl	100044a8 <vfctprintf>
10005760:	9b01      	ldr	r3, [sp, #4]
10005762:	4680      	mov	r8, r0
10005764:	2b00      	cmp	r3, #0
10005766:	d117      	bne.n	10005798 <__wrap_vprintf+0x80>
10005768:	4b21      	ldr	r3, [pc, #132]	; (100057f0 <__wrap_vprintf+0xd8>)
1000576a:	681c      	ldr	r4, [r3, #0]
1000576c:	2c00      	cmp	r4, #0
1000576e:	d006      	beq.n	1000577e <__wrap_vprintf+0x66>
10005770:	6863      	ldr	r3, [r4, #4]
10005772:	2b00      	cmp	r3, #0
10005774:	d00e      	beq.n	10005794 <__wrap_vprintf+0x7c>
10005776:	4798      	blx	r3
10005778:	68e4      	ldr	r4, [r4, #12]
1000577a:	2c00      	cmp	r4, #0
1000577c:	d1f8      	bne.n	10005770 <__wrap_vprintf+0x58>
1000577e:	2e00      	cmp	r6, #0
10005780:	d002      	beq.n	10005788 <__wrap_vprintf+0x70>
10005782:	0038      	movs	r0, r7
10005784:	f003 fbc8 	bl	10008f18 <__mutex_exit_veneer>
10005788:	4640      	mov	r0, r8
1000578a:	b023      	add	sp, #140	; 0x8c
1000578c:	bc0c      	pop	{r2, r3}
1000578e:	4690      	mov	r8, r2
10005790:	4699      	mov	r9, r3
10005792:	bdf0      	pop	{r4, r5, r6, r7, pc}
10005794:	68e4      	ldr	r4, [r4, #12]
10005796:	e7e9      	b.n	1000576c <__wrap_vprintf+0x54>
10005798:	4b15      	ldr	r3, [pc, #84]	; (100057f0 <__wrap_vprintf+0xd8>)
1000579a:	681d      	ldr	r5, [r3, #0]
1000579c:	4699      	mov	r9, r3
1000579e:	2d00      	cmp	r5, #0
100057a0:	d01f      	beq.n	100057e2 <__wrap_vprintf+0xca>
100057a2:	4c14      	ldr	r4, [pc, #80]	; (100057f4 <__wrap_vprintf+0xdc>)
100057a4:	e002      	b.n	100057ac <__wrap_vprintf+0x94>
100057a6:	68ed      	ldr	r5, [r5, #12]
100057a8:	2d00      	cmp	r5, #0
100057aa:	d010      	beq.n	100057ce <__wrap_vprintf+0xb6>
100057ac:	682b      	ldr	r3, [r5, #0]
100057ae:	2b00      	cmp	r3, #0
100057b0:	d0f9      	beq.n	100057a6 <__wrap_vprintf+0x8e>
100057b2:	6822      	ldr	r2, [r4, #0]
100057b4:	2a00      	cmp	r2, #0
100057b6:	d001      	beq.n	100057bc <__wrap_vprintf+0xa4>
100057b8:	42aa      	cmp	r2, r5
100057ba:	d1f4      	bne.n	100057a6 <__wrap_vprintf+0x8e>
100057bc:	7c68      	ldrb	r0, [r5, #17]
100057be:	9901      	ldr	r1, [sp, #4]
100057c0:	2800      	cmp	r0, #0
100057c2:	d108      	bne.n	100057d6 <__wrap_vprintf+0xbe>
100057c4:	a802      	add	r0, sp, #8
100057c6:	4798      	blx	r3
100057c8:	68ed      	ldr	r5, [r5, #12]
100057ca:	2d00      	cmp	r5, #0
100057cc:	d1ee      	bne.n	100057ac <__wrap_vprintf+0x94>
100057ce:	464b      	mov	r3, r9
100057d0:	9501      	str	r5, [sp, #4]
100057d2:	681c      	ldr	r4, [r3, #0]
100057d4:	e7ca      	b.n	1000576c <__wrap_vprintf+0x54>
100057d6:	000a      	movs	r2, r1
100057d8:	0028      	movs	r0, r5
100057da:	a902      	add	r1, sp, #8
100057dc:	f7ff fe1a 	bl	10005414 <stdio_out_chars_crlf.part.0>
100057e0:	e7e1      	b.n	100057a6 <__wrap_vprintf+0x8e>
100057e2:	9501      	str	r5, [sp, #4]
100057e4:	e7cb      	b.n	1000577e <__wrap_vprintf+0x66>
100057e6:	46c0      	nop			; (mov r8, r8)
100057e8:	20000bf0 	.word	0x20000bf0
100057ec:	100054a1 	.word	0x100054a1
100057f0:	2000105c 	.word	0x2000105c
100057f4:	20001060 	.word	0x20001060

100057f8 <__wrap_printf>:
100057f8:	b40f      	push	{r0, r1, r2, r3}
100057fa:	b500      	push	{lr}
100057fc:	b083      	sub	sp, #12
100057fe:	a904      	add	r1, sp, #16
10005800:	c901      	ldmia	r1!, {r0}
10005802:	9101      	str	r1, [sp, #4]
10005804:	f7ff ff88 	bl	10005718 <__wrap_vprintf>
10005808:	b003      	add	sp, #12
1000580a:	bc08      	pop	{r3}
1000580c:	b004      	add	sp, #16
1000580e:	4718      	bx	r3

10005810 <stdio_init_all>:
10005810:	b510      	push	{r4, lr}
10005812:	f000 f8c5 	bl	100059a0 <stdio_usb_init>
10005816:	bd10      	pop	{r4, pc}

10005818 <stdio_usb_in_chars>:
10005818:	b570      	push	{r4, r5, r6, lr}
1000581a:	4c18      	ldr	r4, [pc, #96]	; (1000587c <stdio_usb_in_chars+0x64>)
1000581c:	b082      	sub	sp, #8
1000581e:	0005      	movs	r5, r0
10005820:	000e      	movs	r6, r1
10005822:	0020      	movs	r0, r4
10005824:	a901      	add	r1, sp, #4
10005826:	f003 fb8f 	bl	10008f48 <__mutex_try_enter_veneer>
1000582a:	2800      	cmp	r0, #0
1000582c:	d108      	bne.n	10005840 <stdio_usb_in_chars+0x28>
1000582e:	23d0      	movs	r3, #208	; 0xd0
10005830:	061b      	lsls	r3, r3, #24
10005832:	681b      	ldr	r3, [r3, #0]
10005834:	9a01      	ldr	r2, [sp, #4]
10005836:	429a      	cmp	r2, r3
10005838:	d01c      	beq.n	10005874 <stdio_usb_in_chars+0x5c>
1000583a:	0020      	movs	r0, r4
1000583c:	f003 fb9c 	bl	10008f78 <__mutex_enter_blocking_veneer>
10005840:	2000      	movs	r0, #0
10005842:	f001 fc25 	bl	10007090 <tud_cdc_n_connected>
10005846:	2800      	cmp	r0, #0
10005848:	d107      	bne.n	1000585a <stdio_usb_in_chars+0x42>
1000584a:	2503      	movs	r5, #3
1000584c:	426d      	negs	r5, r5
1000584e:	0020      	movs	r0, r4
10005850:	f003 fb62 	bl	10008f18 <__mutex_exit_veneer>
10005854:	0028      	movs	r0, r5
10005856:	b002      	add	sp, #8
10005858:	bd70      	pop	{r4, r5, r6, pc}
1000585a:	2000      	movs	r0, #0
1000585c:	f001 fc32 	bl	100070c4 <tud_cdc_n_available>
10005860:	2800      	cmp	r0, #0
10005862:	d0f2      	beq.n	1000584a <stdio_usb_in_chars+0x32>
10005864:	0029      	movs	r1, r5
10005866:	0032      	movs	r2, r6
10005868:	2000      	movs	r0, #0
1000586a:	f001 fc3b 	bl	100070e4 <tud_cdc_n_read>
1000586e:	1e05      	subs	r5, r0, #0
10005870:	d0eb      	beq.n	1000584a <stdio_usb_in_chars+0x32>
10005872:	e7ec      	b.n	1000584e <stdio_usb_in_chars+0x36>
10005874:	2503      	movs	r5, #3
10005876:	426d      	negs	r5, r5
10005878:	e7ec      	b.n	10005854 <stdio_usb_in_chars+0x3c>
1000587a:	46c0      	nop			; (mov r8, r8)
1000587c:	20001700 	.word	0x20001700

10005880 <timer_task>:
10005880:	b510      	push	{r4, lr}
10005882:	201f      	movs	r0, #31
10005884:	f7fc fdd4 	bl	10002430 <irq_set_pending>
10005888:	20fa      	movs	r0, #250	; 0xfa
1000588a:	2100      	movs	r1, #0
1000588c:	0080      	lsls	r0, r0, #2
1000588e:	bd10      	pop	{r4, pc}

10005890 <low_priority_worker_irq>:
10005890:	b510      	push	{r4, lr}
10005892:	4c06      	ldr	r4, [pc, #24]	; (100058ac <low_priority_worker_irq+0x1c>)
10005894:	2100      	movs	r1, #0
10005896:	0020      	movs	r0, r4
10005898:	f003 fb56 	bl	10008f48 <__mutex_try_enter_veneer>
1000589c:	2800      	cmp	r0, #0
1000589e:	d004      	beq.n	100058aa <low_priority_worker_irq+0x1a>
100058a0:	f000 fd66 	bl	10006370 <tud_task>
100058a4:	0020      	movs	r0, r4
100058a6:	f003 fb37 	bl	10008f18 <__mutex_exit_veneer>
100058aa:	bd10      	pop	{r4, pc}
100058ac:	20001700 	.word	0x20001700

100058b0 <stdio_usb_out_chars>:
100058b0:	b5f0      	push	{r4, r5, r6, r7, lr}
100058b2:	4646      	mov	r6, r8
100058b4:	464f      	mov	r7, r9
100058b6:	46d6      	mov	lr, sl
100058b8:	b5c0      	push	{r6, r7, lr}
100058ba:	4f36      	ldr	r7, [pc, #216]	; (10005994 <stdio_usb_out_chars+0xe4>)
100058bc:	b082      	sub	sp, #8
100058be:	4680      	mov	r8, r0
100058c0:	000e      	movs	r6, r1
100058c2:	0038      	movs	r0, r7
100058c4:	a901      	add	r1, sp, #4
100058c6:	f003 fb3f 	bl	10008f48 <__mutex_try_enter_veneer>
100058ca:	2800      	cmp	r0, #0
100058cc:	d10e      	bne.n	100058ec <stdio_usb_out_chars+0x3c>
100058ce:	23d0      	movs	r3, #208	; 0xd0
100058d0:	061b      	lsls	r3, r3, #24
100058d2:	681b      	ldr	r3, [r3, #0]
100058d4:	9a01      	ldr	r2, [sp, #4]
100058d6:	429a      	cmp	r2, r3
100058d8:	d105      	bne.n	100058e6 <stdio_usb_out_chars+0x36>
100058da:	b002      	add	sp, #8
100058dc:	bc1c      	pop	{r2, r3, r4}
100058de:	4690      	mov	r8, r2
100058e0:	4699      	mov	r9, r3
100058e2:	46a2      	mov	sl, r4
100058e4:	bdf0      	pop	{r4, r5, r6, r7, pc}
100058e6:	0038      	movs	r0, r7
100058e8:	f003 fb46 	bl	10008f78 <__mutex_enter_blocking_veneer>
100058ec:	2000      	movs	r0, #0
100058ee:	f001 fbcf 	bl	10007090 <tud_cdc_n_connected>
100058f2:	2800      	cmp	r0, #0
100058f4:	d032      	beq.n	1000595c <stdio_usb_out_chars+0xac>
100058f6:	2400      	movs	r4, #0
100058f8:	2e00      	cmp	r6, #0
100058fa:	dd34      	ble.n	10005966 <stdio_usb_out_chars+0xb6>
100058fc:	4b26      	ldr	r3, [pc, #152]	; (10005998 <stdio_usb_out_chars+0xe8>)
100058fe:	4699      	mov	r9, r3
10005900:	469a      	mov	sl, r3
10005902:	e012      	b.n	1000592a <stdio_usb_out_chars+0x7a>
10005904:	2800      	cmp	r0, #0
10005906:	d143      	bne.n	10005990 <stdio_usb_out_chars+0xe0>
10005908:	f000 fd32 	bl	10006370 <tud_task>
1000590c:	2000      	movs	r0, #0
1000590e:	f001 fc71 	bl	100071f4 <tud_cdc_n_write_flush>
10005912:	2000      	movs	r0, #0
10005914:	f001 fbbc 	bl	10007090 <tud_cdc_n_connected>
10005918:	2800      	cmp	r0, #0
1000591a:	d024      	beq.n	10005966 <stdio_usb_out_chars+0xb6>
1000591c:	2000      	movs	r0, #0
1000591e:	f001 fca9 	bl	10007274 <tud_cdc_n_write_available>
10005922:	2800      	cmp	r0, #0
10005924:	d023      	beq.n	1000596e <stdio_usb_out_chars+0xbe>
10005926:	42a6      	cmp	r6, r4
10005928:	dd1d      	ble.n	10005966 <stdio_usb_out_chars+0xb6>
1000592a:	2000      	movs	r0, #0
1000592c:	1b35      	subs	r5, r6, r4
1000592e:	f001 fca1 	bl	10007274 <tud_cdc_n_write_available>
10005932:	4285      	cmp	r5, r0
10005934:	dce6      	bgt.n	10005904 <stdio_usb_out_chars+0x54>
10005936:	4643      	mov	r3, r8
10005938:	002a      	movs	r2, r5
1000593a:	1919      	adds	r1, r3, r4
1000593c:	2000      	movs	r0, #0
1000593e:	f001 fc0b 	bl	10007158 <tud_cdc_n_write>
10005942:	0005      	movs	r5, r0
10005944:	f000 fd14 	bl	10006370 <tud_task>
10005948:	2000      	movs	r0, #0
1000594a:	f001 fc53 	bl	100071f4 <tud_cdc_n_write_flush>
1000594e:	f7fb ff0b 	bl	10001768 <time_us_64>
10005952:	464b      	mov	r3, r9
10005954:	1964      	adds	r4, r4, r5
10005956:	6018      	str	r0, [r3, #0]
10005958:	6059      	str	r1, [r3, #4]
1000595a:	e7e4      	b.n	10005926 <stdio_usb_out_chars+0x76>
1000595c:	2000      	movs	r0, #0
1000595e:	2100      	movs	r1, #0
10005960:	4b0d      	ldr	r3, [pc, #52]	; (10005998 <stdio_usb_out_chars+0xe8>)
10005962:	6018      	str	r0, [r3, #0]
10005964:	6059      	str	r1, [r3, #4]
10005966:	0038      	movs	r0, r7
10005968:	f003 fad6 	bl	10008f18 <__mutex_exit_veneer>
1000596c:	e7b5      	b.n	100058da <stdio_usb_out_chars+0x2a>
1000596e:	f7fb fefb 	bl	10001768 <time_us_64>
10005972:	4653      	mov	r3, sl
10005974:	000d      	movs	r5, r1
10005976:	681a      	ldr	r2, [r3, #0]
10005978:	685b      	ldr	r3, [r3, #4]
1000597a:	2100      	movs	r1, #0
1000597c:	4684      	mov	ip, r0
1000597e:	4807      	ldr	r0, [pc, #28]	; (1000599c <stdio_usb_out_chars+0xec>)
10005980:	1812      	adds	r2, r2, r0
10005982:	414b      	adcs	r3, r1
10005984:	429d      	cmp	r5, r3
10005986:	d8ee      	bhi.n	10005966 <stdio_usb_out_chars+0xb6>
10005988:	d1cd      	bne.n	10005926 <stdio_usb_out_chars+0x76>
1000598a:	4594      	cmp	ip, r2
1000598c:	d9cb      	bls.n	10005926 <stdio_usb_out_chars+0x76>
1000598e:	e7ea      	b.n	10005966 <stdio_usb_out_chars+0xb6>
10005990:	0005      	movs	r5, r0
10005992:	e7d0      	b.n	10005936 <stdio_usb_out_chars+0x86>
10005994:	20001700 	.word	0x20001700
10005998:	20000c10 	.word	0x20000c10
1000599c:	0007a120 	.word	0x0007a120

100059a0 <stdio_usb_init>:
100059a0:	b510      	push	{r4, lr}
100059a2:	4b1d      	ldr	r3, [pc, #116]	; (10005a18 <stdio_usb_init+0x78>)
100059a4:	b084      	sub	sp, #16
100059a6:	781b      	ldrb	r3, [r3, #0]
100059a8:	f001 fe70 	bl	1000768c <tusb_init>
100059ac:	491b      	ldr	r1, [pc, #108]	; (10005a1c <stdio_usb_init+0x7c>)
100059ae:	201f      	movs	r0, #31
100059b0:	f7fc fd4e 	bl	10002450 <irq_set_exclusive_handler>
100059b4:	2101      	movs	r1, #1
100059b6:	201f      	movs	r0, #31
100059b8:	f7fc fd28 	bl	1000240c <irq_set_enabled>
100059bc:	4818      	ldr	r0, [pc, #96]	; (10005a20 <stdio_usb_init+0x80>)
100059be:	f7fb ffb7 	bl	10001930 <mutex_init>
100059c2:	f7fb fbbf 	bl	10001144 <alarm_pool_get_default>
100059c6:	0004      	movs	r4, r0
100059c8:	f7fb fece 	bl	10001768 <time_us_64>
100059cc:	22fa      	movs	r2, #250	; 0xfa
100059ce:	2300      	movs	r3, #0
100059d0:	0092      	lsls	r2, r2, #2
100059d2:	1812      	adds	r2, r2, r0
100059d4:	414b      	adcs	r3, r1
100059d6:	4299      	cmp	r1, r3
100059d8:	d918      	bls.n	10005a0c <stdio_usb_init+0x6c>
100059da:	2201      	movs	r2, #1
100059dc:	4252      	negs	r2, r2
100059de:	17d3      	asrs	r3, r2, #31
100059e0:	2101      	movs	r1, #1
100059e2:	9102      	str	r1, [sp, #8]
100059e4:	2100      	movs	r1, #0
100059e6:	9101      	str	r1, [sp, #4]
100059e8:	490e      	ldr	r1, [pc, #56]	; (10005a24 <stdio_usb_init+0x84>)
100059ea:	0020      	movs	r0, r4
100059ec:	9100      	str	r1, [sp, #0]
100059ee:	f7fb fbaf 	bl	10001150 <alarm_pool_add_alarm_at>
100059f2:	0004      	movs	r4, r0
100059f4:	1e63      	subs	r3, r4, #1
100059f6:	419c      	sbcs	r4, r3
100059f8:	b2e4      	uxtb	r4, r4
100059fa:	2800      	cmp	r0, #0
100059fc:	d003      	beq.n	10005a06 <stdio_usb_init+0x66>
100059fe:	2101      	movs	r1, #1
10005a00:	4809      	ldr	r0, [pc, #36]	; (10005a28 <stdio_usb_init+0x88>)
10005a02:	f7ff fe6b 	bl	100056dc <stdio_set_driver_enabled>
10005a06:	0020      	movs	r0, r4
10005a08:	b004      	add	sp, #16
10005a0a:	bd10      	pop	{r4, pc}
10005a0c:	4299      	cmp	r1, r3
10005a0e:	d1e7      	bne.n	100059e0 <stdio_usb_init+0x40>
10005a10:	4290      	cmp	r0, r2
10005a12:	d8e2      	bhi.n	100059da <stdio_usb_init+0x3a>
10005a14:	e7e4      	b.n	100059e0 <stdio_usb_init+0x40>
10005a16:	46c0      	nop			; (mov r8, r8)
10005a18:	1000b518 	.word	0x1000b518
10005a1c:	10005891 	.word	0x10005891
10005a20:	20001700 	.word	0x20001700
10005a24:	10005881 	.word	0x10005881
10005a28:	20000350 	.word	0x20000350

10005a2c <tud_descriptor_device_cb>:
10005a2c:	4800      	ldr	r0, [pc, #0]	; (10005a30 <tud_descriptor_device_cb+0x4>)
10005a2e:	4770      	bx	lr
10005a30:	100094d4 	.word	0x100094d4

10005a34 <tud_descriptor_configuration_cb>:
10005a34:	4800      	ldr	r0, [pc, #0]	; (10005a38 <tud_descriptor_configuration_cb+0x4>)
10005a36:	4770      	bx	lr
10005a38:	10009488 	.word	0x10009488

10005a3c <tud_descriptor_string_cb>:
10005a3c:	b510      	push	{r4, lr}
10005a3e:	2800      	cmp	r0, #0
10005a40:	d106      	bne.n	10005a50 <tud_descriptor_string_cb+0x14>
10005a42:	4b11      	ldr	r3, [pc, #68]	; (10005a88 <tud_descriptor_string_cb+0x4c>)
10005a44:	4811      	ldr	r0, [pc, #68]	; (10005a8c <tud_descriptor_string_cb+0x50>)
10005a46:	8043      	strh	r3, [r0, #2]
10005a48:	3b06      	subs	r3, #6
10005a4a:	3bff      	subs	r3, #255	; 0xff
10005a4c:	8003      	strh	r3, [r0, #0]
10005a4e:	bd10      	pop	{r4, pc}
10005a50:	2804      	cmp	r0, #4
10005a52:	d817      	bhi.n	10005a84 <tud_descriptor_string_cb+0x48>
10005a54:	4b0e      	ldr	r3, [pc, #56]	; (10005a90 <tud_descriptor_string_cb+0x54>)
10005a56:	0080      	lsls	r0, r0, #2
10005a58:	58c2      	ldr	r2, [r0, r3]
10005a5a:	2301      	movs	r3, #1
10005a5c:	480b      	ldr	r0, [pc, #44]	; (10005a8c <tud_descriptor_string_cb+0x50>)
10005a5e:	e005      	b.n	10005a6c <tud_descriptor_string_cb+0x30>
10005a60:	005c      	lsls	r4, r3, #1
10005a62:	3301      	adds	r3, #1
10005a64:	5301      	strh	r1, [r0, r4]
10005a66:	3201      	adds	r2, #1
10005a68:	2b14      	cmp	r3, #20
10005a6a:	d008      	beq.n	10005a7e <tud_descriptor_string_cb+0x42>
10005a6c:	7811      	ldrb	r1, [r2, #0]
10005a6e:	2900      	cmp	r1, #0
10005a70:	d1f6      	bne.n	10005a60 <tud_descriptor_string_cb+0x24>
10005a72:	22c0      	movs	r2, #192	; 0xc0
10005a74:	005b      	lsls	r3, r3, #1
10005a76:	0092      	lsls	r2, r2, #2
10005a78:	4313      	orrs	r3, r2
10005a7a:	b29b      	uxth	r3, r3
10005a7c:	e7e6      	b.n	10005a4c <tud_descriptor_string_cb+0x10>
10005a7e:	23ca      	movs	r3, #202	; 0xca
10005a80:	009b      	lsls	r3, r3, #2
10005a82:	e7e3      	b.n	10005a4c <tud_descriptor_string_cb+0x10>
10005a84:	2000      	movs	r0, #0
10005a86:	e7e2      	b.n	10005a4e <tud_descriptor_string_cb+0x12>
10005a88:	00000409 	.word	0x00000409
10005a8c:	20001034 	.word	0x20001034
10005a90:	100094e8 	.word	0x100094e8

10005a94 <dcd_rp2040_irq>:
10005a94:	b5f0      	push	{r4, r5, r6, r7, lr}
10005a96:	4645      	mov	r5, r8
10005a98:	46de      	mov	lr, fp
10005a9a:	4657      	mov	r7, sl
10005a9c:	464e      	mov	r6, r9
10005a9e:	2398      	movs	r3, #152	; 0x98
10005aa0:	2480      	movs	r4, #128	; 0x80
10005aa2:	b5e0      	push	{r5, r6, r7, lr}
10005aa4:	4a41      	ldr	r2, [pc, #260]	; (10005bac <dcd_rp2040_irq+0x118>)
10005aa6:	0264      	lsls	r4, r4, #9
10005aa8:	58d3      	ldr	r3, [r2, r3]
10005aaa:	b085      	sub	sp, #20
10005aac:	4698      	mov	r8, r3
10005aae:	4223      	tst	r3, r4
10005ab0:	d024      	beq.n	10005afc <dcd_rp2040_irq+0x68>
10005ab2:	2101      	movs	r1, #1
10005ab4:	2039      	movs	r0, #57	; 0x39
10005ab6:	2200      	movs	r2, #0
10005ab8:	4b3d      	ldr	r3, [pc, #244]	; (10005bb0 <dcd_rp2040_irq+0x11c>)
10005aba:	5419      	strb	r1, [r3, r0]
10005abc:	7159      	strb	r1, [r3, #5]
10005abe:	3147      	adds	r1, #71	; 0x47
10005ac0:	545a      	strb	r2, [r3, r1]
10005ac2:	751a      	strb	r2, [r3, #20]
10005ac4:	493b      	ldr	r1, [pc, #236]	; (10005bb4 <dcd_rp2040_irq+0x120>)
10005ac6:	3201      	adds	r2, #1
10005ac8:	2000      	movs	r0, #0
10005aca:	f001 f8cb 	bl	10006c64 <dcd_event_setup_received>
10005ace:	2280      	movs	r2, #128	; 0x80
10005ad0:	4b39      	ldr	r3, [pc, #228]	; (10005bb8 <dcd_rp2040_irq+0x124>)
10005ad2:	0292      	lsls	r2, r2, #10
10005ad4:	651a      	str	r2, [r3, #80]	; 0x50
10005ad6:	4b39      	ldr	r3, [pc, #228]	; (10005bbc <dcd_rp2040_irq+0x128>)
10005ad8:	9303      	str	r3, [sp, #12]
10005ada:	4643      	mov	r3, r8
10005adc:	06db      	lsls	r3, r3, #27
10005ade:	d413      	bmi.n	10005b08 <dcd_rp2040_irq+0x74>
10005ae0:	2380      	movs	r3, #128	; 0x80
10005ae2:	4642      	mov	r2, r8
10005ae4:	015b      	lsls	r3, r3, #5
10005ae6:	421a      	tst	r2, r3
10005ae8:	d13e      	bne.n	10005b68 <dcd_rp2040_irq+0xd4>
10005aea:	4544      	cmp	r4, r8
10005aec:	d158      	bne.n	10005ba0 <dcd_rp2040_irq+0x10c>
10005aee:	b005      	add	sp, #20
10005af0:	bc3c      	pop	{r2, r3, r4, r5}
10005af2:	4690      	mov	r8, r2
10005af4:	4699      	mov	r9, r3
10005af6:	46a2      	mov	sl, r4
10005af8:	46ab      	mov	fp, r5
10005afa:	bdf0      	pop	{r4, r5, r6, r7, pc}
10005afc:	2310      	movs	r3, #16
10005afe:	9303      	str	r3, [sp, #12]
10005b00:	4643      	mov	r3, r8
10005b02:	2400      	movs	r4, #0
10005b04:	06db      	lsls	r3, r3, #27
10005b06:	d5eb      	bpl.n	10005ae0 <dcd_rp2040_irq+0x4c>
10005b08:	4b28      	ldr	r3, [pc, #160]	; (10005bac <dcd_rp2040_irq+0x118>)
10005b0a:	6d9f      	ldr	r7, [r3, #88]	; 0x58
10005b0c:	2f00      	cmp	r7, #0
10005b0e:	d025      	beq.n	10005b5c <dcd_rp2040_irq+0xc8>
10005b10:	4699      	mov	r9, r3
10005b12:	4b29      	ldr	r3, [pc, #164]	; (10005bb8 <dcd_rp2040_irq+0x124>)
10005b14:	2600      	movs	r6, #0
10005b16:	2501      	movs	r5, #1
10005b18:	469b      	mov	fp, r3
10005b1a:	e003      	b.n	10005b24 <dcd_rp2040_irq+0x90>
10005b1c:	006d      	lsls	r5, r5, #1
10005b1e:	3601      	adds	r6, #1
10005b20:	2e20      	cmp	r6, #32
10005b22:	d01b      	beq.n	10005b5c <dcd_rp2040_irq+0xc8>
10005b24:	423d      	tst	r5, r7
10005b26:	d0f9      	beq.n	10005b1c <dcd_rp2040_irq+0x88>
10005b28:	464b      	mov	r3, r9
10005b2a:	6ddb      	ldr	r3, [r3, #92]	; 0x5c
10005b2c:	465b      	mov	r3, fp
10005b2e:	659d      	str	r5, [r3, #88]	; 0x58
10005b30:	2301      	movs	r3, #1
10005b32:	2434      	movs	r4, #52	; 0x34
10005b34:	469a      	mov	sl, r3
10005b36:	43b3      	bics	r3, r6
10005b38:	435c      	muls	r4, r3
10005b3a:	2368      	movs	r3, #104	; 0x68
10005b3c:	0872      	lsrs	r2, r6, #1
10005b3e:	4353      	muls	r3, r2
10005b40:	18e4      	adds	r4, r4, r3
10005b42:	4b1b      	ldr	r3, [pc, #108]	; (10005bb0 <dcd_rp2040_irq+0x11c>)
10005b44:	469c      	mov	ip, r3
10005b46:	4464      	add	r4, ip
10005b48:	0020      	movs	r0, r4
10005b4a:	f000 fa81 	bl	10006050 <_hw_endpoint_xfer_continue>
10005b4e:	2800      	cmp	r0, #0
10005b50:	d11a      	bne.n	10005b88 <dcd_rp2040_irq+0xf4>
10005b52:	43af      	bics	r7, r5
10005b54:	3601      	adds	r6, #1
10005b56:	006d      	lsls	r5, r5, #1
10005b58:	2f00      	cmp	r7, #0
10005b5a:	d1e1      	bne.n	10005b20 <dcd_rp2040_irq+0x8c>
10005b5c:	2380      	movs	r3, #128	; 0x80
10005b5e:	4642      	mov	r2, r8
10005b60:	015b      	lsls	r3, r3, #5
10005b62:	9c03      	ldr	r4, [sp, #12]
10005b64:	421a      	tst	r2, r3
10005b66:	d0c0      	beq.n	10005aea <dcd_rp2040_irq+0x56>
10005b68:	2200      	movs	r2, #0
10005b6a:	4915      	ldr	r1, [pc, #84]	; (10005bc0 <dcd_rp2040_irq+0x12c>)
10005b6c:	2000      	movs	r0, #0
10005b6e:	700a      	strb	r2, [r1, #0]
10005b70:	490e      	ldr	r1, [pc, #56]	; (10005bac <dcd_rp2040_irq+0x118>)
10005b72:	431c      	orrs	r4, r3
10005b74:	600a      	str	r2, [r1, #0]
10005b76:	3201      	adds	r2, #1
10005b78:	2101      	movs	r1, #1
10005b7a:	f001 f801 	bl	10006b80 <dcd_event_bus_signal>
10005b7e:	2280      	movs	r2, #128	; 0x80
10005b80:	4b0d      	ldr	r3, [pc, #52]	; (10005bb8 <dcd_rp2040_irq+0x124>)
10005b82:	0312      	lsls	r2, r2, #12
10005b84:	651a      	str	r2, [r3, #80]	; 0x50
10005b86:	e7b0      	b.n	10005aea <dcd_rp2040_irq+0x56>
10005b88:	4653      	mov	r3, sl
10005b8a:	69e2      	ldr	r2, [r4, #28]
10005b8c:	7921      	ldrb	r1, [r4, #4]
10005b8e:	2000      	movs	r0, #0
10005b90:	9300      	str	r3, [sp, #0]
10005b92:	2300      	movs	r3, #0
10005b94:	f001 f88e 	bl	10006cb4 <dcd_event_xfer_complete>
10005b98:	0020      	movs	r0, r4
10005b9a:	f000 f9e1 	bl	10005f60 <hw_endpoint_reset_transfer>
10005b9e:	e7d8      	b.n	10005b52 <dcd_rp2040_irq+0xbe>
10005ba0:	4641      	mov	r1, r8
10005ba2:	4808      	ldr	r0, [pc, #32]	; (10005bc4 <dcd_rp2040_irq+0x130>)
10005ba4:	4061      	eors	r1, r4
10005ba6:	f7fc fa51 	bl	1000204c <panic>
10005baa:	46c0      	nop			; (mov r8, r8)
10005bac:	50110000 	.word	0x50110000
10005bb0:	20001068 	.word	0x20001068
10005bb4:	50100000 	.word	0x50100000
10005bb8:	50113000 	.word	0x50113000
10005bbc:	00010010 	.word	0x00010010
10005bc0:	2000171d 	.word	0x2000171d
10005bc4:	10009524 	.word	0x10009524

10005bc8 <dcd_int_enable>:
10005bc8:	b510      	push	{r4, lr}
10005bca:	2101      	movs	r1, #1
10005bcc:	2005      	movs	r0, #5
10005bce:	f7fc fc1d 	bl	1000240c <irq_set_enabled>
10005bd2:	bd10      	pop	{r4, pc}

10005bd4 <dcd_set_address>:
10005bd4:	4b09      	ldr	r3, [pc, #36]	; (10005bfc <dcd_set_address+0x28>)
10005bd6:	b510      	push	{r4, lr}
10005bd8:	2201      	movs	r2, #1
10005bda:	7019      	strb	r1, [r3, #0]
10005bdc:	2139      	movs	r1, #57	; 0x39
10005bde:	2300      	movs	r3, #0
10005be0:	4807      	ldr	r0, [pc, #28]	; (10005c00 <dcd_set_address+0x2c>)
10005be2:	5442      	strb	r2, [r0, r1]
10005be4:	7142      	strb	r2, [r0, #5]
10005be6:	3247      	adds	r2, #71	; 0x47
10005be8:	5483      	strb	r3, [r0, r2]
10005bea:	7503      	strb	r3, [r0, #20]
10005bec:	2200      	movs	r2, #0
10005bee:	3034      	adds	r0, #52	; 0x34
10005bf0:	3301      	adds	r3, #1
10005bf2:	2100      	movs	r1, #0
10005bf4:	f000 fab0 	bl	10006158 <_hw_endpoint_xfer>
10005bf8:	bd10      	pop	{r4, pc}
10005bfa:	46c0      	nop			; (mov r8, r8)
10005bfc:	2000171d 	.word	0x2000171d
10005c00:	20001068 	.word	0x20001068

10005c04 <dcd_connect>:
10005c04:	2280      	movs	r2, #128	; 0x80
10005c06:	4b02      	ldr	r3, [pc, #8]	; (10005c10 <dcd_connect+0xc>)
10005c08:	0252      	lsls	r2, r2, #9
10005c0a:	64da      	str	r2, [r3, #76]	; 0x4c
10005c0c:	4770      	bx	lr
10005c0e:	46c0      	nop			; (mov r8, r8)
10005c10:	50112000 	.word	0x50112000

10005c14 <dcd_init>:
10005c14:	b570      	push	{r4, r5, r6, lr}
10005c16:	0005      	movs	r5, r0
10005c18:	f000 f97a 	bl	10005f10 <rp2040_usb_init>
10005c1c:	491d      	ldr	r1, [pc, #116]	; (10005c94 <dcd_init+0x80>)
10005c1e:	2005      	movs	r0, #5
10005c20:	f7fc fc16 	bl	10002450 <irq_set_exclusive_handler>
10005c24:	22d0      	movs	r2, #208	; 0xd0
10005c26:	4c1c      	ldr	r4, [pc, #112]	; (10005c98 <dcd_init+0x84>)
10005c28:	00d2      	lsls	r2, r2, #3
10005c2a:	2100      	movs	r1, #0
10005c2c:	0020      	movs	r0, r4
10005c2e:	f7ff fbe5 	bl	100053fc <__wrap_memset>
10005c32:	2300      	movs	r3, #0
10005c34:	4a19      	ldr	r2, [pc, #100]	; (10005c9c <dcd_init+0x88>)
10005c36:	491a      	ldr	r1, [pc, #104]	; (10005ca0 <dcd_init+0x8c>)
10005c38:	7013      	strb	r3, [r2, #0]
10005c3a:	4a1a      	ldr	r2, [pc, #104]	; (10005ca4 <dcd_init+0x90>)
10005c3c:	2040      	movs	r0, #64	; 0x40
10005c3e:	6011      	str	r1, [r2, #0]
10005c40:	2635      	movs	r6, #53	; 0x35
10005c42:	2201      	movs	r2, #1
10005c44:	4918      	ldr	r1, [pc, #96]	; (10005ca8 <dcd_init+0x94>)
10005c46:	70e2      	strb	r2, [r4, #3]
10005c48:	7162      	strb	r2, [r4, #5]
10005c4a:	62e0      	str	r0, [r4, #44]	; 0x2c
10005c4c:	60e1      	str	r1, [r4, #12]
10005c4e:	600b      	str	r3, [r1, #0]
10005c50:	55a2      	strb	r2, [r4, r6]
10005c52:	3602      	adds	r6, #2
10005c54:	55a3      	strb	r3, [r4, r6]
10005c56:	6620      	str	r0, [r4, #96]	; 0x60
10005c58:	3e01      	subs	r6, #1
10005c5a:	3024      	adds	r0, #36	; 0x24
10005c5c:	55a3      	strb	r3, [r4, r6]
10005c5e:	5423      	strb	r3, [r4, r0]
10005c60:	4912      	ldr	r1, [pc, #72]	; (10005cac <dcd_init+0x98>)
10005c62:	4813      	ldr	r0, [pc, #76]	; (10005cb0 <dcd_init+0x9c>)
10005c64:	364b      	adds	r6, #75	; 0x4b
10005c66:	36ff      	adds	r6, #255	; 0xff
10005c68:	60a3      	str	r3, [r4, #8]
10005c6a:	6121      	str	r1, [r4, #16]
10005c6c:	7022      	strb	r2, [r4, #0]
10005c6e:	8726      	strh	r6, [r4, #56]	; 0x38
10005c70:	6420      	str	r0, [r4, #64]	; 0x40
10005c72:	6003      	str	r3, [r0, #0]
10005c74:	63e3      	str	r3, [r4, #60]	; 0x3c
10005c76:	3334      	adds	r3, #52	; 0x34
10005c78:	54e2      	strb	r2, [r4, r3]
10005c7a:	4b0e      	ldr	r3, [pc, #56]	; (10005cb4 <dcd_init+0xa0>)
10005c7c:	6461      	str	r1, [r4, #68]	; 0x44
10005c7e:	641a      	str	r2, [r3, #64]	; 0x40
10005c80:	2280      	movs	r2, #128	; 0x80
10005c82:	0592      	lsls	r2, r2, #22
10005c84:	64da      	str	r2, [r3, #76]	; 0x4c
10005c86:	2290      	movs	r2, #144	; 0x90
10005c88:	490b      	ldr	r1, [pc, #44]	; (10005cb8 <dcd_init+0xa4>)
10005c8a:	0028      	movs	r0, r5
10005c8c:	5099      	str	r1, [r3, r2]
10005c8e:	f7ff ffb9 	bl	10005c04 <dcd_connect>
10005c92:	bd70      	pop	{r4, r5, r6, pc}
10005c94:	10005a95 	.word	0x10005a95
10005c98:	20001068 	.word	0x20001068
10005c9c:	2000171d 	.word	0x2000171d
10005ca0:	50100180 	.word	0x50100180
10005ca4:	200016ec 	.word	0x200016ec
10005ca8:	50100084 	.word	0x50100084
10005cac:	50100100 	.word	0x50100100
10005cb0:	50100080 	.word	0x50100080
10005cb4:	50110000 	.word	0x50110000
10005cb8:	00011010 	.word	0x00011010

10005cbc <dcd_edpt0_status_complete>:
10005cbc:	780b      	ldrb	r3, [r1, #0]
10005cbe:	065b      	lsls	r3, r3, #25
10005cc0:	d102      	bne.n	10005cc8 <dcd_edpt0_status_complete+0xc>
10005cc2:	784b      	ldrb	r3, [r1, #1]
10005cc4:	2b05      	cmp	r3, #5
10005cc6:	d009      	beq.n	10005cdc <dcd_edpt0_status_complete+0x20>
10005cc8:	2101      	movs	r1, #1
10005cca:	2039      	movs	r0, #57	; 0x39
10005ccc:	2200      	movs	r2, #0
10005cce:	4b06      	ldr	r3, [pc, #24]	; (10005ce8 <dcd_edpt0_status_complete+0x2c>)
10005cd0:	7159      	strb	r1, [r3, #5]
10005cd2:	5419      	strb	r1, [r3, r0]
10005cd4:	3147      	adds	r1, #71	; 0x47
10005cd6:	751a      	strb	r2, [r3, #20]
10005cd8:	545a      	strb	r2, [r3, r1]
10005cda:	4770      	bx	lr
10005cdc:	4b03      	ldr	r3, [pc, #12]	; (10005cec <dcd_edpt0_status_complete+0x30>)
10005cde:	781a      	ldrb	r2, [r3, #0]
10005ce0:	4b03      	ldr	r3, [pc, #12]	; (10005cf0 <dcd_edpt0_status_complete+0x34>)
10005ce2:	601a      	str	r2, [r3, #0]
10005ce4:	e7f0      	b.n	10005cc8 <dcd_edpt0_status_complete+0xc>
10005ce6:	46c0      	nop			; (mov r8, r8)
10005ce8:	20001068 	.word	0x20001068
10005cec:	2000171d 	.word	0x2000171d
10005cf0:	50110000 	.word	0x50110000

10005cf4 <dcd_edpt_open>:
10005cf4:	b5f8      	push	{r3, r4, r5, r6, r7, lr}
10005cf6:	4647      	mov	r7, r8
10005cf8:	46ce      	mov	lr, r9
10005cfa:	2307      	movs	r3, #7
10005cfc:	b580      	push	{r7, lr}
10005cfe:	790a      	ldrb	r2, [r1, #4]
10005d00:	788e      	ldrb	r6, [r1, #2]
10005d02:	7948      	ldrb	r0, [r1, #5]
10005d04:	78cf      	ldrb	r7, [r1, #3]
10005d06:	217f      	movs	r1, #127	; 0x7f
10005d08:	2568      	movs	r5, #104	; 0x68
10005d0a:	4003      	ands	r3, r0
10005d0c:	07bf      	lsls	r7, r7, #30
10005d0e:	021b      	lsls	r3, r3, #8
10005d10:	0fbf      	lsrs	r7, r7, #30
10005d12:	4313      	orrs	r3, r2
10005d14:	b2fa      	uxtb	r2, r7
10005d16:	4691      	mov	r9, r2
10005d18:	b272      	sxtb	r2, r6
10005d1a:	4694      	mov	ip, r2
10005d1c:	4031      	ands	r1, r6
10005d1e:	434d      	muls	r5, r1
10005d20:	2234      	movs	r2, #52	; 0x34
10005d22:	46a8      	mov	r8, r5
10005d24:	4665      	mov	r5, ip
10005d26:	09f4      	lsrs	r4, r6, #7
10005d28:	4362      	muls	r2, r4
10005d2a:	483d      	ldr	r0, [pc, #244]	; (10005e20 <dcd_edpt_open+0x12c>)
10005d2c:	4442      	add	r2, r8
10005d2e:	1882      	adds	r2, r0, r2
10005d30:	7116      	strb	r6, [r2, #4]
10005d32:	0fee      	lsrs	r6, r5, #31
10005d34:	7056      	strb	r6, [r2, #1]
10005d36:	43ee      	mvns	r6, r5
10005d38:	0ff6      	lsrs	r6, r6, #31
10005d3a:	70d6      	strb	r6, [r2, #3]
10005d3c:	424e      	negs	r6, r1
10005d3e:	414e      	adcs	r6, r1
10005d40:	7091      	strb	r1, [r2, #2]
10005d42:	7156      	strb	r6, [r2, #5]
10005d44:	464a      	mov	r2, r9
10005d46:	2a01      	cmp	r2, #1
10005d48:	d05c      	beq.n	10005e04 <dcd_edpt_open+0x110>
10005d4a:	2b40      	cmp	r3, #64	; 0x40
10005d4c:	d85d      	bhi.n	10005e0a <dcd_edpt_open+0x116>
10005d4e:	2234      	movs	r2, #52	; 0x34
10005d50:	2668      	movs	r6, #104	; 0x68
10005d52:	4362      	muls	r2, r4
10005d54:	434e      	muls	r6, r1
10005d56:	1992      	adds	r2, r2, r6
10005d58:	1882      	adds	r2, r0, r2
10005d5a:	0016      	movs	r6, r2
10005d5c:	4665      	mov	r5, ip
10005d5e:	3630      	adds	r6, #48	; 0x30
10005d60:	7037      	strb	r7, [r6, #0]
10005d62:	62d3      	str	r3, [r2, #44]	; 0x2c
10005d64:	00ce      	lsls	r6, r1, #3
10005d66:	2d00      	cmp	r5, #0
10005d68:	db3c      	blt.n	10005de4 <dcd_edpt_open+0xf0>
10005d6a:	4d2e      	ldr	r5, [pc, #184]	; (10005e24 <dcd_edpt_open+0x130>)
10005d6c:	2700      	movs	r7, #0
10005d6e:	46ac      	mov	ip, r5
10005d70:	4466      	add	r6, ip
10005d72:	60d6      	str	r6, [r2, #12]
10005d74:	6037      	str	r7, [r6, #0]
10005d76:	2900      	cmp	r1, #0
10005d78:	d03c      	beq.n	10005df4 <dcd_edpt_open+0x100>
10005d7a:	4d2b      	ldr	r5, [pc, #172]	; (10005e28 <dcd_edpt_open+0x134>)
10005d7c:	00ce      	lsls	r6, r1, #3
10005d7e:	46ac      	mov	ip, r5
10005d80:	4466      	add	r6, ip
10005d82:	6096      	str	r6, [r2, #8]
10005d84:	2568      	movs	r5, #104	; 0x68
10005d86:	2234      	movs	r2, #52	; 0x34
10005d88:	434d      	muls	r5, r1
10005d8a:	46ac      	mov	ip, r5
10005d8c:	4362      	muls	r2, r4
10005d8e:	4f27      	ldr	r7, [pc, #156]	; (10005e2c <dcd_edpt_open+0x138>)
10005d90:	4462      	add	r2, ip
10005d92:	683e      	ldr	r6, [r7, #0]
10005d94:	1882      	adds	r2, r0, r2
10005d96:	6116      	str	r6, [r2, #16]
10005d98:	2b40      	cmp	r3, #64	; 0x40
10005d9a:	d200      	bcs.n	10005d9e <dcd_edpt_open+0xaa>
10005d9c:	2340      	movs	r3, #64	; 0x40
10005d9e:	223f      	movs	r2, #63	; 0x3f
10005da0:	18f3      	adds	r3, r6, r3
10005da2:	4213      	tst	r3, r2
10005da4:	d001      	beq.n	10005daa <dcd_edpt_open+0xb6>
10005da6:	4393      	bics	r3, r2
10005da8:	3340      	adds	r3, #64	; 0x40
10005daa:	603b      	str	r3, [r7, #0]
10005dac:	4b20      	ldr	r3, [pc, #128]	; (10005e30 <dcd_edpt_open+0x13c>)
10005dae:	2268      	movs	r2, #104	; 0x68
10005db0:	4073      	eors	r3, r6
10005db2:	26a0      	movs	r6, #160	; 0xa0
10005db4:	0636      	lsls	r6, r6, #24
10005db6:	431e      	orrs	r6, r3
10005db8:	464b      	mov	r3, r9
10005dba:	069d      	lsls	r5, r3, #26
10005dbc:	2334      	movs	r3, #52	; 0x34
10005dbe:	434a      	muls	r2, r1
10005dc0:	4363      	muls	r3, r4
10005dc2:	189b      	adds	r3, r3, r2
10005dc4:	18c3      	adds	r3, r0, r3
10005dc6:	689b      	ldr	r3, [r3, #8]
10005dc8:	4335      	orrs	r5, r6
10005dca:	601d      	str	r5, [r3, #0]
10005dcc:	2334      	movs	r3, #52	; 0x34
10005dce:	435c      	muls	r4, r3
10005dd0:	3334      	adds	r3, #52	; 0x34
10005dd2:	4359      	muls	r1, r3
10005dd4:	3b67      	subs	r3, #103	; 0x67
10005dd6:	1861      	adds	r1, r4, r1
10005dd8:	5443      	strb	r3, [r0, r1]
10005dda:	2001      	movs	r0, #1
10005ddc:	bc0c      	pop	{r2, r3}
10005dde:	4690      	mov	r8, r2
10005de0:	4699      	mov	r9, r3
10005de2:	bdf8      	pop	{r3, r4, r5, r6, r7, pc}
10005de4:	4d13      	ldr	r5, [pc, #76]	; (10005e34 <dcd_edpt_open+0x140>)
10005de6:	2700      	movs	r7, #0
10005de8:	46ac      	mov	ip, r5
10005dea:	4466      	add	r6, ip
10005dec:	60d6      	str	r6, [r2, #12]
10005dee:	6037      	str	r7, [r6, #0]
10005df0:	2900      	cmp	r1, #0
10005df2:	d10e      	bne.n	10005e12 <dcd_edpt_open+0x11e>
10005df4:	2334      	movs	r3, #52	; 0x34
10005df6:	2200      	movs	r2, #0
10005df8:	4363      	muls	r3, r4
10005dfa:	18c3      	adds	r3, r0, r3
10005dfc:	609a      	str	r2, [r3, #8]
10005dfe:	4a0e      	ldr	r2, [pc, #56]	; (10005e38 <dcd_edpt_open+0x144>)
10005e00:	611a      	str	r2, [r3, #16]
10005e02:	e7e3      	b.n	10005dcc <dcd_edpt_open+0xd8>
10005e04:	4a0d      	ldr	r2, [pc, #52]	; (10005e3c <dcd_edpt_open+0x148>)
10005e06:	4293      	cmp	r3, r2
10005e08:	d9a1      	bls.n	10005d4e <dcd_edpt_open+0x5a>
10005e0a:	0019      	movs	r1, r3
10005e0c:	480c      	ldr	r0, [pc, #48]	; (10005e40 <dcd_edpt_open+0x14c>)
10005e0e:	f7fc f91d 	bl	1000204c <panic>
10005e12:	4d07      	ldr	r5, [pc, #28]	; (10005e30 <dcd_edpt_open+0x13c>)
10005e14:	00ce      	lsls	r6, r1, #3
10005e16:	46ac      	mov	ip, r5
10005e18:	4466      	add	r6, ip
10005e1a:	6096      	str	r6, [r2, #8]
10005e1c:	e7b2      	b.n	10005d84 <dcd_edpt_open+0x90>
10005e1e:	46c0      	nop			; (mov r8, r8)
10005e20:	20001068 	.word	0x20001068
10005e24:	50100084 	.word	0x50100084
10005e28:	50100004 	.word	0x50100004
10005e2c:	200016ec 	.word	0x200016ec
10005e30:	50100000 	.word	0x50100000
10005e34:	50100080 	.word	0x50100080
10005e38:	50100100 	.word	0x50100100
10005e3c:	000003ff 	.word	0x000003ff
10005e40:	100094fc 	.word	0x100094fc

10005e44 <dcd_edpt_xfer>:
10005e44:	b510      	push	{r4, lr}
10005e46:	000c      	movs	r4, r1
10005e48:	2034      	movs	r0, #52	; 0x34
10005e4a:	0011      	movs	r1, r2
10005e4c:	001a      	movs	r2, r3
10005e4e:	09e3      	lsrs	r3, r4, #7
10005e50:	4358      	muls	r0, r3
10005e52:	237f      	movs	r3, #127	; 0x7f
10005e54:	401c      	ands	r4, r3
10005e56:	3b17      	subs	r3, #23
10005e58:	4363      	muls	r3, r4
10005e5a:	18c0      	adds	r0, r0, r3
10005e5c:	4b03      	ldr	r3, [pc, #12]	; (10005e6c <dcd_edpt_xfer+0x28>)
10005e5e:	18c0      	adds	r0, r0, r3
10005e60:	2301      	movs	r3, #1
10005e62:	f000 f979 	bl	10006158 <_hw_endpoint_xfer>
10005e66:	2001      	movs	r0, #1
10005e68:	bd10      	pop	{r4, pc}
10005e6a:	46c0      	nop			; (mov r8, r8)
10005e6c:	20001068 	.word	0x20001068

10005e70 <dcd_edpt_stall>:
10005e70:	b570      	push	{r4, r5, r6, lr}
10005e72:	257f      	movs	r5, #127	; 0x7f
10005e74:	2034      	movs	r0, #52	; 0x34
10005e76:	2368      	movs	r3, #104	; 0x68
10005e78:	400d      	ands	r5, r1
10005e7a:	09cc      	lsrs	r4, r1, #7
10005e7c:	436b      	muls	r3, r5
10005e7e:	4360      	muls	r0, r4
10005e80:	4e0c      	ldr	r6, [pc, #48]	; (10005eb4 <dcd_edpt_stall+0x44>)
10005e82:	18c0      	adds	r0, r0, r3
10005e84:	1830      	adds	r0, r6, r0
10005e86:	7883      	ldrb	r3, [r0, #2]
10005e88:	2b00      	cmp	r3, #0
10005e8a:	d105      	bne.n	10005e98 <dcd_edpt_stall+0x28>
10005e8c:	7843      	ldrb	r3, [r0, #1]
10005e8e:	425a      	negs	r2, r3
10005e90:	4153      	adcs	r3, r2
10005e92:	4a09      	ldr	r2, [pc, #36]	; (10005eb8 <dcd_edpt_stall+0x48>)
10005e94:	3301      	adds	r3, #1
10005e96:	6693      	str	r3, [r2, #104]	; 0x68
10005e98:	2280      	movs	r2, #128	; 0x80
10005e9a:	4908      	ldr	r1, [pc, #32]	; (10005ebc <dcd_edpt_stall+0x4c>)
10005e9c:	0112      	lsls	r2, r2, #4
10005e9e:	f000 f869 	bl	10005f74 <_hw_endpoint_buffer_control_update32>
10005ea2:	2368      	movs	r3, #104	; 0x68
10005ea4:	2134      	movs	r1, #52	; 0x34
10005ea6:	435d      	muls	r5, r3
10005ea8:	4361      	muls	r1, r4
10005eaa:	1949      	adds	r1, r1, r5
10005eac:	1871      	adds	r1, r6, r1
10005eae:	3b67      	subs	r3, #103	; 0x67
10005eb0:	750b      	strb	r3, [r1, #20]
10005eb2:	bd70      	pop	{r4, r5, r6, pc}
10005eb4:	20001068 	.word	0x20001068
10005eb8:	50112000 	.word	0x50112000
10005ebc:	fffff7ff 	.word	0xfffff7ff

10005ec0 <dcd_edpt_clear_stall>:
10005ec0:	b570      	push	{r4, r5, r6, lr}
10005ec2:	257f      	movs	r5, #127	; 0x7f
10005ec4:	2034      	movs	r0, #52	; 0x34
10005ec6:	2368      	movs	r3, #104	; 0x68
10005ec8:	400d      	ands	r5, r1
10005eca:	09cc      	lsrs	r4, r1, #7
10005ecc:	436b      	muls	r3, r5
10005ece:	4360      	muls	r0, r4
10005ed0:	4e0c      	ldr	r6, [pc, #48]	; (10005f04 <dcd_edpt_clear_stall+0x44>)
10005ed2:	18c0      	adds	r0, r0, r3
10005ed4:	1830      	adds	r0, r6, r0
10005ed6:	7883      	ldrb	r3, [r0, #2]
10005ed8:	2b00      	cmp	r3, #0
10005eda:	d105      	bne.n	10005ee8 <dcd_edpt_clear_stall+0x28>
10005edc:	7843      	ldrb	r3, [r0, #1]
10005ede:	425a      	negs	r2, r3
10005ee0:	4153      	adcs	r3, r2
10005ee2:	4a09      	ldr	r2, [pc, #36]	; (10005f08 <dcd_edpt_clear_stall+0x48>)
10005ee4:	3301      	adds	r3, #1
10005ee6:	6693      	str	r3, [r2, #104]	; 0x68
10005ee8:	2200      	movs	r2, #0
10005eea:	4908      	ldr	r1, [pc, #32]	; (10005f0c <dcd_edpt_clear_stall+0x4c>)
10005eec:	f000 f842 	bl	10005f74 <_hw_endpoint_buffer_control_update32>
10005ef0:	2368      	movs	r3, #104	; 0x68
10005ef2:	2134      	movs	r1, #52	; 0x34
10005ef4:	435d      	muls	r5, r3
10005ef6:	2300      	movs	r3, #0
10005ef8:	4361      	muls	r1, r4
10005efa:	1949      	adds	r1, r1, r5
10005efc:	1871      	adds	r1, r6, r1
10005efe:	750b      	strb	r3, [r1, #20]
10005f00:	bd70      	pop	{r4, r5, r6, pc}
10005f02:	46c0      	nop			; (mov r8, r8)
10005f04:	20001068 	.word	0x20001068
10005f08:	50113000 	.word	0x50113000
10005f0c:	fffff7ff 	.word	0xfffff7ff

10005f10 <rp2040_usb_init>:
10005f10:	2280      	movs	r2, #128	; 0x80
10005f12:	4b0e      	ldr	r3, [pc, #56]	; (10005f4c <rp2040_usb_init+0x3c>)
10005f14:	0452      	lsls	r2, r2, #17
10005f16:	b510      	push	{r4, lr}
10005f18:	601a      	str	r2, [r3, #0]
10005f1a:	4b0d      	ldr	r3, [pc, #52]	; (10005f50 <rp2040_usb_init+0x40>)
10005f1c:	490d      	ldr	r1, [pc, #52]	; (10005f54 <rp2040_usb_init+0x44>)
10005f1e:	601a      	str	r2, [r3, #0]
10005f20:	0010      	movs	r0, r2
10005f22:	688b      	ldr	r3, [r1, #8]
10005f24:	4398      	bics	r0, r3
10005f26:	d1fb      	bne.n	10005f20 <rp2040_usb_init+0x10>
10005f28:	4c0b      	ldr	r4, [pc, #44]	; (10005f58 <rp2040_usb_init+0x48>)
10005f2a:	229c      	movs	r2, #156	; 0x9c
10005f2c:	2100      	movs	r1, #0
10005f2e:	0020      	movs	r0, r4
10005f30:	f7ff fa64 	bl	100053fc <__wrap_memset>
10005f34:	2280      	movs	r2, #128	; 0x80
10005f36:	2100      	movs	r1, #0
10005f38:	0152      	lsls	r2, r2, #5
10005f3a:	4808      	ldr	r0, [pc, #32]	; (10005f5c <rp2040_usb_init+0x4c>)
10005f3c:	f7ff fa5e 	bl	100053fc <__wrap_memset>
10005f40:	2309      	movs	r3, #9
10005f42:	6763      	str	r3, [r4, #116]	; 0x74
10005f44:	3303      	adds	r3, #3
10005f46:	67a3      	str	r3, [r4, #120]	; 0x78
10005f48:	bd10      	pop	{r4, pc}
10005f4a:	46c0      	nop			; (mov r8, r8)
10005f4c:	4000e000 	.word	0x4000e000
10005f50:	4000f000 	.word	0x4000f000
10005f54:	4000c000 	.word	0x4000c000
10005f58:	50110000 	.word	0x50110000
10005f5c:	50100000 	.word	0x50100000

10005f60 <hw_endpoint_reset_transfer>:
10005f60:	2300      	movs	r3, #0
10005f62:	2232      	movs	r2, #50	; 0x32
10005f64:	7503      	strb	r3, [r0, #20]
10005f66:	7543      	strb	r3, [r0, #21]
10005f68:	5483      	strb	r3, [r0, r2]
10005f6a:	6183      	str	r3, [r0, #24]
10005f6c:	61c3      	str	r3, [r0, #28]
10005f6e:	6203      	str	r3, [r0, #32]
10005f70:	6283      	str	r3, [r0, #40]	; 0x28
10005f72:	4770      	bx	lr

10005f74 <_hw_endpoint_buffer_control_update32>:
10005f74:	b510      	push	{r4, lr}
10005f76:	68c3      	ldr	r3, [r0, #12]
10005f78:	2900      	cmp	r1, #0
10005f7a:	d001      	beq.n	10005f80 <_hw_endpoint_buffer_control_update32+0xc>
10005f7c:	681c      	ldr	r4, [r3, #0]
10005f7e:	4021      	ands	r1, r4
10005f80:	2a00      	cmp	r2, #0
10005f82:	d011      	beq.n	10005fa8 <_hw_endpoint_buffer_control_update32+0x34>
10005f84:	2480      	movs	r4, #128	; 0x80
10005f86:	00e4      	lsls	r4, r4, #3
10005f88:	4311      	orrs	r1, r2
10005f8a:	4222      	tst	r2, r4
10005f8c:	d00c      	beq.n	10005fa8 <_hw_endpoint_buffer_control_update32+0x34>
10005f8e:	681a      	ldr	r2, [r3, #0]
10005f90:	4222      	tst	r2, r4
10005f92:	d10b      	bne.n	10005fac <_hw_endpoint_buffer_control_update32+0x38>
10005f94:	4a09      	ldr	r2, [pc, #36]	; (10005fbc <_hw_endpoint_buffer_control_update32+0x48>)
10005f96:	400a      	ands	r2, r1
10005f98:	601a      	str	r2, [r3, #0]
10005f9a:	e7ff      	b.n	10005f9c <_hw_endpoint_buffer_control_update32+0x28>
10005f9c:	e7ff      	b.n	10005f9e <_hw_endpoint_buffer_control_update32+0x2a>
10005f9e:	e7ff      	b.n	10005fa0 <_hw_endpoint_buffer_control_update32+0x2c>
10005fa0:	e7ff      	b.n	10005fa2 <_hw_endpoint_buffer_control_update32+0x2e>
10005fa2:	e7ff      	b.n	10005fa4 <_hw_endpoint_buffer_control_update32+0x30>
10005fa4:	e7ff      	b.n	10005fa6 <_hw_endpoint_buffer_control_update32+0x32>
10005fa6:	68c3      	ldr	r3, [r0, #12]
10005fa8:	6019      	str	r1, [r3, #0]
10005faa:	bd10      	pop	{r4, pc}
10005fac:	7843      	ldrb	r3, [r0, #1]
10005fae:	4a04      	ldr	r2, [pc, #16]	; (10005fc0 <_hw_endpoint_buffer_control_update32+0x4c>)
10005fb0:	009b      	lsls	r3, r3, #2
10005fb2:	7881      	ldrb	r1, [r0, #2]
10005fb4:	589a      	ldr	r2, [r3, r2]
10005fb6:	4803      	ldr	r0, [pc, #12]	; (10005fc4 <_hw_endpoint_buffer_control_update32+0x50>)
10005fb8:	f7fc f848 	bl	1000204c <panic>
10005fbc:	fffffbff 	.word	0xfffffbff
10005fc0:	20000364 	.word	0x20000364
10005fc4:	10009538 	.word	0x10009538

10005fc8 <_hw_endpoint_start_next_buffer>:
10005fc8:	b570      	push	{r4, r5, r6, lr}
10005fca:	78c3      	ldrb	r3, [r0, #3]
10005fcc:	0004      	movs	r4, r0
10005fce:	6a05      	ldr	r5, [r0, #32]
10005fd0:	2b00      	cmp	r3, #0
10005fd2:	d022      	beq.n	1000601a <_hw_endpoint_start_next_buffer+0x52>
10005fd4:	2280      	movs	r2, #128	; 0x80
10005fd6:	00d2      	lsls	r2, r2, #3
10005fd8:	432a      	orrs	r2, r5
10005fda:	7963      	ldrb	r3, [r4, #5]
10005fdc:	2b00      	cmp	r3, #0
10005fde:	d002      	beq.n	10005fe6 <_hw_endpoint_start_next_buffer+0x1e>
10005fe0:	2180      	movs	r1, #128	; 0x80
10005fe2:	0189      	lsls	r1, r1, #6
10005fe4:	430a      	orrs	r2, r1
10005fe6:	2101      	movs	r1, #1
10005fe8:	404b      	eors	r3, r1
10005fea:	7163      	strb	r3, [r4, #5]
10005fec:	2324      	movs	r3, #36	; 0x24
10005fee:	5ce3      	ldrb	r3, [r4, r3]
10005ff0:	2b00      	cmp	r3, #0
10005ff2:	d002      	beq.n	10005ffa <_hw_endpoint_start_next_buffer+0x32>
10005ff4:	2380      	movs	r3, #128	; 0x80
10005ff6:	01db      	lsls	r3, r3, #7
10005ff8:	431a      	orrs	r2, r3
10005ffa:	68e1      	ldr	r1, [r4, #12]
10005ffc:	680b      	ldr	r3, [r1, #0]
10005ffe:	055b      	lsls	r3, r3, #21
10006000:	d418      	bmi.n	10006034 <_hw_endpoint_start_next_buffer+0x6c>
10006002:	4b10      	ldr	r3, [pc, #64]	; (10006044 <_hw_endpoint_start_next_buffer+0x7c>)
10006004:	4013      	ands	r3, r2
10006006:	600b      	str	r3, [r1, #0]
10006008:	e7ff      	b.n	1000600a <_hw_endpoint_start_next_buffer+0x42>
1000600a:	e7ff      	b.n	1000600c <_hw_endpoint_start_next_buffer+0x44>
1000600c:	e7ff      	b.n	1000600e <_hw_endpoint_start_next_buffer+0x46>
1000600e:	e7ff      	b.n	10006010 <_hw_endpoint_start_next_buffer+0x48>
10006010:	e7ff      	b.n	10006012 <_hw_endpoint_start_next_buffer+0x4a>
10006012:	e7ff      	b.n	10006014 <_hw_endpoint_start_next_buffer+0x4c>
10006014:	68e3      	ldr	r3, [r4, #12]
10006016:	601a      	str	r2, [r3, #0]
10006018:	bd70      	pop	{r4, r5, r6, pc}
1000601a:	69c2      	ldr	r2, [r0, #28]
1000601c:	6a83      	ldr	r3, [r0, #40]	; 0x28
1000601e:	4694      	mov	ip, r2
10006020:	4463      	add	r3, ip
10006022:	002a      	movs	r2, r5
10006024:	0019      	movs	r1, r3
10006026:	6900      	ldr	r0, [r0, #16]
10006028:	f7ff f9ee 	bl	10005408 <__wrap___aeabi_memcpy>
1000602c:	2284      	movs	r2, #132	; 0x84
1000602e:	0212      	lsls	r2, r2, #8
10006030:	432a      	orrs	r2, r5
10006032:	e7d2      	b.n	10005fda <_hw_endpoint_start_next_buffer+0x12>
10006034:	7863      	ldrb	r3, [r4, #1]
10006036:	4a04      	ldr	r2, [pc, #16]	; (10006048 <_hw_endpoint_start_next_buffer+0x80>)
10006038:	009b      	lsls	r3, r3, #2
1000603a:	78a1      	ldrb	r1, [r4, #2]
1000603c:	589a      	ldr	r2, [r3, r2]
1000603e:	4803      	ldr	r0, [pc, #12]	; (1000604c <_hw_endpoint_start_next_buffer+0x84>)
10006040:	f7fc f804 	bl	1000204c <panic>
10006044:	fffffbff 	.word	0xfffffbff
10006048:	20000364 	.word	0x20000364
1000604c:	10009538 	.word	0x10009538

10006050 <_hw_endpoint_xfer_continue>:
10006050:	b5f8      	push	{r3, r4, r5, r6, r7, lr}
10006052:	7d46      	ldrb	r6, [r0, #21]
10006054:	0004      	movs	r4, r0
10006056:	2e00      	cmp	r6, #0
10006058:	d100      	bne.n	1000605c <_hw_endpoint_xfer_continue+0xc>
1000605a:	e062      	b.n	10006122 <_hw_endpoint_xfer_continue+0xd2>
1000605c:	68c3      	ldr	r3, [r0, #12]
1000605e:	78c0      	ldrb	r0, [r0, #3]
10006060:	681d      	ldr	r5, [r3, #0]
10006062:	69e1      	ldr	r1, [r4, #28]
10006064:	05ad      	lsls	r5, r5, #22
10006066:	0dad      	lsrs	r5, r5, #22
10006068:	2800      	cmp	r0, #0
1000606a:	d137      	bne.n	100060dc <_hw_endpoint_xfer_continue+0x8c>
1000606c:	1869      	adds	r1, r5, r1
1000606e:	61e1      	str	r1, [r4, #28]
10006070:	69a2      	ldr	r2, [r4, #24]
10006072:	1a55      	subs	r5, r2, r1
10006074:	2d40      	cmp	r5, #64	; 0x40
10006076:	d82f      	bhi.n	100060d8 <_hw_endpoint_xfer_continue+0x88>
10006078:	186b      	adds	r3, r5, r1
1000607a:	1a9b      	subs	r3, r3, r2
1000607c:	425f      	negs	r7, r3
1000607e:	417b      	adcs	r3, r7
10006080:	2724      	movs	r7, #36	; 0x24
10006082:	b2db      	uxtb	r3, r3
10006084:	6225      	str	r5, [r4, #32]
10006086:	55e3      	strb	r3, [r4, r7]
10006088:	428a      	cmp	r2, r1
1000608a:	d34f      	bcc.n	1000612c <_hw_endpoint_xfer_continue+0xdc>
1000608c:	d022      	beq.n	100060d4 <_hw_endpoint_xfer_continue+0x84>
1000608e:	2800      	cmp	r0, #0
10006090:	d03b      	beq.n	1000610a <_hw_endpoint_xfer_continue+0xba>
10006092:	2280      	movs	r2, #128	; 0x80
10006094:	00d2      	lsls	r2, r2, #3
10006096:	4315      	orrs	r5, r2
10006098:	7962      	ldrb	r2, [r4, #5]
1000609a:	2a00      	cmp	r2, #0
1000609c:	d002      	beq.n	100060a4 <_hw_endpoint_xfer_continue+0x54>
1000609e:	2180      	movs	r1, #128	; 0x80
100060a0:	0189      	lsls	r1, r1, #6
100060a2:	430d      	orrs	r5, r1
100060a4:	2101      	movs	r1, #1
100060a6:	404a      	eors	r2, r1
100060a8:	7162      	strb	r2, [r4, #5]
100060aa:	2b00      	cmp	r3, #0
100060ac:	d002      	beq.n	100060b4 <_hw_endpoint_xfer_continue+0x64>
100060ae:	2380      	movs	r3, #128	; 0x80
100060b0:	01db      	lsls	r3, r3, #7
100060b2:	431d      	orrs	r5, r3
100060b4:	68e2      	ldr	r2, [r4, #12]
100060b6:	6813      	ldr	r3, [r2, #0]
100060b8:	055b      	lsls	r3, r3, #21
100060ba:	d43a      	bmi.n	10006132 <_hw_endpoint_xfer_continue+0xe2>
100060bc:	4b21      	ldr	r3, [pc, #132]	; (10006144 <_hw_endpoint_xfer_continue+0xf4>)
100060be:	402b      	ands	r3, r5
100060c0:	6013      	str	r3, [r2, #0]
100060c2:	e7ff      	b.n	100060c4 <_hw_endpoint_xfer_continue+0x74>
100060c4:	e7ff      	b.n	100060c6 <_hw_endpoint_xfer_continue+0x76>
100060c6:	e7ff      	b.n	100060c8 <_hw_endpoint_xfer_continue+0x78>
100060c8:	e7ff      	b.n	100060ca <_hw_endpoint_xfer_continue+0x7a>
100060ca:	e7ff      	b.n	100060cc <_hw_endpoint_xfer_continue+0x7c>
100060cc:	e7ff      	b.n	100060ce <_hw_endpoint_xfer_continue+0x7e>
100060ce:	2600      	movs	r6, #0
100060d0:	68e3      	ldr	r3, [r4, #12]
100060d2:	601d      	str	r5, [r3, #0]
100060d4:	0030      	movs	r0, r6
100060d6:	bdf8      	pop	{r3, r4, r5, r6, r7, pc}
100060d8:	2540      	movs	r5, #64	; 0x40
100060da:	e7cd      	b.n	10006078 <_hw_endpoint_xfer_continue+0x28>
100060dc:	6aa3      	ldr	r3, [r4, #40]	; 0x28
100060de:	002a      	movs	r2, r5
100060e0:	1858      	adds	r0, r3, r1
100060e2:	6921      	ldr	r1, [r4, #16]
100060e4:	f7ff f990 	bl	10005408 <__wrap___aeabi_memcpy>
100060e8:	69e3      	ldr	r3, [r4, #28]
100060ea:	78e0      	ldrb	r0, [r4, #3]
100060ec:	18e9      	adds	r1, r5, r3
100060ee:	61e1      	str	r1, [r4, #28]
100060f0:	2800      	cmp	r0, #0
100060f2:	d0bd      	beq.n	10006070 <_hw_endpoint_xfer_continue+0x20>
100060f4:	6a23      	ldr	r3, [r4, #32]
100060f6:	429d      	cmp	r5, r3
100060f8:	d2ba      	bcs.n	10006070 <_hw_endpoint_xfer_continue+0x20>
100060fa:	2300      	movs	r3, #0
100060fc:	2201      	movs	r2, #1
100060fe:	6223      	str	r3, [r4, #32]
10006100:	3324      	adds	r3, #36	; 0x24
10006102:	61a1      	str	r1, [r4, #24]
10006104:	0006      	movs	r6, r0
10006106:	54e2      	strb	r2, [r4, r3]
10006108:	e7e4      	b.n	100060d4 <_hw_endpoint_xfer_continue+0x84>
1000610a:	6aa3      	ldr	r3, [r4, #40]	; 0x28
1000610c:	002a      	movs	r2, r5
1000610e:	469c      	mov	ip, r3
10006110:	6920      	ldr	r0, [r4, #16]
10006112:	4461      	add	r1, ip
10006114:	f7ff f978 	bl	10005408 <__wrap___aeabi_memcpy>
10006118:	2384      	movs	r3, #132	; 0x84
1000611a:	021b      	lsls	r3, r3, #8
1000611c:	431d      	orrs	r5, r3
1000611e:	5de3      	ldrb	r3, [r4, r7]
10006120:	e7ba      	b.n	10006098 <_hw_endpoint_xfer_continue+0x48>
10006122:	7881      	ldrb	r1, [r0, #2]
10006124:	4a08      	ldr	r2, [pc, #32]	; (10006148 <_hw_endpoint_xfer_continue+0xf8>)
10006126:	4809      	ldr	r0, [pc, #36]	; (1000614c <_hw_endpoint_xfer_continue+0xfc>)
10006128:	f7fb ff90 	bl	1000204c <panic>
1000612c:	4808      	ldr	r0, [pc, #32]	; (10006150 <_hw_endpoint_xfer_continue+0x100>)
1000612e:	f7fb ff8d 	bl	1000204c <panic>
10006132:	7863      	ldrb	r3, [r4, #1]
10006134:	4a04      	ldr	r2, [pc, #16]	; (10006148 <_hw_endpoint_xfer_continue+0xf8>)
10006136:	009b      	lsls	r3, r3, #2
10006138:	78a1      	ldrb	r1, [r4, #2]
1000613a:	589a      	ldr	r2, [r3, r2]
1000613c:	4805      	ldr	r0, [pc, #20]	; (10006154 <_hw_endpoint_xfer_continue+0x104>)
1000613e:	f7fb ff85 	bl	1000204c <panic>
10006142:	46c0      	nop			; (mov r8, r8)
10006144:	fffffbff 	.word	0xfffffbff
10006148:	20000364 	.word	0x20000364
1000614c:	10009558 	.word	0x10009558
10006150:	10009584 	.word	0x10009584
10006154:	10009538 	.word	0x10009538

10006158 <_hw_endpoint_xfer>:
10006158:	b570      	push	{r4, r5, r6, lr}
1000615a:	001e      	movs	r6, r3
1000615c:	0004      	movs	r4, r0
1000615e:	7d43      	ldrb	r3, [r0, #21]
10006160:	2e00      	cmp	r6, #0
10006162:	d048      	beq.n	100061f6 <_hw_endpoint_xfer+0x9e>
10006164:	2b00      	cmp	r3, #0
10006166:	d003      	beq.n	10006170 <_hw_endpoint_xfer+0x18>
10006168:	2300      	movs	r3, #0
1000616a:	7503      	strb	r3, [r0, #20]
1000616c:	2032      	movs	r0, #50	; 0x32
1000616e:	5423      	strb	r3, [r4, r0]
10006170:	2300      	movs	r3, #0
10006172:	61a2      	str	r2, [r4, #24]
10006174:	61e3      	str	r3, [r4, #28]
10006176:	1c15      	adds	r5, r2, #0
10006178:	2a40      	cmp	r2, #64	; 0x40
1000617a:	d831      	bhi.n	100061e0 <_hw_endpoint_xfer+0x88>
1000617c:	2301      	movs	r3, #1
1000617e:	b2ad      	uxth	r5, r5
10006180:	1b52      	subs	r2, r2, r5
10006182:	7563      	strb	r3, [r4, #21]
10006184:	4253      	negs	r3, r2
10006186:	4153      	adcs	r3, r2
10006188:	2624      	movs	r6, #36	; 0x24
1000618a:	2225      	movs	r2, #37	; 0x25
1000618c:	2000      	movs	r0, #0
1000618e:	b2db      	uxtb	r3, r3
10006190:	6225      	str	r5, [r4, #32]
10006192:	62a1      	str	r1, [r4, #40]	; 0x28
10006194:	55a3      	strb	r3, [r4, r6]
10006196:	54a0      	strb	r0, [r4, r2]
10006198:	78e2      	ldrb	r2, [r4, #3]
1000619a:	2a00      	cmp	r2, #0
1000619c:	d022      	beq.n	100061e4 <_hw_endpoint_xfer+0x8c>
1000619e:	2280      	movs	r2, #128	; 0x80
100061a0:	00d2      	lsls	r2, r2, #3
100061a2:	432a      	orrs	r2, r5
100061a4:	7961      	ldrb	r1, [r4, #5]
100061a6:	2900      	cmp	r1, #0
100061a8:	d002      	beq.n	100061b0 <_hw_endpoint_xfer+0x58>
100061aa:	2080      	movs	r0, #128	; 0x80
100061ac:	0180      	lsls	r0, r0, #6
100061ae:	4302      	orrs	r2, r0
100061b0:	2001      	movs	r0, #1
100061b2:	4041      	eors	r1, r0
100061b4:	7161      	strb	r1, [r4, #5]
100061b6:	2b00      	cmp	r3, #0
100061b8:	d002      	beq.n	100061c0 <_hw_endpoint_xfer+0x68>
100061ba:	2380      	movs	r3, #128	; 0x80
100061bc:	01db      	lsls	r3, r3, #7
100061be:	431a      	orrs	r2, r3
100061c0:	68e1      	ldr	r1, [r4, #12]
100061c2:	680b      	ldr	r3, [r1, #0]
100061c4:	055b      	lsls	r3, r3, #21
100061c6:	d44f      	bmi.n	10006268 <_hw_endpoint_xfer+0x110>
100061c8:	4b2e      	ldr	r3, [pc, #184]	; (10006284 <_hw_endpoint_xfer+0x12c>)
100061ca:	4013      	ands	r3, r2
100061cc:	600b      	str	r3, [r1, #0]
100061ce:	e7ff      	b.n	100061d0 <_hw_endpoint_xfer+0x78>
100061d0:	e7ff      	b.n	100061d2 <_hw_endpoint_xfer+0x7a>
100061d2:	e7ff      	b.n	100061d4 <_hw_endpoint_xfer+0x7c>
100061d4:	e7ff      	b.n	100061d6 <_hw_endpoint_xfer+0x7e>
100061d6:	e7ff      	b.n	100061d8 <_hw_endpoint_xfer+0x80>
100061d8:	e7ff      	b.n	100061da <_hw_endpoint_xfer+0x82>
100061da:	68e3      	ldr	r3, [r4, #12]
100061dc:	601a      	str	r2, [r3, #0]
100061de:	bd70      	pop	{r4, r5, r6, pc}
100061e0:	2540      	movs	r5, #64	; 0x40
100061e2:	e7cb      	b.n	1000617c <_hw_endpoint_xfer+0x24>
100061e4:	002a      	movs	r2, r5
100061e6:	6920      	ldr	r0, [r4, #16]
100061e8:	f7ff f90e 	bl	10005408 <__wrap___aeabi_memcpy>
100061ec:	2284      	movs	r2, #132	; 0x84
100061ee:	0212      	lsls	r2, r2, #8
100061f0:	432a      	orrs	r2, r5
100061f2:	5da3      	ldrb	r3, [r4, r6]
100061f4:	e7d6      	b.n	100061a4 <_hw_endpoint_xfer+0x4c>
100061f6:	2b00      	cmp	r3, #0
100061f8:	d03e      	beq.n	10006278 <_hw_endpoint_xfer+0x120>
100061fa:	68c3      	ldr	r3, [r0, #12]
100061fc:	69c0      	ldr	r0, [r0, #28]
100061fe:	681d      	ldr	r5, [r3, #0]
10006200:	78e3      	ldrb	r3, [r4, #3]
10006202:	05ad      	lsls	r5, r5, #22
10006204:	0dad      	lsrs	r5, r5, #22
10006206:	2b00      	cmp	r3, #0
10006208:	d115      	bne.n	10006236 <_hw_endpoint_xfer+0xde>
1000620a:	1828      	adds	r0, r5, r0
1000620c:	61e0      	str	r0, [r4, #28]
1000620e:	69a2      	ldr	r2, [r4, #24]
10006210:	1a13      	subs	r3, r2, r0
10006212:	2b40      	cmp	r3, #64	; 0x40
10006214:	d80d      	bhi.n	10006232 <_hw_endpoint_xfer+0xda>
10006216:	6223      	str	r3, [r4, #32]
10006218:	181b      	adds	r3, r3, r0
1000621a:	1a9b      	subs	r3, r3, r2
1000621c:	4259      	negs	r1, r3
1000621e:	414b      	adcs	r3, r1
10006220:	2124      	movs	r1, #36	; 0x24
10006222:	5463      	strb	r3, [r4, r1]
10006224:	4282      	cmp	r2, r0
10006226:	d31c      	bcc.n	10006262 <_hw_endpoint_xfer+0x10a>
10006228:	d0d9      	beq.n	100061de <_hw_endpoint_xfer+0x86>
1000622a:	0020      	movs	r0, r4
1000622c:	f7ff fecc 	bl	10005fc8 <_hw_endpoint_start_next_buffer>
10006230:	e7d5      	b.n	100061de <_hw_endpoint_xfer+0x86>
10006232:	2340      	movs	r3, #64	; 0x40
10006234:	e7ef      	b.n	10006216 <_hw_endpoint_xfer+0xbe>
10006236:	6aa3      	ldr	r3, [r4, #40]	; 0x28
10006238:	002a      	movs	r2, r5
1000623a:	469c      	mov	ip, r3
1000623c:	6921      	ldr	r1, [r4, #16]
1000623e:	4460      	add	r0, ip
10006240:	f7ff f8e2 	bl	10005408 <__wrap___aeabi_memcpy>
10006244:	69e3      	ldr	r3, [r4, #28]
10006246:	18e8      	adds	r0, r5, r3
10006248:	78e3      	ldrb	r3, [r4, #3]
1000624a:	61e0      	str	r0, [r4, #28]
1000624c:	2b00      	cmp	r3, #0
1000624e:	d0de      	beq.n	1000620e <_hw_endpoint_xfer+0xb6>
10006250:	6a23      	ldr	r3, [r4, #32]
10006252:	429d      	cmp	r5, r3
10006254:	d2db      	bcs.n	1000620e <_hw_endpoint_xfer+0xb6>
10006256:	2324      	movs	r3, #36	; 0x24
10006258:	2201      	movs	r2, #1
1000625a:	61a0      	str	r0, [r4, #24]
1000625c:	6226      	str	r6, [r4, #32]
1000625e:	54e2      	strb	r2, [r4, r3]
10006260:	e7bd      	b.n	100061de <_hw_endpoint_xfer+0x86>
10006262:	4809      	ldr	r0, [pc, #36]	; (10006288 <_hw_endpoint_xfer+0x130>)
10006264:	f7fb fef2 	bl	1000204c <panic>
10006268:	7863      	ldrb	r3, [r4, #1]
1000626a:	4a08      	ldr	r2, [pc, #32]	; (1000628c <_hw_endpoint_xfer+0x134>)
1000626c:	009b      	lsls	r3, r3, #2
1000626e:	78a1      	ldrb	r1, [r4, #2]
10006270:	589a      	ldr	r2, [r3, r2]
10006272:	4807      	ldr	r0, [pc, #28]	; (10006290 <_hw_endpoint_xfer+0x138>)
10006274:	f7fb feea 	bl	1000204c <panic>
10006278:	7881      	ldrb	r1, [r0, #2]
1000627a:	4a04      	ldr	r2, [pc, #16]	; (1000628c <_hw_endpoint_xfer+0x134>)
1000627c:	4805      	ldr	r0, [pc, #20]	; (10006294 <_hw_endpoint_xfer+0x13c>)
1000627e:	f7fb fee5 	bl	1000204c <panic>
10006282:	46c0      	nop			; (mov r8, r8)
10006284:	fffffbff 	.word	0xfffffbff
10006288:	10009584 	.word	0x10009584
1000628c:	20000364 	.word	0x20000364
10006290:	10009538 	.word	0x10009538
10006294:	10009558 	.word	0x10009558

10006298 <tud_mounted>:
10006298:	4b02      	ldr	r3, [pc, #8]	; (100062a4 <tud_mounted+0xc>)
1000629a:	7858      	ldrb	r0, [r3, #1]
1000629c:	1e43      	subs	r3, r0, #1
1000629e:	4198      	sbcs	r0, r3
100062a0:	b2c0      	uxtb	r0, r0
100062a2:	4770      	bx	lr
100062a4:	20000fb4 	.word	0x20000fb4

100062a8 <tud_suspended>:
100062a8:	4b02      	ldr	r3, [pc, #8]	; (100062b4 <tud_suspended+0xc>)
100062aa:	7818      	ldrb	r0, [r3, #0]
100062ac:	0740      	lsls	r0, r0, #29
100062ae:	0fc0      	lsrs	r0, r0, #31
100062b0:	4770      	bx	lr
100062b2:	46c0      	nop			; (mov r8, r8)
100062b4:	20000fb4 	.word	0x20000fb4

100062b8 <tud_init>:
100062b8:	b5f8      	push	{r3, r4, r5, r6, r7, lr}
100062ba:	2237      	movs	r2, #55	; 0x37
100062bc:	2100      	movs	r1, #0
100062be:	4823      	ldr	r0, [pc, #140]	; (1000634c <tud_init+0x94>)
100062c0:	f7ff f89c 	bl	100053fc <__wrap_memset>
100062c4:	4c22      	ldr	r4, [pc, #136]	; (10006350 <tud_init+0x98>)
100062c6:	0020      	movs	r0, r4
100062c8:	f7fb fb32 	bl	10001930 <mutex_init>
100062cc:	4b21      	ldr	r3, [pc, #132]	; (10006354 <tud_init+0x9c>)
100062ce:	601c      	str	r4, [r3, #0]
100062d0:	4c21      	ldr	r4, [pc, #132]	; (10006358 <tud_init+0xa0>)
100062d2:	0020      	movs	r0, r4
100062d4:	3018      	adds	r0, #24
100062d6:	f7fb fb39 	bl	1000194c <critical_section_init>
100062da:	0020      	movs	r0, r4
100062dc:	f001 fbdc 	bl	10007a98 <tu_fifo_clear>
100062e0:	4b1e      	ldr	r3, [pc, #120]	; (1000635c <tud_init+0xa4>)
100062e2:	601c      	str	r4, [r3, #0]
100062e4:	4b1e      	ldr	r3, [pc, #120]	; (10006360 <tud_init+0xa8>)
100062e6:	2b00      	cmp	r3, #0
100062e8:	d026      	beq.n	10006338 <tud_init+0x80>
100062ea:	4d1e      	ldr	r5, [pc, #120]	; (10006364 <tud_init+0xac>)
100062ec:	2400      	movs	r4, #0
100062ee:	0028      	movs	r0, r5
100062f0:	e000      	b.n	100062f4 <tud_init+0x3c>
100062f2:	bf00      	nop
100062f4:	4e1c      	ldr	r6, [pc, #112]	; (10006368 <tud_init+0xb0>)
100062f6:	782b      	ldrb	r3, [r5, #0]
100062f8:	6030      	str	r0, [r6, #0]
100062fa:	4f1c      	ldr	r7, [pc, #112]	; (1000636c <tud_init+0xb4>)
100062fc:	e00a      	b.n	10006314 <tud_init+0x5c>
100062fe:	00e3      	lsls	r3, r4, #3
10006300:	1b1b      	subs	r3, r3, r4
10006302:	6832      	ldr	r2, [r6, #0]
10006304:	009b      	lsls	r3, r3, #2
10006306:	589b      	ldr	r3, [r3, r2]
10006308:	4798      	blx	r3
1000630a:	3401      	adds	r4, #1
1000630c:	782b      	ldrb	r3, [r5, #0]
1000630e:	b2e4      	uxtb	r4, r4
10006310:	42a3      	cmp	r3, r4
10006312:	d309      	bcc.n	10006328 <tud_init+0x70>
10006314:	429c      	cmp	r4, r3
10006316:	d3f2      	bcc.n	100062fe <tud_init+0x46>
10006318:	d114      	bne.n	10006344 <tud_init+0x8c>
1000631a:	003b      	movs	r3, r7
1000631c:	4798      	blx	r3
1000631e:	3401      	adds	r4, #1
10006320:	782b      	ldrb	r3, [r5, #0]
10006322:	b2e4      	uxtb	r4, r4
10006324:	42a3      	cmp	r3, r4
10006326:	d2f5      	bcs.n	10006314 <tud_init+0x5c>
10006328:	2000      	movs	r0, #0
1000632a:	f7ff fc73 	bl	10005c14 <dcd_init>
1000632e:	2000      	movs	r0, #0
10006330:	f7ff fc4a 	bl	10005bc8 <dcd_int_enable>
10006334:	2001      	movs	r0, #1
10006336:	bdf8      	pop	{r3, r4, r5, r6, r7, pc}
10006338:	f000 ffac 	bl	10007294 <cdcd_init>
1000633c:	4b09      	ldr	r3, [pc, #36]	; (10006364 <tud_init+0xac>)
1000633e:	781b      	ldrb	r3, [r3, #0]
10006340:	2b00      	cmp	r3, #0
10006342:	d0f1      	beq.n	10006328 <tud_init+0x70>
10006344:	2300      	movs	r3, #0
10006346:	681b      	ldr	r3, [r3, #0]
10006348:	deff      	udf	#255	; 0xff
1000634a:	46c0      	nop			; (mov r8, r8)
1000634c:	20000fb4 	.word	0x20000fb4
10006350:	20000f6c 	.word	0x20000f6c
10006354:	20000fec 	.word	0x20000fec
10006358:	2000036c 	.word	0x2000036c
1000635c:	20000ff0 	.word	0x20000ff0
10006360:	00000000 	.word	0x00000000
10006364:	2000171b 	.word	0x2000171b
10006368:	20000c84 	.word	0x20000c84
1000636c:	10007295 	.word	0x10007295

10006370 <tud_task>:
10006370:	b5f0      	push	{r4, r5, r6, r7, lr}
10006372:	46de      	mov	lr, fp
10006374:	4657      	mov	r7, sl
10006376:	464e      	mov	r6, r9
10006378:	4645      	mov	r5, r8
1000637a:	b5e0      	push	{r5, r6, r7, lr}
1000637c:	b08b      	sub	sp, #44	; 0x2c
1000637e:	f001 f995 	bl	100076ac <tusb_inited>
10006382:	2800      	cmp	r0, #0
10006384:	d100      	bne.n	10006388 <tud_task+0x18>
10006386:	e16c      	b.n	10006662 <tud_task+0x2f2>
10006388:	4bca      	ldr	r3, [pc, #808]	; (100066b4 <tud_task+0x344>)
1000638a:	ac07      	add	r4, sp, #28
1000638c:	469a      	mov	sl, r3
1000638e:	4bca      	ldr	r3, [pc, #808]	; (100066b8 <tud_task+0x348>)
10006390:	469b      	mov	fp, r3
10006392:	4653      	mov	r3, sl
10006394:	681e      	ldr	r6, [r3, #0]
10006396:	69b2      	ldr	r2, [r6, #24]
10006398:	f3ef 8110 	mrs	r1, PRIMASK
1000639c:	b672      	cpsid	i
1000639e:	6813      	ldr	r3, [r2, #0]
100063a0:	2b00      	cmp	r3, #0
100063a2:	d0fc      	beq.n	1000639e <tud_task+0x2e>
100063a4:	f3bf 8f5f 	dmb	sy
100063a8:	61f1      	str	r1, [r6, #28]
100063aa:	0030      	movs	r0, r6
100063ac:	0021      	movs	r1, r4
100063ae:	f001 f9df 	bl	10007770 <tu_fifo_read>
100063b2:	69b2      	ldr	r2, [r6, #24]
100063b4:	0005      	movs	r5, r0
100063b6:	69f3      	ldr	r3, [r6, #28]
100063b8:	f3bf 8f5f 	dmb	sy
100063bc:	2100      	movs	r1, #0
100063be:	6011      	str	r1, [r2, #0]
100063c0:	f383 8810 	msr	PRIMASK, r3
100063c4:	2800      	cmp	r0, #0
100063c6:	d100      	bne.n	100063ca <tud_task+0x5a>
100063c8:	e14b      	b.n	10006662 <tud_task+0x2f2>
100063ca:	7863      	ldrb	r3, [r4, #1]
100063cc:	2b08      	cmp	r3, #8
100063ce:	d8e0      	bhi.n	10006392 <tud_task+0x22>
100063d0:	465a      	mov	r2, fp
100063d2:	009b      	lsls	r3, r3, #2
100063d4:	58d3      	ldr	r3, [r2, r3]
100063d6:	469f      	mov	pc, r3
100063d8:	6863      	ldr	r3, [r4, #4]
100063da:	2b00      	cmp	r3, #0
100063dc:	d0d9      	beq.n	10006392 <tud_task+0x22>
100063de:	68a0      	ldr	r0, [r4, #8]
100063e0:	4798      	blx	r3
100063e2:	e7d6      	b.n	10006392 <tud_task+0x22>
100063e4:	227f      	movs	r2, #127	; 0x7f
100063e6:	7921      	ldrb	r1, [r4, #4]
100063e8:	4bb4      	ldr	r3, [pc, #720]	; (100066bc <tud_task+0x34c>)
100063ea:	400a      	ands	r2, r1
100063ec:	0055      	lsls	r5, r2, #1
100063ee:	09c8      	lsrs	r0, r1, #7
100063f0:	195b      	adds	r3, r3, r5
100063f2:	181b      	adds	r3, r3, r0
100063f4:	0018      	movs	r0, r3
100063f6:	2601      	movs	r6, #1
100063f8:	3020      	adds	r0, #32
100063fa:	7945      	ldrb	r5, [r0, #5]
100063fc:	43b5      	bics	r5, r6
100063fe:	7145      	strb	r5, [r0, #5]
10006400:	7945      	ldrb	r5, [r0, #5]
10006402:	3603      	adds	r6, #3
10006404:	43b5      	bics	r5, r6
10006406:	7145      	strb	r5, [r0, #5]
10006408:	2a00      	cmp	r2, #0
1000640a:	d100      	bne.n	1000640e <tud_task+0x9e>
1000640c:	e172      	b.n	100066f4 <tud_task+0x384>
1000640e:	4aac      	ldr	r2, [pc, #688]	; (100066c0 <tud_task+0x350>)
10006410:	7cdb      	ldrb	r3, [r3, #19]
10006412:	2a00      	cmp	r2, #0
10006414:	d100      	bne.n	10006418 <tud_task+0xa8>
10006416:	e169      	b.n	100066ec <tud_task+0x37c>
10006418:	4aaa      	ldr	r2, [pc, #680]	; (100066c4 <tud_task+0x354>)
1000641a:	7812      	ldrb	r2, [r2, #0]
1000641c:	4293      	cmp	r3, r2
1000641e:	d300      	bcc.n	10006422 <tud_task+0xb2>
10006420:	e162      	b.n	100066e8 <tud_task+0x378>
10006422:	00da      	lsls	r2, r3, #3
10006424:	1ad3      	subs	r3, r2, r3
10006426:	4aa8      	ldr	r2, [pc, #672]	; (100066c8 <tud_task+0x358>)
10006428:	009b      	lsls	r3, r3, #2
1000642a:	6812      	ldr	r2, [r2, #0]
1000642c:	18d3      	adds	r3, r2, r3
1000642e:	2b00      	cmp	r3, #0
10006430:	d100      	bne.n	10006434 <tud_task+0xc4>
10006432:	e116      	b.n	10006662 <tud_task+0x2f2>
10006434:	695d      	ldr	r5, [r3, #20]
10006436:	7962      	ldrb	r2, [r4, #5]
10006438:	7820      	ldrb	r0, [r4, #0]
1000643a:	68a3      	ldr	r3, [r4, #8]
1000643c:	47a8      	blx	r5
1000643e:	e7a8      	b.n	10006392 <tud_task+0x22>
10006440:	4b9e      	ldr	r3, [pc, #632]	; (100066bc <tud_task+0x34c>)
10006442:	2201      	movs	r2, #1
10006444:	4699      	mov	r9, r3
10006446:	781b      	ldrb	r3, [r3, #0]
10006448:	2000      	movs	r0, #0
1000644a:	4313      	orrs	r3, r2
1000644c:	464a      	mov	r2, r9
1000644e:	7013      	strb	r3, [r2, #0]
10006450:	7823      	ldrb	r3, [r4, #0]
10006452:	9301      	str	r3, [sp, #4]
10006454:	f000 fd92 	bl	10006f7c <usbd_control_set_complete_callback>
10006458:	2360      	movs	r3, #96	; 0x60
1000645a:	7926      	ldrb	r6, [r4, #4]
1000645c:	4033      	ands	r3, r6
1000645e:	2b60      	cmp	r3, #96	; 0x60
10006460:	d100      	bne.n	10006464 <tud_task+0xf4>
10006462:	e11e      	b.n	100066a2 <tud_task+0x332>
10006464:	2b40      	cmp	r3, #64	; 0x40
10006466:	d100      	bne.n	1000646a <tud_task+0xfa>
10006468:	e10b      	b.n	10006682 <tud_task+0x312>
1000646a:	06f6      	lsls	r6, r6, #27
1000646c:	0ef6      	lsrs	r6, r6, #27
1000646e:	2e01      	cmp	r6, #1
10006470:	d100      	bne.n	10006474 <tud_task+0x104>
10006472:	e151      	b.n	10006718 <tud_task+0x3a8>
10006474:	2e00      	cmp	r6, #0
10006476:	d100      	bne.n	1000647a <tud_task+0x10a>
10006478:	e142      	b.n	10006700 <tud_task+0x390>
1000647a:	2e02      	cmp	r6, #2
1000647c:	d000      	beq.n	10006480 <tud_task+0x110>
1000647e:	e110      	b.n	100066a2 <tud_task+0x332>
10006480:	277f      	movs	r7, #127	; 0x7f
10006482:	7a21      	ldrb	r1, [r4, #8]
10006484:	400f      	ands	r7, r1
10006486:	2f08      	cmp	r7, #8
10006488:	d900      	bls.n	1000648c <tud_task+0x11c>
1000648a:	e10a      	b.n	100066a2 <tud_task+0x332>
1000648c:	09ca      	lsrs	r2, r1, #7
1000648e:	4690      	mov	r8, r2
10006490:	2b00      	cmp	r3, #0
10006492:	d100      	bne.n	10006496 <tud_task+0x126>
10006494:	e16e      	b.n	10006774 <tud_task+0x404>
10006496:	2500      	movs	r5, #0
10006498:	007f      	lsls	r7, r7, #1
1000649a:	444f      	add	r7, r9
1000649c:	4a88      	ldr	r2, [pc, #544]	; (100066c0 <tud_task+0x350>)
1000649e:	4447      	add	r7, r8
100064a0:	7cfb      	ldrb	r3, [r7, #19]
100064a2:	2a00      	cmp	r2, #0
100064a4:	d100      	bne.n	100064a8 <tud_task+0x138>
100064a6:	e233      	b.n	10006910 <tud_task+0x5a0>
100064a8:	4a86      	ldr	r2, [pc, #536]	; (100066c4 <tud_task+0x354>)
100064aa:	7812      	ldrb	r2, [r2, #0]
100064ac:	4293      	cmp	r3, r2
100064ae:	d300      	bcc.n	100064b2 <tud_task+0x142>
100064b0:	e22c      	b.n	1000690c <tud_task+0x59c>
100064b2:	4a85      	ldr	r2, [pc, #532]	; (100066c8 <tud_task+0x358>)
100064b4:	00de      	lsls	r6, r3, #3
100064b6:	1af3      	subs	r3, r6, r3
100064b8:	6816      	ldr	r6, [r2, #0]
100064ba:	009b      	lsls	r3, r3, #2
100064bc:	18f6      	adds	r6, r6, r3
100064be:	2e00      	cmp	r6, #0
100064c0:	d000      	beq.n	100064c4 <tud_task+0x154>
100064c2:	e269      	b.n	10006998 <tud_task+0x628>
100064c4:	2260      	movs	r2, #96	; 0x60
100064c6:	7923      	ldrb	r3, [r4, #4]
100064c8:	421a      	tst	r2, r3
100064ca:	d000      	beq.n	100064ce <tud_task+0x15e>
100064cc:	e0e6      	b.n	1000669c <tud_task+0x32c>
100064ce:	2000      	movs	r0, #0
100064d0:	f000 fd54 	bl	10006f7c <usbd_control_set_complete_callback>
100064d4:	e0e2      	b.n	1000669c <tud_task+0x32c>
100064d6:	4b7d      	ldr	r3, [pc, #500]	; (100066cc <tud_task+0x35c>)
100064d8:	2b00      	cmp	r3, #0
100064da:	d100      	bne.n	100064de <tud_task+0x16e>
100064dc:	e759      	b.n	10006392 <tud_task+0x22>
100064de:	e000      	b.n	100064e2 <tud_task+0x172>
100064e0:	bf00      	nop
100064e2:	e756      	b.n	10006392 <tud_task+0x22>
100064e4:	4b7a      	ldr	r3, [pc, #488]	; (100066d0 <tud_task+0x360>)
100064e6:	2b00      	cmp	r3, #0
100064e8:	d100      	bne.n	100064ec <tud_task+0x17c>
100064ea:	e752      	b.n	10006392 <tud_task+0x22>
100064ec:	4b73      	ldr	r3, [pc, #460]	; (100066bc <tud_task+0x34c>)
100064ee:	7818      	ldrb	r0, [r3, #0]
100064f0:	0700      	lsls	r0, r0, #28
100064f2:	0fc0      	lsrs	r0, r0, #31
100064f4:	e000      	b.n	100064f8 <tud_task+0x188>
100064f6:	bf00      	nop
100064f8:	e74b      	b.n	10006392 <tud_task+0x22>
100064fa:	4e72      	ldr	r6, [pc, #456]	; (100066c4 <tud_task+0x354>)
100064fc:	4a70      	ldr	r2, [pc, #448]	; (100066c0 <tud_task+0x350>)
100064fe:	7833      	ldrb	r3, [r6, #0]
10006500:	2a00      	cmp	r2, #0
10006502:	d100      	bne.n	10006506 <tud_task+0x196>
10006504:	e0a7      	b.n	10006656 <tud_task+0x2e6>
10006506:	2500      	movs	r5, #0
10006508:	001a      	movs	r2, r3
1000650a:	4f6f      	ldr	r7, [pc, #444]	; (100066c8 <tud_task+0x358>)
1000650c:	42ab      	cmp	r3, r5
1000650e:	d913      	bls.n	10006538 <tud_task+0x1c8>
10006510:	6839      	ldr	r1, [r7, #0]
10006512:	00eb      	lsls	r3, r5, #3
10006514:	468c      	mov	ip, r1
10006516:	1b5b      	subs	r3, r3, r5
10006518:	009b      	lsls	r3, r3, #2
1000651a:	4463      	add	r3, ip
1000651c:	699b      	ldr	r3, [r3, #24]
1000651e:	2b00      	cmp	r3, #0
10006520:	d00d      	beq.n	1000653e <tud_task+0x1ce>
10006522:	7820      	ldrb	r0, [r4, #0]
10006524:	4798      	blx	r3
10006526:	3501      	adds	r5, #1
10006528:	7832      	ldrb	r2, [r6, #0]
1000652a:	b2ed      	uxtb	r5, r5
1000652c:	4295      	cmp	r5, r2
1000652e:	d900      	bls.n	10006532 <tud_task+0x1c2>
10006530:	e72f      	b.n	10006392 <tud_task+0x22>
10006532:	0013      	movs	r3, r2
10006534:	42ab      	cmp	r3, r5
10006536:	d8eb      	bhi.n	10006510 <tud_task+0x1a0>
10006538:	42ab      	cmp	r3, r5
1000653a:	d000      	beq.n	1000653e <tud_task+0x1ce>
1000653c:	e08e      	b.n	1000665c <tud_task+0x2ec>
1000653e:	3501      	adds	r5, #1
10006540:	b2ed      	uxtb	r5, r5
10006542:	4295      	cmp	r5, r2
10006544:	d900      	bls.n	10006548 <tud_task+0x1d8>
10006546:	e724      	b.n	10006392 <tud_task+0x22>
10006548:	0013      	movs	r3, r2
1000654a:	e7f3      	b.n	10006534 <tud_task+0x1c4>
1000654c:	2237      	movs	r2, #55	; 0x37
1000654e:	2100      	movs	r1, #0
10006550:	485a      	ldr	r0, [pc, #360]	; (100066bc <tud_task+0x34c>)
10006552:	7827      	ldrb	r7, [r4, #0]
10006554:	f7fe ff52 	bl	100053fc <__wrap_memset>
10006558:	2210      	movs	r2, #16
1000655a:	21ff      	movs	r1, #255	; 0xff
1000655c:	485d      	ldr	r0, [pc, #372]	; (100066d4 <tud_task+0x364>)
1000655e:	f7fe ff4d 	bl	100053fc <__wrap_memset>
10006562:	4856      	ldr	r0, [pc, #344]	; (100066bc <tud_task+0x34c>)
10006564:	2212      	movs	r2, #18
10006566:	21ff      	movs	r1, #255	; 0xff
10006568:	3013      	adds	r0, #19
1000656a:	f7fe ff47 	bl	100053fc <__wrap_memset>
1000656e:	f000 fcfb 	bl	10006f68 <usbd_control_reset>
10006572:	4e54      	ldr	r6, [pc, #336]	; (100066c4 <tud_task+0x354>)
10006574:	4a52      	ldr	r2, [pc, #328]	; (100066c0 <tud_task+0x350>)
10006576:	7833      	ldrb	r3, [r6, #0]
10006578:	2500      	movs	r5, #0
1000657a:	2a00      	cmp	r2, #0
1000657c:	d062      	beq.n	10006644 <tud_task+0x2d4>
1000657e:	4a56      	ldr	r2, [pc, #344]	; (100066d8 <tud_task+0x368>)
10006580:	4691      	mov	r9, r2
10006582:	4a51      	ldr	r2, [pc, #324]	; (100066c8 <tud_task+0x358>)
10006584:	4690      	mov	r8, r2
10006586:	e00e      	b.n	100065a6 <tud_task+0x236>
10006588:	4642      	mov	r2, r8
1000658a:	6812      	ldr	r2, [r2, #0]
1000658c:	00eb      	lsls	r3, r5, #3
1000658e:	4694      	mov	ip, r2
10006590:	1b5b      	subs	r3, r3, r5
10006592:	009b      	lsls	r3, r3, #2
10006594:	4463      	add	r3, ip
10006596:	685b      	ldr	r3, [r3, #4]
10006598:	0038      	movs	r0, r7
1000659a:	4798      	blx	r3
1000659c:	3501      	adds	r5, #1
1000659e:	7833      	ldrb	r3, [r6, #0]
100065a0:	b2ed      	uxtb	r5, r5
100065a2:	42ab      	cmp	r3, r5
100065a4:	d30a      	bcc.n	100065bc <tud_task+0x24c>
100065a6:	429d      	cmp	r5, r3
100065a8:	d3ee      	bcc.n	10006588 <tud_task+0x218>
100065aa:	d151      	bne.n	10006650 <tud_task+0x2e0>
100065ac:	464b      	mov	r3, r9
100065ae:	0038      	movs	r0, r7
100065b0:	4798      	blx	r3
100065b2:	3501      	adds	r5, #1
100065b4:	7833      	ldrb	r3, [r6, #0]
100065b6:	b2ed      	uxtb	r5, r5
100065b8:	42ab      	cmp	r3, r5
100065ba:	d2f4      	bcs.n	100065a6 <tud_task+0x236>
100065bc:	4b47      	ldr	r3, [pc, #284]	; (100066dc <tud_task+0x36c>)
100065be:	2b00      	cmp	r3, #0
100065c0:	d100      	bne.n	100065c4 <tud_task+0x254>
100065c2:	e6e6      	b.n	10006392 <tud_task+0x22>
100065c4:	e000      	b.n	100065c8 <tud_task+0x258>
100065c6:	bf00      	nop
100065c8:	e6e3      	b.n	10006392 <tud_task+0x22>
100065ca:	4b3c      	ldr	r3, [pc, #240]	; (100066bc <tud_task+0x34c>)
100065cc:	2237      	movs	r2, #55	; 0x37
100065ce:	4699      	mov	r9, r3
100065d0:	2100      	movs	r1, #0
100065d2:	0018      	movs	r0, r3
100065d4:	7827      	ldrb	r7, [r4, #0]
100065d6:	f7fe ff11 	bl	100053fc <__wrap_memset>
100065da:	464b      	mov	r3, r9
100065dc:	2210      	movs	r2, #16
100065de:	1cd8      	adds	r0, r3, #3
100065e0:	21ff      	movs	r1, #255	; 0xff
100065e2:	f7fe ff0b 	bl	100053fc <__wrap_memset>
100065e6:	4648      	mov	r0, r9
100065e8:	2212      	movs	r2, #18
100065ea:	21ff      	movs	r1, #255	; 0xff
100065ec:	3013      	adds	r0, #19
100065ee:	f7fe ff05 	bl	100053fc <__wrap_memset>
100065f2:	f000 fcb9 	bl	10006f68 <usbd_control_reset>
100065f6:	4e33      	ldr	r6, [pc, #204]	; (100066c4 <tud_task+0x354>)
100065f8:	4a31      	ldr	r2, [pc, #196]	; (100066c0 <tud_task+0x350>)
100065fa:	7833      	ldrb	r3, [r6, #0]
100065fc:	2500      	movs	r5, #0
100065fe:	2a00      	cmp	r2, #0
10006600:	d036      	beq.n	10006670 <tud_task+0x300>
10006602:	4a31      	ldr	r2, [pc, #196]	; (100066c8 <tud_task+0x358>)
10006604:	4690      	mov	r8, r2
10006606:	e00e      	b.n	10006626 <tud_task+0x2b6>
10006608:	4642      	mov	r2, r8
1000660a:	6812      	ldr	r2, [r2, #0]
1000660c:	00eb      	lsls	r3, r5, #3
1000660e:	4694      	mov	ip, r2
10006610:	1b5b      	subs	r3, r3, r5
10006612:	009b      	lsls	r3, r3, #2
10006614:	4463      	add	r3, ip
10006616:	685b      	ldr	r3, [r3, #4]
10006618:	0038      	movs	r0, r7
1000661a:	4798      	blx	r3
1000661c:	3501      	adds	r5, #1
1000661e:	7833      	ldrb	r3, [r6, #0]
10006620:	b2ed      	uxtb	r5, r5
10006622:	42ab      	cmp	r3, r5
10006624:	d30a      	bcc.n	1000663c <tud_task+0x2cc>
10006626:	429d      	cmp	r5, r3
10006628:	d3ee      	bcc.n	10006608 <tud_task+0x298>
1000662a:	d111      	bne.n	10006650 <tud_task+0x2e0>
1000662c:	4b2a      	ldr	r3, [pc, #168]	; (100066d8 <tud_task+0x368>)
1000662e:	0038      	movs	r0, r7
10006630:	4798      	blx	r3
10006632:	3501      	adds	r5, #1
10006634:	7833      	ldrb	r3, [r6, #0]
10006636:	b2ed      	uxtb	r5, r5
10006638:	42ab      	cmp	r3, r5
1000663a:	d2f4      	bcs.n	10006626 <tud_task+0x2b6>
1000663c:	464a      	mov	r2, r9
1000663e:	7923      	ldrb	r3, [r4, #4]
10006640:	7093      	strb	r3, [r2, #2]
10006642:	e6a6      	b.n	10006392 <tud_task+0x22>
10006644:	0038      	movs	r0, r7
10006646:	f000 fe61 	bl	1000730c <cdcd_reset>
1000664a:	7833      	ldrb	r3, [r6, #0]
1000664c:	2b00      	cmp	r3, #0
1000664e:	d0b5      	beq.n	100065bc <tud_task+0x24c>
10006650:	2300      	movs	r3, #0
10006652:	685b      	ldr	r3, [r3, #4]
10006654:	deff      	udf	#255	; 0xff
10006656:	2b00      	cmp	r3, #0
10006658:	d100      	bne.n	1000665c <tud_task+0x2ec>
1000665a:	e69a      	b.n	10006392 <tud_task+0x22>
1000665c:	2300      	movs	r3, #0
1000665e:	699b      	ldr	r3, [r3, #24]
10006660:	deff      	udf	#255	; 0xff
10006662:	b00b      	add	sp, #44	; 0x2c
10006664:	bc3c      	pop	{r2, r3, r4, r5}
10006666:	4690      	mov	r8, r2
10006668:	4699      	mov	r9, r3
1000666a:	46a2      	mov	sl, r4
1000666c:	46ab      	mov	fp, r5
1000666e:	bdf0      	pop	{r4, r5, r6, r7, pc}
10006670:	0038      	movs	r0, r7
10006672:	f000 fe4b 	bl	1000730c <cdcd_reset>
10006676:	7833      	ldrb	r3, [r6, #0]
10006678:	2b00      	cmp	r3, #0
1000667a:	d0df      	beq.n	1000663c <tud_task+0x2cc>
1000667c:	2300      	movs	r3, #0
1000667e:	685b      	ldr	r3, [r3, #4]
10006680:	deff      	udf	#255	; 0xff
10006682:	4b17      	ldr	r3, [pc, #92]	; (100066e0 <tud_task+0x370>)
10006684:	2b00      	cmp	r3, #0
10006686:	d00c      	beq.n	100066a2 <tud_task+0x332>
10006688:	4816      	ldr	r0, [pc, #88]	; (100066e4 <tud_task+0x374>)
1000668a:	2800      	cmp	r0, #0
1000668c:	d001      	beq.n	10006692 <tud_task+0x322>
1000668e:	f000 fc75 	bl	10006f7c <usbd_control_set_complete_callback>
10006692:	a908      	add	r1, sp, #32
10006694:	9801      	ldr	r0, [sp, #4]
10006696:	e000      	b.n	1000669a <tud_task+0x32a>
10006698:	bf00      	nop
1000669a:	0005      	movs	r5, r0
1000669c:	2d00      	cmp	r5, #0
1000669e:	d000      	beq.n	100066a2 <tud_task+0x332>
100066a0:	e677      	b.n	10006392 <tud_task+0x22>
100066a2:	7820      	ldrb	r0, [r4, #0]
100066a4:	2100      	movs	r1, #0
100066a6:	f7ff fbe3 	bl	10005e70 <dcd_edpt_stall>
100066aa:	7820      	ldrb	r0, [r4, #0]
100066ac:	2180      	movs	r1, #128	; 0x80
100066ae:	f7ff fbdf 	bl	10005e70 <dcd_edpt_stall>
100066b2:	e66e      	b.n	10006392 <tud_task+0x22>
100066b4:	20000ff0 	.word	0x20000ff0
100066b8:	100095b0 	.word	0x100095b0
100066bc:	20000fb4 	.word	0x20000fb4
100066c0:	00000000 	.word	0x00000000
100066c4:	2000171b 	.word	0x2000171b
100066c8:	20000c84 	.word	0x20000c84
	...
100066d4:	20000fb7 	.word	0x20000fb7
100066d8:	1000730d 	.word	0x1000730d
	...
100066e8:	1a9b      	subs	r3, r3, r2
100066ea:	b2db      	uxtb	r3, r3
100066ec:	2b00      	cmp	r3, #0
100066ee:	d1b8      	bne.n	10006662 <tud_task+0x2f2>
100066f0:	4db2      	ldr	r5, [pc, #712]	; (100069bc <tud_task+0x64c>)
100066f2:	e6a0      	b.n	10006436 <tud_task+0xc6>
100066f4:	7962      	ldrb	r2, [r4, #5]
100066f6:	7820      	ldrb	r0, [r4, #0]
100066f8:	68a3      	ldr	r3, [r4, #8]
100066fa:	f000 fc53 	bl	10006fa4 <usbd_control_xfer_cb>
100066fe:	e648      	b.n	10006392 <tud_task+0x22>
10006700:	2b20      	cmp	r3, #32
10006702:	d100      	bne.n	10006706 <tud_task+0x396>
10006704:	e0e3      	b.n	100068ce <tud_task+0x55e>
10006706:	2b00      	cmp	r3, #0
10006708:	d1cb      	bne.n	100066a2 <tud_task+0x332>
1000670a:	7963      	ldrb	r3, [r4, #5]
1000670c:	2b09      	cmp	r3, #9
1000670e:	d8c8      	bhi.n	100066a2 <tud_task+0x332>
10006710:	4aab      	ldr	r2, [pc, #684]	; (100069c0 <tud_task+0x650>)
10006712:	009b      	lsls	r3, r3, #2
10006714:	58d3      	ldr	r3, [r2, r3]
10006716:	469f      	mov	pc, r3
10006718:	7a23      	ldrb	r3, [r4, #8]
1000671a:	2b0f      	cmp	r3, #15
1000671c:	d8c1      	bhi.n	100066a2 <tud_task+0x332>
1000671e:	4aa9      	ldr	r2, [pc, #676]	; (100069c4 <tud_task+0x654>)
10006720:	444b      	add	r3, r9
10006722:	78db      	ldrb	r3, [r3, #3]
10006724:	2a00      	cmp	r2, #0
10006726:	d03b      	beq.n	100067a0 <tud_task+0x430>
10006728:	4aa7      	ldr	r2, [pc, #668]	; (100069c8 <tud_task+0x658>)
1000672a:	7812      	ldrb	r2, [r2, #0]
1000672c:	4293      	cmp	r3, r2
1000672e:	d235      	bcs.n	1000679c <tud_task+0x42c>
10006730:	4aa6      	ldr	r2, [pc, #664]	; (100069cc <tud_task+0x65c>)
10006732:	00dd      	lsls	r5, r3, #3
10006734:	1aeb      	subs	r3, r5, r3
10006736:	6815      	ldr	r5, [r2, #0]
10006738:	009b      	lsls	r3, r3, #2
1000673a:	18ed      	adds	r5, r5, r3
1000673c:	2d00      	cmp	r5, #0
1000673e:	d0b0      	beq.n	100066a2 <tud_task+0x332>
10006740:	6928      	ldr	r0, [r5, #16]
10006742:	f000 fc1b 	bl	10006f7c <usbd_control_set_complete_callback>
10006746:	68eb      	ldr	r3, [r5, #12]
10006748:	a908      	add	r1, sp, #32
1000674a:	9801      	ldr	r0, [sp, #4]
1000674c:	4798      	blx	r3
1000674e:	2800      	cmp	r0, #0
10006750:	d000      	beq.n	10006754 <tud_task+0x3e4>
10006752:	e61e      	b.n	10006392 <tud_task+0x22>
10006754:	2360      	movs	r3, #96	; 0x60
10006756:	7922      	ldrb	r2, [r4, #4]
10006758:	4013      	ands	r3, r2
1000675a:	d1a2      	bne.n	100066a2 <tud_task+0x332>
1000675c:	7962      	ldrb	r2, [r4, #5]
1000675e:	2a0a      	cmp	r2, #10
10006760:	d19f      	bne.n	100066a2 <tud_task+0x332>
10006762:	aa06      	add	r2, sp, #24
10006764:	3202      	adds	r2, #2
10006766:	7013      	strb	r3, [r2, #0]
10006768:	a908      	add	r1, sp, #32
1000676a:	3301      	adds	r3, #1
1000676c:	9801      	ldr	r0, [sp, #4]
1000676e:	f000 fba1 	bl	10006eb4 <tud_control_xfer>
10006772:	e60e      	b.n	10006392 <tud_task+0x22>
10006774:	7963      	ldrb	r3, [r4, #5]
10006776:	9302      	str	r3, [sp, #8]
10006778:	2b01      	cmp	r3, #1
1000677a:	d100      	bne.n	1000677e <tud_task+0x40e>
1000677c:	e0f8      	b.n	10006970 <tud_task+0x600>
1000677e:	2b00      	cmp	r3, #0
10006780:	d100      	bne.n	10006784 <tud_task+0x414>
10006782:	e0e4      	b.n	1000694e <tud_task+0x5de>
10006784:	2b03      	cmp	r3, #3
10006786:	d18c      	bne.n	100066a2 <tud_task+0x332>
10006788:	88e3      	ldrh	r3, [r4, #6]
1000678a:	007f      	lsls	r7, r7, #1
1000678c:	2b00      	cmp	r3, #0
1000678e:	d100      	bne.n	10006792 <tud_task+0x422>
10006790:	e104      	b.n	1000699c <tud_task+0x62c>
10006792:	a908      	add	r1, sp, #32
10006794:	9801      	ldr	r0, [sp, #4]
10006796:	f000 fb75 	bl	10006e84 <tud_control_status>
1000679a:	e67e      	b.n	1000649a <tud_task+0x12a>
1000679c:	1a9b      	subs	r3, r3, r2
1000679e:	b2db      	uxtb	r3, r3
100067a0:	2b00      	cmp	r3, #0
100067a2:	d000      	beq.n	100067a6 <tud_task+0x436>
100067a4:	e77d      	b.n	100066a2 <tud_task+0x332>
100067a6:	488a      	ldr	r0, [pc, #552]	; (100069d0 <tud_task+0x660>)
100067a8:	4d8a      	ldr	r5, [pc, #552]	; (100069d4 <tud_task+0x664>)
100067aa:	e7ca      	b.n	10006742 <tud_task+0x3d2>
100067ac:	464b      	mov	r3, r9
100067ae:	79a2      	ldrb	r2, [r4, #6]
100067b0:	9203      	str	r2, [sp, #12]
100067b2:	785b      	ldrb	r3, [r3, #1]
100067b4:	2b00      	cmp	r3, #0
100067b6:	d102      	bne.n	100067be <tud_task+0x44e>
100067b8:	2a00      	cmp	r2, #0
100067ba:	d000      	beq.n	100067be <tud_task+0x44e>
100067bc:	e110      	b.n	100069e0 <tud_task+0x670>
100067be:	464b      	mov	r3, r9
100067c0:	9a03      	ldr	r2, [sp, #12]
100067c2:	a908      	add	r1, sp, #32
100067c4:	9801      	ldr	r0, [sp, #4]
100067c6:	705a      	strb	r2, [r3, #1]
100067c8:	f000 fb5c 	bl	10006e84 <tud_control_status>
100067cc:	e5e1      	b.n	10006392 <tud_task+0x22>
100067ce:	464b      	mov	r3, r9
100067d0:	aa06      	add	r2, sp, #24
100067d2:	785b      	ldrb	r3, [r3, #1]
100067d4:	3202      	adds	r2, #2
100067d6:	7013      	strb	r3, [r2, #0]
100067d8:	a908      	add	r1, sp, #32
100067da:	2301      	movs	r3, #1
100067dc:	9801      	ldr	r0, [sp, #4]
100067de:	f000 fb69 	bl	10006eb4 <tud_control_xfer>
100067e2:	e5d6      	b.n	10006392 <tud_task+0x22>
100067e4:	88e3      	ldrh	r3, [r4, #6]
100067e6:	b2d8      	uxtb	r0, r3
100067e8:	0a1b      	lsrs	r3, r3, #8
100067ea:	2b0f      	cmp	r3, #15
100067ec:	d900      	bls.n	100067f0 <tud_task+0x480>
100067ee:	e758      	b.n	100066a2 <tud_task+0x332>
100067f0:	4a79      	ldr	r2, [pc, #484]	; (100069d8 <tud_task+0x668>)
100067f2:	009b      	lsls	r3, r3, #2
100067f4:	58d3      	ldr	r3, [r2, r3]
100067f6:	469f      	mov	pc, r3
100067f8:	a808      	add	r0, sp, #32
100067fa:	f000 fbc5 	bl	10006f88 <usbd_control_set_request>
100067fe:	79a1      	ldrb	r1, [r4, #6]
10006800:	9801      	ldr	r0, [sp, #4]
10006802:	f7ff f9e7 	bl	10005bd4 <dcd_set_address>
10006806:	464b      	mov	r3, r9
10006808:	2202      	movs	r2, #2
1000680a:	781b      	ldrb	r3, [r3, #0]
1000680c:	4313      	orrs	r3, r2
1000680e:	464a      	mov	r2, r9
10006810:	7013      	strb	r3, [r2, #0]
10006812:	e5be      	b.n	10006392 <tud_task+0x22>
10006814:	88e3      	ldrh	r3, [r4, #6]
10006816:	2b01      	cmp	r3, #1
10006818:	d000      	beq.n	1000681c <tud_task+0x4ac>
1000681a:	e742      	b.n	100066a2 <tud_task+0x332>
1000681c:	464b      	mov	r3, r9
1000681e:	2208      	movs	r2, #8
10006820:	781b      	ldrb	r3, [r3, #0]
10006822:	4393      	bics	r3, r2
10006824:	464a      	mov	r2, r9
10006826:	a908      	add	r1, sp, #32
10006828:	9801      	ldr	r0, [sp, #4]
1000682a:	7013      	strb	r3, [r2, #0]
1000682c:	f000 fb2a 	bl	10006e84 <tud_control_status>
10006830:	e5af      	b.n	10006392 <tud_task+0x22>
10006832:	464b      	mov	r3, r9
10006834:	2002      	movs	r0, #2
10006836:	7819      	ldrb	r1, [r3, #0]
10006838:	ab06      	add	r3, sp, #24
1000683a:	1c9a      	adds	r2, r3, #2
1000683c:	068b      	lsls	r3, r1, #26
1000683e:	0889      	lsrs	r1, r1, #2
10006840:	4001      	ands	r1, r0
10006842:	0fdb      	lsrs	r3, r3, #31
10006844:	430b      	orrs	r3, r1
10006846:	8013      	strh	r3, [r2, #0]
10006848:	a908      	add	r1, sp, #32
1000684a:	2302      	movs	r3, #2
1000684c:	9801      	ldr	r0, [sp, #4]
1000684e:	f000 fb31 	bl	10006eb4 <tud_control_xfer>
10006852:	e59e      	b.n	10006392 <tud_task+0x22>
10006854:	88e3      	ldrh	r3, [r4, #6]
10006856:	2b01      	cmp	r3, #1
10006858:	d000      	beq.n	1000685c <tud_task+0x4ec>
1000685a:	e722      	b.n	100066a2 <tud_task+0x332>
1000685c:	464b      	mov	r3, r9
1000685e:	2208      	movs	r2, #8
10006860:	781b      	ldrb	r3, [r3, #0]
10006862:	4313      	orrs	r3, r2
10006864:	e7de      	b.n	10006824 <tud_task+0x4b4>
10006866:	4b5d      	ldr	r3, [pc, #372]	; (100069dc <tud_task+0x66c>)
10006868:	2b00      	cmp	r3, #0
1000686a:	d100      	bne.n	1000686e <tud_task+0x4fe>
1000686c:	e719      	b.n	100066a2 <tud_task+0x332>
1000686e:	e000      	b.n	10006872 <tud_task+0x502>
10006870:	bf00      	nop
10006872:	1e02      	subs	r2, r0, #0
10006874:	d100      	bne.n	10006878 <tud_task+0x508>
10006876:	e714      	b.n	100066a2 <tud_task+0x332>
10006878:	7813      	ldrb	r3, [r2, #0]
1000687a:	a908      	add	r1, sp, #32
1000687c:	9801      	ldr	r0, [sp, #4]
1000687e:	f000 fb19 	bl	10006eb4 <tud_control_xfer>
10006882:	2800      	cmp	r0, #0
10006884:	d000      	beq.n	10006888 <tud_task+0x518>
10006886:	e584      	b.n	10006392 <tud_task+0x22>
10006888:	e70b      	b.n	100066a2 <tud_task+0x332>
1000688a:	8921      	ldrh	r1, [r4, #8]
1000688c:	f7ff f8d6 	bl	10005a3c <tud_descriptor_string_cb>
10006890:	1e02      	subs	r2, r0, #0
10006892:	d1f1      	bne.n	10006878 <tud_task+0x508>
10006894:	e705      	b.n	100066a2 <tud_task+0x332>
10006896:	f7ff f8cd 	bl	10005a34 <tud_descriptor_configuration_cb>
1000689a:	1e05      	subs	r5, r0, #0
1000689c:	d100      	bne.n	100068a0 <tud_task+0x530>
1000689e:	e700      	b.n	100066a2 <tud_task+0x332>
100068a0:	ab06      	add	r3, sp, #24
100068a2:	1c9e      	adds	r6, r3, #2
100068a4:	1ca9      	adds	r1, r5, #2
100068a6:	2202      	movs	r2, #2
100068a8:	0030      	movs	r0, r6
100068aa:	f7fe fdad 	bl	10005408 <__wrap___aeabi_memcpy>
100068ae:	8833      	ldrh	r3, [r6, #0]
100068b0:	002a      	movs	r2, r5
100068b2:	a908      	add	r1, sp, #32
100068b4:	9801      	ldr	r0, [sp, #4]
100068b6:	f000 fafd 	bl	10006eb4 <tud_control_xfer>
100068ba:	e7e2      	b.n	10006882 <tud_task+0x512>
100068bc:	f7ff f8b6 	bl	10005a2c <tud_descriptor_device_cb>
100068c0:	2312      	movs	r3, #18
100068c2:	0002      	movs	r2, r0
100068c4:	a908      	add	r1, sp, #32
100068c6:	9801      	ldr	r0, [sp, #4]
100068c8:	f000 faf4 	bl	10006eb4 <tud_control_xfer>
100068cc:	e7d9      	b.n	10006882 <tud_task+0x512>
100068ce:	7a23      	ldrb	r3, [r4, #8]
100068d0:	2b0f      	cmp	r3, #15
100068d2:	d900      	bls.n	100068d6 <tud_task+0x566>
100068d4:	e6e5      	b.n	100066a2 <tud_task+0x332>
100068d6:	4a3b      	ldr	r2, [pc, #236]	; (100069c4 <tud_task+0x654>)
100068d8:	444b      	add	r3, r9
100068da:	78db      	ldrb	r3, [r3, #3]
100068dc:	2a00      	cmp	r2, #0
100068de:	d030      	beq.n	10006942 <tud_task+0x5d2>
100068e0:	4a39      	ldr	r2, [pc, #228]	; (100069c8 <tud_task+0x658>)
100068e2:	7812      	ldrb	r2, [r2, #0]
100068e4:	4293      	cmp	r3, r2
100068e6:	d22a      	bcs.n	1000693e <tud_task+0x5ce>
100068e8:	4a38      	ldr	r2, [pc, #224]	; (100069cc <tud_task+0x65c>)
100068ea:	00dd      	lsls	r5, r3, #3
100068ec:	1aeb      	subs	r3, r5, r3
100068ee:	6815      	ldr	r5, [r2, #0]
100068f0:	009b      	lsls	r3, r3, #2
100068f2:	18ed      	adds	r5, r5, r3
100068f4:	2d00      	cmp	r5, #0
100068f6:	d100      	bne.n	100068fa <tud_task+0x58a>
100068f8:	e6d3      	b.n	100066a2 <tud_task+0x332>
100068fa:	6928      	ldr	r0, [r5, #16]
100068fc:	f000 fb3e 	bl	10006f7c <usbd_control_set_complete_callback>
10006900:	68eb      	ldr	r3, [r5, #12]
10006902:	a908      	add	r1, sp, #32
10006904:	9801      	ldr	r0, [sp, #4]
10006906:	4798      	blx	r3
10006908:	0005      	movs	r5, r0
1000690a:	e6c7      	b.n	1000669c <tud_task+0x32c>
1000690c:	1a9b      	subs	r3, r3, r2
1000690e:	b2db      	uxtb	r3, r3
10006910:	2b00      	cmp	r3, #0
10006912:	d000      	beq.n	10006916 <tud_task+0x5a6>
10006914:	e5d6      	b.n	100064c4 <tud_task+0x154>
10006916:	482e      	ldr	r0, [pc, #184]	; (100069d0 <tud_task+0x660>)
10006918:	4e2e      	ldr	r6, [pc, #184]	; (100069d4 <tud_task+0x664>)
1000691a:	f000 fb2f 	bl	10006f7c <usbd_control_set_complete_callback>
1000691e:	68f3      	ldr	r3, [r6, #12]
10006920:	a908      	add	r1, sp, #32
10006922:	9801      	ldr	r0, [sp, #4]
10006924:	4798      	blx	r3
10006926:	2800      	cmp	r0, #0
10006928:	d100      	bne.n	1000692c <tud_task+0x5bc>
1000692a:	e5cb      	b.n	100064c4 <tud_task+0x154>
1000692c:	2260      	movs	r2, #96	; 0x60
1000692e:	7923      	ldrb	r3, [r4, #4]
10006930:	421a      	tst	r2, r3
10006932:	d000      	beq.n	10006936 <tud_task+0x5c6>
10006934:	e52d      	b.n	10006392 <tud_task+0x22>
10006936:	2000      	movs	r0, #0
10006938:	f000 fb20 	bl	10006f7c <usbd_control_set_complete_callback>
1000693c:	e529      	b.n	10006392 <tud_task+0x22>
1000693e:	1a9b      	subs	r3, r3, r2
10006940:	b2db      	uxtb	r3, r3
10006942:	2b00      	cmp	r3, #0
10006944:	d000      	beq.n	10006948 <tud_task+0x5d8>
10006946:	e6ac      	b.n	100066a2 <tud_task+0x332>
10006948:	4821      	ldr	r0, [pc, #132]	; (100069d0 <tud_task+0x660>)
1000694a:	4d22      	ldr	r5, [pc, #136]	; (100069d4 <tud_task+0x664>)
1000694c:	e7d6      	b.n	100068fc <tud_task+0x58c>
1000694e:	464b      	mov	r3, r9
10006950:	007f      	lsls	r7, r7, #1
10006952:	19db      	adds	r3, r3, r7
10006954:	4443      	add	r3, r8
10006956:	3320      	adds	r3, #32
10006958:	795b      	ldrb	r3, [r3, #5]
1000695a:	aa06      	add	r2, sp, #24
1000695c:	079b      	lsls	r3, r3, #30
1000695e:	0fdb      	lsrs	r3, r3, #31
10006960:	3202      	adds	r2, #2
10006962:	8013      	strh	r3, [r2, #0]
10006964:	a908      	add	r1, sp, #32
10006966:	2302      	movs	r3, #2
10006968:	9801      	ldr	r0, [sp, #4]
1000696a:	f000 faa3 	bl	10006eb4 <tud_control_xfer>
1000696e:	e594      	b.n	1000649a <tud_task+0x12a>
10006970:	88e3      	ldrh	r3, [r4, #6]
10006972:	007f      	lsls	r7, r7, #1
10006974:	2b00      	cmp	r3, #0
10006976:	d000      	beq.n	1000697a <tud_task+0x60a>
10006978:	e70b      	b.n	10006792 <tud_task+0x422>
1000697a:	9801      	ldr	r0, [sp, #4]
1000697c:	f7ff faa0 	bl	10005ec0 <dcd_edpt_clear_stall>
10006980:	464b      	mov	r3, r9
10006982:	19db      	adds	r3, r3, r7
10006984:	4443      	add	r3, r8
10006986:	3320      	adds	r3, #32
10006988:	795a      	ldrb	r2, [r3, #5]
1000698a:	9902      	ldr	r1, [sp, #8]
1000698c:	43b2      	bics	r2, r6
1000698e:	715a      	strb	r2, [r3, #5]
10006990:	795a      	ldrb	r2, [r3, #5]
10006992:	438a      	bics	r2, r1
10006994:	715a      	strb	r2, [r3, #5]
10006996:	e6fc      	b.n	10006792 <tud_task+0x422>
10006998:	6930      	ldr	r0, [r6, #16]
1000699a:	e7be      	b.n	1000691a <tud_task+0x5aa>
1000699c:	9801      	ldr	r0, [sp, #4]
1000699e:	f7ff fa67 	bl	10005e70 <dcd_edpt_stall>
100069a2:	464b      	mov	r3, r9
100069a4:	2102      	movs	r1, #2
100069a6:	19db      	adds	r3, r3, r7
100069a8:	4443      	add	r3, r8
100069aa:	3320      	adds	r3, #32
100069ac:	795a      	ldrb	r2, [r3, #5]
100069ae:	430a      	orrs	r2, r1
100069b0:	2101      	movs	r1, #1
100069b2:	715a      	strb	r2, [r3, #5]
100069b4:	795a      	ldrb	r2, [r3, #5]
100069b6:	430a      	orrs	r2, r1
100069b8:	715a      	strb	r2, [r3, #5]
100069ba:	e6ea      	b.n	10006792 <tud_task+0x422>
100069bc:	100074d1 	.word	0x100074d1
100069c0:	100095d4 	.word	0x100095d4
100069c4:	00000000 	.word	0x00000000
100069c8:	2000171b 	.word	0x2000171b
100069cc:	20000c84 	.word	0x20000c84
100069d0:	1000741d 	.word	0x1000741d
100069d4:	1000963c 	.word	0x1000963c
100069d8:	100095fc 	.word	0x100095fc
100069dc:	00000000 	.word	0x00000000
100069e0:	1e50      	subs	r0, r2, #1
100069e2:	b2c0      	uxtb	r0, r0
100069e4:	f7ff f826 	bl	10005a34 <tud_descriptor_configuration_cb>
100069e8:	2800      	cmp	r0, #0
100069ea:	d100      	bne.n	100069ee <tud_task+0x67e>
100069ec:	e659      	b.n	100066a2 <tud_task+0x332>
100069ee:	7843      	ldrb	r3, [r0, #1]
100069f0:	2b02      	cmp	r3, #2
100069f2:	d000      	beq.n	100069f6 <tud_task+0x686>
100069f4:	e655      	b.n	100066a2 <tud_task+0x332>
100069f6:	2501      	movs	r5, #1
100069f8:	79c3      	ldrb	r3, [r0, #7]
100069fa:	2610      	movs	r6, #16
100069fc:	115a      	asrs	r2, r3, #5
100069fe:	402a      	ands	r2, r5
10006a00:	0111      	lsls	r1, r2, #4
10006a02:	464a      	mov	r2, r9
10006a04:	7812      	ldrb	r2, [r2, #0]
10006a06:	119b      	asrs	r3, r3, #6
10006a08:	43b2      	bics	r2, r6
10006a0a:	430a      	orrs	r2, r1
10006a0c:	2120      	movs	r1, #32
10006a0e:	402b      	ands	r3, r5
10006a10:	438a      	bics	r2, r1
10006a12:	015b      	lsls	r3, r3, #5
10006a14:	4313      	orrs	r3, r2
10006a16:	464a      	mov	r2, r9
10006a18:	0007      	movs	r7, r0
10006a1a:	7013      	strb	r3, [r2, #0]
10006a1c:	78c3      	ldrb	r3, [r0, #3]
10006a1e:	7882      	ldrb	r2, [r0, #2]
10006a20:	021b      	lsls	r3, r3, #8
10006a22:	4313      	orrs	r3, r2
10006a24:	18c3      	adds	r3, r0, r3
10006a26:	3709      	adds	r7, #9
10006a28:	9304      	str	r3, [sp, #16]
10006a2a:	429f      	cmp	r7, r3
10006a2c:	d300      	bcc.n	10006a30 <tud_task+0x6c0>
10006a2e:	e089      	b.n	10006b44 <tud_task+0x7d4>
10006a30:	4b4d      	ldr	r3, [pc, #308]	; (10006b68 <tud_task+0x7f8>)
10006a32:	4698      	mov	r8, r3
10006a34:	2300      	movs	r3, #0
10006a36:	787a      	ldrb	r2, [r7, #1]
10006a38:	9305      	str	r3, [sp, #20]
10006a3a:	2a0b      	cmp	r2, #11
10006a3c:	d104      	bne.n	10006a48 <tud_task+0x6d8>
10006a3e:	783b      	ldrb	r3, [r7, #0]
10006a40:	9705      	str	r7, [sp, #20]
10006a42:	18fb      	adds	r3, r7, r3
10006a44:	001f      	movs	r7, r3
10006a46:	785a      	ldrb	r2, [r3, #1]
10006a48:	2a04      	cmp	r2, #4
10006a4a:	d000      	beq.n	10006a4e <tud_task+0x6de>
10006a4c:	e629      	b.n	100066a2 <tud_task+0x332>
10006a4e:	9b04      	ldr	r3, [sp, #16]
10006a50:	4a46      	ldr	r2, [pc, #280]	; (10006b6c <tud_task+0x7fc>)
10006a52:	1bdb      	subs	r3, r3, r7
10006a54:	b29b      	uxth	r3, r3
10006a56:	9302      	str	r3, [sp, #8]
10006a58:	4b45      	ldr	r3, [pc, #276]	; (10006b70 <tud_task+0x800>)
10006a5a:	2500      	movs	r5, #0
10006a5c:	781b      	ldrb	r3, [r3, #0]
10006a5e:	2a00      	cmp	r2, #0
10006a60:	d115      	bne.n	10006a8e <tud_task+0x71e>
10006a62:	e019      	b.n	10006a98 <tud_task+0x728>
10006a64:	4642      	mov	r2, r8
10006a66:	6812      	ldr	r2, [r2, #0]
10006a68:	00eb      	lsls	r3, r5, #3
10006a6a:	4694      	mov	ip, r2
10006a6c:	1b5b      	subs	r3, r3, r5
10006a6e:	009b      	lsls	r3, r3, #2
10006a70:	4463      	add	r3, ip
10006a72:	689b      	ldr	r3, [r3, #8]
10006a74:	9a02      	ldr	r2, [sp, #8]
10006a76:	0039      	movs	r1, r7
10006a78:	9801      	ldr	r0, [sp, #4]
10006a7a:	4798      	blx	r3
10006a7c:	2800      	cmp	r0, #0
10006a7e:	d11a      	bne.n	10006ab6 <tud_task+0x746>
10006a80:	4b3b      	ldr	r3, [pc, #236]	; (10006b70 <tud_task+0x800>)
10006a82:	3501      	adds	r5, #1
10006a84:	781b      	ldrb	r3, [r3, #0]
10006a86:	b2ed      	uxtb	r5, r5
10006a88:	42ab      	cmp	r3, r5
10006a8a:	d200      	bcs.n	10006a8e <tud_task+0x71e>
10006a8c:	e609      	b.n	100066a2 <tud_task+0x332>
10006a8e:	429d      	cmp	r5, r3
10006a90:	d3e8      	bcc.n	10006a64 <tud_task+0x6f4>
10006a92:	d10d      	bne.n	10006ab0 <tud_task+0x740>
10006a94:	4b37      	ldr	r3, [pc, #220]	; (10006b74 <tud_task+0x804>)
10006a96:	e7ed      	b.n	10006a74 <tud_task+0x704>
10006a98:	9a02      	ldr	r2, [sp, #8]
10006a9a:	0039      	movs	r1, r7
10006a9c:	9801      	ldr	r0, [sp, #4]
10006a9e:	f000 fc47 	bl	10007330 <cdcd_open>
10006aa2:	1e06      	subs	r6, r0, #0
10006aa4:	d15d      	bne.n	10006b62 <tud_task+0x7f2>
10006aa6:	4b32      	ldr	r3, [pc, #200]	; (10006b70 <tud_task+0x800>)
10006aa8:	781b      	ldrb	r3, [r3, #0]
10006aaa:	2b00      	cmp	r3, #0
10006aac:	d100      	bne.n	10006ab0 <tud_task+0x740>
10006aae:	e5f8      	b.n	100066a2 <tud_task+0x332>
10006ab0:	2300      	movs	r3, #0
10006ab2:	689b      	ldr	r3, [r3, #8]
10006ab4:	deff      	udf	#255	; 0xff
10006ab6:	0006      	movs	r6, r0
10006ab8:	2e08      	cmp	r6, #8
10006aba:	d800      	bhi.n	10006abe <tud_task+0x74e>
10006abc:	e5f1      	b.n	100066a2 <tud_task+0x332>
10006abe:	9b02      	ldr	r3, [sp, #8]
10006ac0:	429e      	cmp	r6, r3
10006ac2:	d900      	bls.n	10006ac6 <tud_task+0x756>
10006ac4:	e5ed      	b.n	100066a2 <tud_task+0x332>
10006ac6:	464a      	mov	r2, r9
10006ac8:	78bb      	ldrb	r3, [r7, #2]
10006aca:	18d2      	adds	r2, r2, r3
10006acc:	78d1      	ldrb	r1, [r2, #3]
10006ace:	29ff      	cmp	r1, #255	; 0xff
10006ad0:	d000      	beq.n	10006ad4 <tud_task+0x764>
10006ad2:	e5e6      	b.n	100066a2 <tud_task+0x332>
10006ad4:	9805      	ldr	r0, [sp, #20]
10006ad6:	70d5      	strb	r5, [r2, #3]
10006ad8:	2800      	cmp	r0, #0
10006ada:	d014      	beq.n	10006b06 <tud_task+0x796>
10006adc:	7881      	ldrb	r1, [r0, #2]
10006ade:	4299      	cmp	r1, r3
10006ae0:	d000      	beq.n	10006ae4 <tud_task+0x774>
10006ae2:	e5de      	b.n	100066a2 <tud_task+0x332>
10006ae4:	7902      	ldrb	r2, [r0, #4]
10006ae6:	797b      	ldrb	r3, [r7, #5]
10006ae8:	429a      	cmp	r2, r3
10006aea:	d000      	beq.n	10006aee <tud_task+0x77e>
10006aec:	e5d9      	b.n	100066a2 <tud_task+0x332>
10006aee:	78c2      	ldrb	r2, [r0, #3]
10006af0:	2a01      	cmp	r2, #1
10006af2:	d908      	bls.n	10006b06 <tud_task+0x796>
10006af4:	3a02      	subs	r2, #2
10006af6:	3104      	adds	r1, #4
10006af8:	4449      	add	r1, r9
10006afa:	b2d2      	uxtb	r2, r2
10006afc:	0008      	movs	r0, r1
10006afe:	3201      	adds	r2, #1
10006b00:	0029      	movs	r1, r5
10006b02:	f7fe fc7b 	bl	100053fc <__wrap_memset>
10006b06:	217f      	movs	r1, #127	; 0x7f
10006b08:	003a      	movs	r2, r7
10006b0a:	2300      	movs	r3, #0
10006b0c:	468c      	mov	ip, r1
10006b0e:	7851      	ldrb	r1, [r2, #1]
10006b10:	2905      	cmp	r1, #5
10006b12:	d107      	bne.n	10006b24 <tud_task+0x7b4>
10006b14:	4661      	mov	r1, ip
10006b16:	7890      	ldrb	r0, [r2, #2]
10006b18:	4001      	ands	r1, r0
10006b1a:	0049      	lsls	r1, r1, #1
10006b1c:	4449      	add	r1, r9
10006b1e:	3113      	adds	r1, #19
10006b20:	09c0      	lsrs	r0, r0, #7
10006b22:	540d      	strb	r5, [r1, r0]
10006b24:	7811      	ldrb	r1, [r2, #0]
10006b26:	185b      	adds	r3, r3, r1
10006b28:	b29b      	uxth	r3, r3
10006b2a:	1852      	adds	r2, r2, r1
10006b2c:	429e      	cmp	r6, r3
10006b2e:	d8ee      	bhi.n	10006b0e <tud_task+0x79e>
10006b30:	4b0f      	ldr	r3, [pc, #60]	; (10006b70 <tud_task+0x800>)
10006b32:	19bf      	adds	r7, r7, r6
10006b34:	781b      	ldrb	r3, [r3, #0]
10006b36:	42ab      	cmp	r3, r5
10006b38:	d200      	bcs.n	10006b3c <tud_task+0x7cc>
10006b3a:	e5b2      	b.n	100066a2 <tud_task+0x332>
10006b3c:	9b04      	ldr	r3, [sp, #16]
10006b3e:	42bb      	cmp	r3, r7
10006b40:	d900      	bls.n	10006b44 <tud_task+0x7d4>
10006b42:	e777      	b.n	10006a34 <tud_task+0x6c4>
10006b44:	4b0c      	ldr	r3, [pc, #48]	; (10006b78 <tud_task+0x808>)
10006b46:	2b00      	cmp	r3, #0
10006b48:	d100      	bne.n	10006b4c <tud_task+0x7dc>
10006b4a:	e638      	b.n	100067be <tud_task+0x44e>
10006b4c:	e000      	b.n	10006b50 <tud_task+0x7e0>
10006b4e:	bf00      	nop
10006b50:	e635      	b.n	100067be <tud_task+0x44e>
10006b52:	4b0a      	ldr	r3, [pc, #40]	; (10006b7c <tud_task+0x80c>)
10006b54:	2b00      	cmp	r3, #0
10006b56:	d100      	bne.n	10006b5a <tud_task+0x7ea>
10006b58:	e5a3      	b.n	100066a2 <tud_task+0x332>
10006b5a:	e000      	b.n	10006b5e <tud_task+0x7ee>
10006b5c:	bf00      	nop
10006b5e:	0005      	movs	r5, r0
10006b60:	e69e      	b.n	100068a0 <tud_task+0x530>
10006b62:	4d02      	ldr	r5, [pc, #8]	; (10006b6c <tud_task+0x7fc>)
10006b64:	e7a8      	b.n	10006ab8 <tud_task+0x748>
10006b66:	46c0      	nop			; (mov r8, r8)
10006b68:	20000c84 	.word	0x20000c84
10006b6c:	00000000 	.word	0x00000000
10006b70:	2000171b 	.word	0x2000171b
10006b74:	10007331 	.word	0x10007331
	...

10006b80 <dcd_event_bus_signal>:
10006b80:	b570      	push	{r4, r5, r6, lr}
10006b82:	b084      	sub	sp, #16
10006b84:	466b      	mov	r3, sp
10006b86:	0006      	movs	r6, r0
10006b88:	000c      	movs	r4, r1
10006b8a:	ad01      	add	r5, sp, #4
10006b8c:	220a      	movs	r2, #10
10006b8e:	2100      	movs	r1, #0
10006b90:	1d98      	adds	r0, r3, #6
10006b92:	f7fe fc33 	bl	100053fc <__wrap_memset>
10006b96:	702e      	strb	r6, [r5, #0]
10006b98:	706c      	strb	r4, [r5, #1]
10006b9a:	2c03      	cmp	r4, #3
10006b9c:	d008      	beq.n	10006bb0 <dcd_event_bus_signal+0x30>
10006b9e:	d91b      	bls.n	10006bd8 <dcd_event_bus_signal+0x58>
10006ba0:	2c04      	cmp	r4, #4
10006ba2:	d007      	beq.n	10006bb4 <dcd_event_bus_signal+0x34>
10006ba4:	2c05      	cmp	r4, #5
10006ba6:	d140      	bne.n	10006c2a <dcd_event_bus_signal+0xaa>
10006ba8:	4b2c      	ldr	r3, [pc, #176]	; (10006c5c <dcd_event_bus_signal+0xdc>)
10006baa:	781a      	ldrb	r2, [r3, #0]
10006bac:	07d2      	lsls	r2, r2, #31
10006bae:	d446      	bmi.n	10006c3e <dcd_event_bus_signal+0xbe>
10006bb0:	b004      	add	sp, #16
10006bb2:	bd70      	pop	{r4, r5, r6, pc}
10006bb4:	4b29      	ldr	r3, [pc, #164]	; (10006c5c <dcd_event_bus_signal+0xdc>)
10006bb6:	781a      	ldrb	r2, [r3, #0]
10006bb8:	07d2      	lsls	r2, r2, #31
10006bba:	d5f9      	bpl.n	10006bb0 <dcd_event_bus_signal+0x30>
10006bbc:	2104      	movs	r1, #4
10006bbe:	781a      	ldrb	r2, [r3, #0]
10006bc0:	430a      	orrs	r2, r1
10006bc2:	701a      	strb	r2, [r3, #0]
10006bc4:	4b26      	ldr	r3, [pc, #152]	; (10006c60 <dcd_event_bus_signal+0xe0>)
10006bc6:	681c      	ldr	r4, [r3, #0]
10006bc8:	69a2      	ldr	r2, [r4, #24]
10006bca:	f3ef 8110 	mrs	r1, PRIMASK
10006bce:	b672      	cpsid	i
10006bd0:	6813      	ldr	r3, [r2, #0]
10006bd2:	2b00      	cmp	r3, #0
10006bd4:	d119      	bne.n	10006c0a <dcd_event_bus_signal+0x8a>
10006bd6:	e7fb      	b.n	10006bd0 <dcd_event_bus_signal+0x50>
10006bd8:	2c02      	cmp	r4, #2
10006bda:	d126      	bne.n	10006c2a <dcd_event_bus_signal+0xaa>
10006bdc:	2101      	movs	r1, #1
10006bde:	4b1f      	ldr	r3, [pc, #124]	; (10006c5c <dcd_event_bus_signal+0xdc>)
10006be0:	781a      	ldrb	r2, [r3, #0]
10006be2:	438a      	bics	r2, r1
10006be4:	701a      	strb	r2, [r3, #0]
10006be6:	781a      	ldrb	r2, [r3, #0]
10006be8:	3103      	adds	r1, #3
10006bea:	43a2      	bics	r2, r4
10006bec:	701a      	strb	r2, [r3, #0]
10006bee:	2200      	movs	r2, #0
10006bf0:	705a      	strb	r2, [r3, #1]
10006bf2:	781a      	ldrb	r2, [r3, #0]
10006bf4:	438a      	bics	r2, r1
10006bf6:	701a      	strb	r2, [r3, #0]
10006bf8:	4b19      	ldr	r3, [pc, #100]	; (10006c60 <dcd_event_bus_signal+0xe0>)
10006bfa:	681c      	ldr	r4, [r3, #0]
10006bfc:	69a2      	ldr	r2, [r4, #24]
10006bfe:	f3ef 8110 	mrs	r1, PRIMASK
10006c02:	b672      	cpsid	i
10006c04:	6813      	ldr	r3, [r2, #0]
10006c06:	2b00      	cmp	r3, #0
10006c08:	d0fc      	beq.n	10006c04 <dcd_event_bus_signal+0x84>
10006c0a:	f3bf 8f5f 	dmb	sy
10006c0e:	61e1      	str	r1, [r4, #28]
10006c10:	0020      	movs	r0, r4
10006c12:	0029      	movs	r1, r5
10006c14:	f000 fe7e 	bl	10007914 <tu_fifo_write>
10006c18:	69a2      	ldr	r2, [r4, #24]
10006c1a:	69e3      	ldr	r3, [r4, #28]
10006c1c:	f3bf 8f5f 	dmb	sy
10006c20:	2100      	movs	r1, #0
10006c22:	6011      	str	r1, [r2, #0]
10006c24:	f383 8810 	msr	PRIMASK, r3
10006c28:	e7c2      	b.n	10006bb0 <dcd_event_bus_signal+0x30>
10006c2a:	4b0d      	ldr	r3, [pc, #52]	; (10006c60 <dcd_event_bus_signal+0xe0>)
10006c2c:	681c      	ldr	r4, [r3, #0]
10006c2e:	69a2      	ldr	r2, [r4, #24]
10006c30:	f3ef 8110 	mrs	r1, PRIMASK
10006c34:	b672      	cpsid	i
10006c36:	6813      	ldr	r3, [r2, #0]
10006c38:	2b00      	cmp	r3, #0
10006c3a:	d1e6      	bne.n	10006c0a <dcd_event_bus_signal+0x8a>
10006c3c:	e7fb      	b.n	10006c36 <dcd_event_bus_signal+0xb6>
10006c3e:	2104      	movs	r1, #4
10006c40:	781a      	ldrb	r2, [r3, #0]
10006c42:	438a      	bics	r2, r1
10006c44:	701a      	strb	r2, [r3, #0]
10006c46:	4b06      	ldr	r3, [pc, #24]	; (10006c60 <dcd_event_bus_signal+0xe0>)
10006c48:	681c      	ldr	r4, [r3, #0]
10006c4a:	69a2      	ldr	r2, [r4, #24]
10006c4c:	f3ef 8110 	mrs	r1, PRIMASK
10006c50:	b672      	cpsid	i
10006c52:	6813      	ldr	r3, [r2, #0]
10006c54:	2b00      	cmp	r3, #0
10006c56:	d1d8      	bne.n	10006c0a <dcd_event_bus_signal+0x8a>
10006c58:	e7fb      	b.n	10006c52 <dcd_event_bus_signal+0xd2>
10006c5a:	46c0      	nop			; (mov r8, r8)
10006c5c:	20000fb4 	.word	0x20000fb4
10006c60:	20000ff0 	.word	0x20000ff0

10006c64 <dcd_event_setup_received>:
10006c64:	2300      	movs	r3, #0
10006c66:	b530      	push	{r4, r5, lr}
10006c68:	b085      	sub	sp, #20
10006c6a:	ad01      	add	r5, sp, #4
10006c6c:	806b      	strh	r3, [r5, #2]
10006c6e:	7028      	strb	r0, [r5, #0]
10006c70:	3306      	adds	r3, #6
10006c72:	2208      	movs	r2, #8
10006c74:	a802      	add	r0, sp, #8
10006c76:	706b      	strb	r3, [r5, #1]
10006c78:	f7fe fbc6 	bl	10005408 <__wrap___aeabi_memcpy>
10006c7c:	4b0c      	ldr	r3, [pc, #48]	; (10006cb0 <dcd_event_setup_received+0x4c>)
10006c7e:	681c      	ldr	r4, [r3, #0]
10006c80:	69a2      	ldr	r2, [r4, #24]
10006c82:	f3ef 8310 	mrs	r3, PRIMASK
10006c86:	b672      	cpsid	i
10006c88:	6811      	ldr	r1, [r2, #0]
10006c8a:	2900      	cmp	r1, #0
10006c8c:	d0fc      	beq.n	10006c88 <dcd_event_setup_received+0x24>
10006c8e:	f3bf 8f5f 	dmb	sy
10006c92:	61e3      	str	r3, [r4, #28]
10006c94:	0029      	movs	r1, r5
10006c96:	0020      	movs	r0, r4
10006c98:	f000 fe3c 	bl	10007914 <tu_fifo_write>
10006c9c:	69a2      	ldr	r2, [r4, #24]
10006c9e:	69e3      	ldr	r3, [r4, #28]
10006ca0:	f3bf 8f5f 	dmb	sy
10006ca4:	2100      	movs	r1, #0
10006ca6:	6011      	str	r1, [r2, #0]
10006ca8:	f383 8810 	msr	PRIMASK, r3
10006cac:	b005      	add	sp, #20
10006cae:	bd30      	pop	{r4, r5, pc}
10006cb0:	20000ff0 	.word	0x20000ff0

10006cb4 <dcd_event_xfer_complete>:
10006cb4:	b5f0      	push	{r4, r5, r6, r7, lr}
10006cb6:	46c6      	mov	lr, r8
10006cb8:	b500      	push	{lr}
10006cba:	b084      	sub	sp, #16
10006cbc:	001d      	movs	r5, r3
10006cbe:	466b      	mov	r3, sp
10006cc0:	4680      	mov	r8, r0
10006cc2:	000f      	movs	r7, r1
10006cc4:	0016      	movs	r6, r2
10006cc6:	2100      	movs	r1, #0
10006cc8:	2206      	movs	r2, #6
10006cca:	1d98      	adds	r0, r3, #6
10006ccc:	f7fe fb96 	bl	100053fc <__wrap_memset>
10006cd0:	4643      	mov	r3, r8
10006cd2:	ac01      	add	r4, sp, #4
10006cd4:	7023      	strb	r3, [r4, #0]
10006cd6:	2307      	movs	r3, #7
10006cd8:	7063      	strb	r3, [r4, #1]
10006cda:	4b0f      	ldr	r3, [pc, #60]	; (10006d18 <dcd_event_xfer_complete+0x64>)
10006cdc:	7165      	strb	r5, [r4, #5]
10006cde:	681d      	ldr	r5, [r3, #0]
10006ce0:	7127      	strb	r7, [r4, #4]
10006ce2:	60a6      	str	r6, [r4, #8]
10006ce4:	69aa      	ldr	r2, [r5, #24]
10006ce6:	f3ef 8310 	mrs	r3, PRIMASK
10006cea:	b672      	cpsid	i
10006cec:	6811      	ldr	r1, [r2, #0]
10006cee:	2900      	cmp	r1, #0
10006cf0:	d0fc      	beq.n	10006cec <dcd_event_xfer_complete+0x38>
10006cf2:	f3bf 8f5f 	dmb	sy
10006cf6:	61eb      	str	r3, [r5, #28]
10006cf8:	0021      	movs	r1, r4
10006cfa:	0028      	movs	r0, r5
10006cfc:	f000 fe0a 	bl	10007914 <tu_fifo_write>
10006d00:	69aa      	ldr	r2, [r5, #24]
10006d02:	69eb      	ldr	r3, [r5, #28]
10006d04:	f3bf 8f5f 	dmb	sy
10006d08:	2100      	movs	r1, #0
10006d0a:	6011      	str	r1, [r2, #0]
10006d0c:	f383 8810 	msr	PRIMASK, r3
10006d10:	b004      	add	sp, #16
10006d12:	bc04      	pop	{r2}
10006d14:	4690      	mov	r8, r2
10006d16:	bdf0      	pop	{r4, r5, r6, r7, pc}
10006d18:	20000ff0 	.word	0x20000ff0

10006d1c <usbd_open_edpt_pair>:
10006d1c:	b5f0      	push	{r4, r5, r6, r7, lr}
10006d1e:	46d6      	mov	lr, sl
10006d20:	000c      	movs	r4, r1
10006d22:	b500      	push	{lr}
10006d24:	4682      	mov	sl, r0
10006d26:	2a00      	cmp	r2, #0
10006d28:	d029      	beq.n	10006d7e <usbd_open_edpt_pair+0x62>
10006d2a:	7849      	ldrb	r1, [r1, #1]
10006d2c:	2905      	cmp	r1, #5
10006d2e:	d128      	bne.n	10006d82 <usbd_open_edpt_pair+0x66>
10006d30:	78e1      	ldrb	r1, [r4, #3]
10006d32:	0789      	lsls	r1, r1, #30
10006d34:	0f8d      	lsrs	r5, r1, #30
10006d36:	42ab      	cmp	r3, r5
10006d38:	d123      	bne.n	10006d82 <usbd_open_edpt_pair+0x66>
10006d3a:	1e56      	subs	r6, r2, #1
10006d3c:	2700      	movs	r7, #0
10006d3e:	e00e      	b.n	10006d5e <usbd_open_edpt_pair+0x42>
10006d40:	9a06      	ldr	r2, [sp, #24]
10006d42:	7013      	strb	r3, [r2, #0]
10006d44:	7823      	ldrb	r3, [r4, #0]
10006d46:	18e4      	adds	r4, r4, r3
10006d48:	42b7      	cmp	r7, r6
10006d4a:	d018      	beq.n	10006d7e <usbd_open_edpt_pair+0x62>
10006d4c:	7863      	ldrb	r3, [r4, #1]
10006d4e:	2b05      	cmp	r3, #5
10006d50:	d117      	bne.n	10006d82 <usbd_open_edpt_pair+0x66>
10006d52:	78e3      	ldrb	r3, [r4, #3]
10006d54:	3701      	adds	r7, #1
10006d56:	079b      	lsls	r3, r3, #30
10006d58:	0f9b      	lsrs	r3, r3, #30
10006d5a:	42ab      	cmp	r3, r5
10006d5c:	d111      	bne.n	10006d82 <usbd_open_edpt_pair+0x66>
10006d5e:	0021      	movs	r1, r4
10006d60:	4650      	mov	r0, sl
10006d62:	f7fe ffc7 	bl	10005cf4 <dcd_edpt_open>
10006d66:	2800      	cmp	r0, #0
10006d68:	d00b      	beq.n	10006d82 <usbd_open_edpt_pair+0x66>
10006d6a:	78a3      	ldrb	r3, [r4, #2]
10006d6c:	09da      	lsrs	r2, r3, #7
10006d6e:	2a01      	cmp	r2, #1
10006d70:	d1e6      	bne.n	10006d40 <usbd_open_edpt_pair+0x24>
10006d72:	9a07      	ldr	r2, [sp, #28]
10006d74:	7013      	strb	r3, [r2, #0]
10006d76:	7823      	ldrb	r3, [r4, #0]
10006d78:	18e4      	adds	r4, r4, r3
10006d7a:	42b7      	cmp	r7, r6
10006d7c:	d1e6      	bne.n	10006d4c <usbd_open_edpt_pair+0x30>
10006d7e:	2001      	movs	r0, #1
10006d80:	e000      	b.n	10006d84 <usbd_open_edpt_pair+0x68>
10006d82:	2000      	movs	r0, #0
10006d84:	bc04      	pop	{r2}
10006d86:	4692      	mov	sl, r2
10006d88:	bdf0      	pop	{r4, r5, r6, r7, pc}
10006d8a:	46c0      	nop			; (mov r8, r8)

10006d8c <usbd_edpt_open>:
10006d8c:	b510      	push	{r4, lr}
10006d8e:	f7fe ffb1 	bl	10005cf4 <dcd_edpt_open>
10006d92:	bd10      	pop	{r4, pc}

10006d94 <usbd_edpt_claim>:
10006d94:	237f      	movs	r3, #127	; 0x7f
10006d96:	b570      	push	{r4, r5, r6, lr}
10006d98:	400b      	ands	r3, r1
10006d9a:	4c13      	ldr	r4, [pc, #76]	; (10006de8 <usbd_edpt_claim+0x54>)
10006d9c:	005b      	lsls	r3, r3, #1
10006d9e:	09c9      	lsrs	r1, r1, #7
10006da0:	18e4      	adds	r4, r4, r3
10006da2:	1864      	adds	r4, r4, r1
10006da4:	3420      	adds	r4, #32
10006da6:	7965      	ldrb	r5, [r4, #5]
10006da8:	07ed      	lsls	r5, r5, #31
10006daa:	0fed      	lsrs	r5, r5, #31
10006dac:	d104      	bne.n	10006db8 <usbd_edpt_claim+0x24>
10006dae:	7963      	ldrb	r3, [r4, #5]
10006db0:	075b      	lsls	r3, r3, #29
10006db2:	d503      	bpl.n	10006dbc <usbd_edpt_claim+0x28>
10006db4:	0028      	movs	r0, r5
10006db6:	bd70      	pop	{r4, r5, r6, pc}
10006db8:	2500      	movs	r5, #0
10006dba:	e7fb      	b.n	10006db4 <usbd_edpt_claim+0x20>
10006dbc:	2101      	movs	r1, #1
10006dbe:	4e0b      	ldr	r6, [pc, #44]	; (10006dec <usbd_edpt_claim+0x58>)
10006dc0:	4249      	negs	r1, r1
10006dc2:	6830      	ldr	r0, [r6, #0]
10006dc4:	f002 f8c8 	bl	10008f58 <__mutex_enter_timeout_ms_veneer>
10006dc8:	7963      	ldrb	r3, [r4, #5]
10006dca:	07db      	lsls	r3, r3, #31
10006dcc:	d407      	bmi.n	10006dde <usbd_edpt_claim+0x4a>
10006dce:	7963      	ldrb	r3, [r4, #5]
10006dd0:	075b      	lsls	r3, r3, #29
10006dd2:	d404      	bmi.n	10006dde <usbd_edpt_claim+0x4a>
10006dd4:	2204      	movs	r2, #4
10006dd6:	2501      	movs	r5, #1
10006dd8:	7963      	ldrb	r3, [r4, #5]
10006dda:	4313      	orrs	r3, r2
10006ddc:	7163      	strb	r3, [r4, #5]
10006dde:	6830      	ldr	r0, [r6, #0]
10006de0:	f002 f89a 	bl	10008f18 <__mutex_exit_veneer>
10006de4:	e7e6      	b.n	10006db4 <usbd_edpt_claim+0x20>
10006de6:	46c0      	nop			; (mov r8, r8)
10006de8:	20000fb4 	.word	0x20000fb4
10006dec:	20000fec 	.word	0x20000fec

10006df0 <usbd_edpt_release>:
10006df0:	b570      	push	{r4, r5, r6, lr}
10006df2:	000d      	movs	r5, r1
10006df4:	2101      	movs	r1, #1
10006df6:	4c0f      	ldr	r4, [pc, #60]	; (10006e34 <usbd_edpt_release+0x44>)
10006df8:	4249      	negs	r1, r1
10006dfa:	6820      	ldr	r0, [r4, #0]
10006dfc:	f002 f8ac 	bl	10008f58 <__mutex_enter_timeout_ms_veneer>
10006e00:	217f      	movs	r1, #127	; 0x7f
10006e02:	4029      	ands	r1, r5
10006e04:	004b      	lsls	r3, r1, #1
10006e06:	490c      	ldr	r1, [pc, #48]	; (10006e38 <usbd_edpt_release+0x48>)
10006e08:	09ed      	lsrs	r5, r5, #7
10006e0a:	18c9      	adds	r1, r1, r3
10006e0c:	1949      	adds	r1, r1, r5
10006e0e:	3120      	adds	r1, #32
10006e10:	794b      	ldrb	r3, [r1, #5]
10006e12:	2500      	movs	r5, #0
10006e14:	07db      	lsls	r3, r3, #31
10006e16:	d407      	bmi.n	10006e28 <usbd_edpt_release+0x38>
10006e18:	794b      	ldrb	r3, [r1, #5]
10006e1a:	075b      	lsls	r3, r3, #29
10006e1c:	d504      	bpl.n	10006e28 <usbd_edpt_release+0x38>
10006e1e:	2204      	movs	r2, #4
10006e20:	794b      	ldrb	r3, [r1, #5]
10006e22:	3501      	adds	r5, #1
10006e24:	4393      	bics	r3, r2
10006e26:	714b      	strb	r3, [r1, #5]
10006e28:	6820      	ldr	r0, [r4, #0]
10006e2a:	f002 f875 	bl	10008f18 <__mutex_exit_veneer>
10006e2e:	0028      	movs	r0, r5
10006e30:	bd70      	pop	{r4, r5, r6, pc}
10006e32:	46c0      	nop			; (mov r8, r8)
10006e34:	20000fec 	.word	0x20000fec
10006e38:	20000fb4 	.word	0x20000fb4

10006e3c <usbd_edpt_xfer>:
10006e3c:	b570      	push	{r4, r5, r6, lr}
10006e3e:	247f      	movs	r4, #127	; 0x7f
10006e40:	400c      	ands	r4, r1
10006e42:	0065      	lsls	r5, r4, #1
10006e44:	4c0e      	ldr	r4, [pc, #56]	; (10006e80 <usbd_edpt_xfer+0x44>)
10006e46:	0006      	movs	r6, r0
10006e48:	1964      	adds	r4, r4, r5
10006e4a:	09c8      	lsrs	r0, r1, #7
10006e4c:	1824      	adds	r4, r4, r0
10006e4e:	3420      	adds	r4, #32
10006e50:	7965      	ldrb	r5, [r4, #5]
10006e52:	2000      	movs	r0, #0
10006e54:	07ed      	lsls	r5, r5, #31
10006e56:	d500      	bpl.n	10006e5a <usbd_edpt_xfer+0x1e>
10006e58:	bd70      	pop	{r4, r5, r6, pc}
10006e5a:	2501      	movs	r5, #1
10006e5c:	7960      	ldrb	r0, [r4, #5]
10006e5e:	4328      	orrs	r0, r5
10006e60:	7160      	strb	r0, [r4, #5]
10006e62:	0030      	movs	r0, r6
10006e64:	f7fe ffee 	bl	10005e44 <dcd_edpt_xfer>
10006e68:	2800      	cmp	r0, #0
10006e6a:	d1f5      	bne.n	10006e58 <usbd_edpt_xfer+0x1c>
10006e6c:	2201      	movs	r2, #1
10006e6e:	7963      	ldrb	r3, [r4, #5]
10006e70:	4393      	bics	r3, r2
10006e72:	7163      	strb	r3, [r4, #5]
10006e74:	7963      	ldrb	r3, [r4, #5]
10006e76:	3203      	adds	r2, #3
10006e78:	4393      	bics	r3, r2
10006e7a:	7163      	strb	r3, [r4, #5]
10006e7c:	e7ec      	b.n	10006e58 <usbd_edpt_xfer+0x1c>
10006e7e:	46c0      	nop			; (mov r8, r8)
10006e80:	20000fb4 	.word	0x20000fb4

10006e84 <tud_control_status>:
10006e84:	b570      	push	{r4, r5, r6, lr}
10006e86:	4c0a      	ldr	r4, [pc, #40]	; (10006eb0 <tud_control_status+0x2c>)
10006e88:	0006      	movs	r6, r0
10006e8a:	2208      	movs	r2, #8
10006e8c:	0020      	movs	r0, r4
10006e8e:	000d      	movs	r5, r1
10006e90:	f7fe faba 	bl	10005408 <__wrap___aeabi_memcpy>
10006e94:	2300      	movs	r3, #0
10006e96:	2100      	movs	r1, #0
10006e98:	60a3      	str	r3, [r4, #8]
10006e9a:	60e3      	str	r3, [r4, #12]
10006e9c:	5669      	ldrsb	r1, [r5, r1]
10006e9e:	0030      	movs	r0, r6
10006ea0:	43c9      	mvns	r1, r1
10006ea2:	0fc9      	lsrs	r1, r1, #31
10006ea4:	01c9      	lsls	r1, r1, #7
10006ea6:	2200      	movs	r2, #0
10006ea8:	f7fe ffcc 	bl	10005e44 <dcd_edpt_xfer>
10006eac:	bd70      	pop	{r4, r5, r6, pc}
10006eae:	46c0      	nop			; (mov r8, r8)
10006eb0:	20000f58 	.word	0x20000f58

10006eb4 <tud_control_xfer>:
10006eb4:	b5f0      	push	{r4, r5, r6, r7, lr}
10006eb6:	46c6      	mov	lr, r8
10006eb8:	4690      	mov	r8, r2
10006eba:	4c29      	ldr	r4, [pc, #164]	; (10006f60 <tud_control_xfer+0xac>)
10006ebc:	2208      	movs	r2, #8
10006ebe:	b500      	push	{lr}
10006ec0:	0006      	movs	r6, r0
10006ec2:	0020      	movs	r0, r4
10006ec4:	000d      	movs	r5, r1
10006ec6:	001f      	movs	r7, r3
10006ec8:	f7fe fa9e 	bl	10005408 <__wrap___aeabi_memcpy>
10006ecc:	4643      	mov	r3, r8
10006ece:	60a3      	str	r3, [r4, #8]
10006ed0:	2300      	movs	r3, #0
10006ed2:	81e3      	strh	r3, [r4, #14]
10006ed4:	79eb      	ldrb	r3, [r5, #7]
10006ed6:	79aa      	ldrb	r2, [r5, #6]
10006ed8:	021b      	lsls	r3, r3, #8
10006eda:	4313      	orrs	r3, r2
10006edc:	1c1a      	adds	r2, r3, #0
10006ede:	42bb      	cmp	r3, r7
10006ee0:	d900      	bls.n	10006ee4 <tud_control_xfer+0x30>
10006ee2:	1c3a      	adds	r2, r7, #0
10006ee4:	b297      	uxth	r7, r2
10006ee6:	81a2      	strh	r2, [r4, #12]
10006ee8:	2b00      	cmp	r3, #0
10006eea:	d012      	beq.n	10006f12 <tud_control_xfer+0x5e>
10006eec:	2f00      	cmp	r7, #0
10006eee:	d01d      	beq.n	10006f2c <tud_control_xfer+0x78>
10006ef0:	4643      	mov	r3, r8
10006ef2:	2b00      	cmp	r3, #0
10006ef4:	d02e      	beq.n	10006f54 <tud_control_xfer+0xa0>
10006ef6:	1c3b      	adds	r3, r7, #0
10006ef8:	2f40      	cmp	r7, #64	; 0x40
10006efa:	d81d      	bhi.n	10006f38 <tud_control_xfer+0x84>
10006efc:	b29f      	uxth	r7, r3
10006efe:	7823      	ldrb	r3, [r4, #0]
10006f00:	2b7f      	cmp	r3, #127	; 0x7f
10006f02:	d81e      	bhi.n	10006f42 <tud_control_xfer+0x8e>
10006f04:	2100      	movs	r1, #0
10006f06:	4a17      	ldr	r2, [pc, #92]	; (10006f64 <tud_control_xfer+0xb0>)
10006f08:	003b      	movs	r3, r7
10006f0a:	0030      	movs	r0, r6
10006f0c:	f7fe ff9a 	bl	10005e44 <dcd_edpt_xfer>
10006f10:	e009      	b.n	10006f26 <tud_control_xfer+0x72>
10006f12:	2100      	movs	r1, #0
10006f14:	5669      	ldrsb	r1, [r5, r1]
10006f16:	2300      	movs	r3, #0
10006f18:	43c9      	mvns	r1, r1
10006f1a:	0fc9      	lsrs	r1, r1, #31
10006f1c:	01c9      	lsls	r1, r1, #7
10006f1e:	2200      	movs	r2, #0
10006f20:	0030      	movs	r0, r6
10006f22:	f7fe ff8f 	bl	10005e44 <dcd_edpt_xfer>
10006f26:	bc04      	pop	{r2}
10006f28:	4690      	mov	r8, r2
10006f2a:	bdf0      	pop	{r4, r5, r6, r7, pc}
10006f2c:	7823      	ldrb	r3, [r4, #0]
10006f2e:	2b7f      	cmp	r3, #127	; 0x7f
10006f30:	d812      	bhi.n	10006f58 <tud_control_xfer+0xa4>
10006f32:	2100      	movs	r1, #0
10006f34:	2200      	movs	r2, #0
10006f36:	e7e7      	b.n	10006f08 <tud_control_xfer+0x54>
10006f38:	2340      	movs	r3, #64	; 0x40
10006f3a:	b29f      	uxth	r7, r3
10006f3c:	7823      	ldrb	r3, [r4, #0]
10006f3e:	2b7f      	cmp	r3, #127	; 0x7f
10006f40:	d9e0      	bls.n	10006f04 <tud_control_xfer+0x50>
10006f42:	4c08      	ldr	r4, [pc, #32]	; (10006f64 <tud_control_xfer+0xb0>)
10006f44:	003a      	movs	r2, r7
10006f46:	4641      	mov	r1, r8
10006f48:	0020      	movs	r0, r4
10006f4a:	f7fe fa5d 	bl	10005408 <__wrap___aeabi_memcpy>
10006f4e:	2180      	movs	r1, #128	; 0x80
10006f50:	0022      	movs	r2, r4
10006f52:	e7d9      	b.n	10006f08 <tud_control_xfer+0x54>
10006f54:	2000      	movs	r0, #0
10006f56:	e7e6      	b.n	10006f26 <tud_control_xfer+0x72>
10006f58:	2180      	movs	r1, #128	; 0x80
10006f5a:	2200      	movs	r2, #0
10006f5c:	e7d4      	b.n	10006f08 <tud_control_xfer+0x54>
10006f5e:	46c0      	nop			; (mov r8, r8)
10006f60:	20000f58 	.word	0x20000f58
10006f64:	20000f74 	.word	0x20000f74

10006f68 <usbd_control_reset>:
10006f68:	b510      	push	{r4, lr}
10006f6a:	2214      	movs	r2, #20
10006f6c:	2100      	movs	r1, #0
10006f6e:	4802      	ldr	r0, [pc, #8]	; (10006f78 <usbd_control_reset+0x10>)
10006f70:	f7fe fa44 	bl	100053fc <__wrap_memset>
10006f74:	bd10      	pop	{r4, pc}
10006f76:	46c0      	nop			; (mov r8, r8)
10006f78:	20000f58 	.word	0x20000f58

10006f7c <usbd_control_set_complete_callback>:
10006f7c:	4b01      	ldr	r3, [pc, #4]	; (10006f84 <usbd_control_set_complete_callback+0x8>)
10006f7e:	6118      	str	r0, [r3, #16]
10006f80:	4770      	bx	lr
10006f82:	46c0      	nop			; (mov r8, r8)
10006f84:	20000f58 	.word	0x20000f58

10006f88 <usbd_control_set_request>:
10006f88:	b510      	push	{r4, lr}
10006f8a:	4c05      	ldr	r4, [pc, #20]	; (10006fa0 <usbd_control_set_request+0x18>)
10006f8c:	0001      	movs	r1, r0
10006f8e:	2208      	movs	r2, #8
10006f90:	0020      	movs	r0, r4
10006f92:	f7fe fa39 	bl	10005408 <__wrap___aeabi_memcpy>
10006f96:	2300      	movs	r3, #0
10006f98:	60a3      	str	r3, [r4, #8]
10006f9a:	60e3      	str	r3, [r4, #12]
10006f9c:	bd10      	pop	{r4, pc}
10006f9e:	46c0      	nop			; (mov r8, r8)
10006fa0:	20000f58 	.word	0x20000f58

10006fa4 <usbd_control_xfer_cb>:
10006fa4:	b5f8      	push	{r3, r4, r5, r6, r7, lr}
10006fa6:	4c37      	ldr	r4, [pc, #220]	; (10007084 <usbd_control_xfer_cb+0xe0>)
10006fa8:	001e      	movs	r6, r3
10006faa:	7823      	ldrb	r3, [r4, #0]
10006fac:	0007      	movs	r7, r0
10006fae:	09da      	lsrs	r2, r3, #7
10006fb0:	09c9      	lsrs	r1, r1, #7
10006fb2:	428a      	cmp	r2, r1
10006fb4:	d00b      	beq.n	10006fce <usbd_control_xfer_cb+0x2a>
10006fb6:	2500      	movs	r5, #0
10006fb8:	2e00      	cmp	r6, #0
10006fba:	d106      	bne.n	10006fca <usbd_control_xfer_cb+0x26>
10006fbc:	4b32      	ldr	r3, [pc, #200]	; (10007088 <usbd_control_xfer_cb+0xe4>)
10006fbe:	3501      	adds	r5, #1
10006fc0:	2b00      	cmp	r3, #0
10006fc2:	d002      	beq.n	10006fca <usbd_control_xfer_cb+0x26>
10006fc4:	0021      	movs	r1, r4
10006fc6:	f7fe fe79 	bl	10005cbc <dcd_edpt0_status_complete>
10006fca:	0028      	movs	r0, r5
10006fcc:	bdf8      	pop	{r3, r4, r5, r6, r7, pc}
10006fce:	68a0      	ldr	r0, [r4, #8]
10006fd0:	2b7f      	cmp	r3, #127	; 0x7f
10006fd2:	d807      	bhi.n	10006fe4 <usbd_control_xfer_cb+0x40>
10006fd4:	2500      	movs	r5, #0
10006fd6:	2800      	cmp	r0, #0
10006fd8:	d0f7      	beq.n	10006fca <usbd_control_xfer_cb+0x26>
10006fda:	0032      	movs	r2, r6
10006fdc:	492b      	ldr	r1, [pc, #172]	; (1000708c <usbd_control_xfer_cb+0xe8>)
10006fde:	f7fe fa13 	bl	10005408 <__wrap___aeabi_memcpy>
10006fe2:	68a0      	ldr	r0, [r4, #8]
10006fe4:	89e2      	ldrh	r2, [r4, #14]
10006fe6:	88e3      	ldrh	r3, [r4, #6]
10006fe8:	1992      	adds	r2, r2, r6
10006fea:	b292      	uxth	r2, r2
10006fec:	1980      	adds	r0, r0, r6
10006fee:	81e2      	strh	r2, [r4, #14]
10006ff0:	60a0      	str	r0, [r4, #8]
10006ff2:	4293      	cmp	r3, r2
10006ff4:	d001      	beq.n	10006ffa <usbd_control_xfer_cb+0x56>
10006ff6:	2e3f      	cmp	r6, #63	; 0x3f
10006ff8:	d813      	bhi.n	10007022 <usbd_control_xfer_cb+0x7e>
10006ffa:	6923      	ldr	r3, [r4, #16]
10006ffc:	2b00      	cmp	r3, #0
10006ffe:	d004      	beq.n	1000700a <usbd_control_xfer_cb+0x66>
10007000:	0021      	movs	r1, r4
10007002:	0038      	movs	r0, r7
10007004:	4798      	blx	r3
10007006:	2800      	cmp	r0, #0
10007008:	d01f      	beq.n	1000704a <usbd_control_xfer_cb+0xa6>
1000700a:	2100      	movs	r1, #0
1000700c:	5661      	ldrsb	r1, [r4, r1]
1000700e:	2300      	movs	r3, #0
10007010:	43c9      	mvns	r1, r1
10007012:	0fc9      	lsrs	r1, r1, #31
10007014:	01c9      	lsls	r1, r1, #7
10007016:	2200      	movs	r2, #0
10007018:	0038      	movs	r0, r7
1000701a:	f7fe ff13 	bl	10005e44 <dcd_edpt_xfer>
1000701e:	0005      	movs	r5, r0
10007020:	e7d3      	b.n	10006fca <usbd_control_xfer_cb+0x26>
10007022:	89a5      	ldrh	r5, [r4, #12]
10007024:	1aa9      	subs	r1, r5, r2
10007026:	1c0e      	adds	r6, r1, #0
10007028:	b289      	uxth	r1, r1
1000702a:	2940      	cmp	r1, #64	; 0x40
1000702c:	d817      	bhi.n	1000705e <usbd_control_xfer_cb+0xba>
1000702e:	7823      	ldrb	r3, [r4, #0]
10007030:	b2b6      	uxth	r6, r6
10007032:	2b7f      	cmp	r3, #127	; 0x7f
10007034:	d815      	bhi.n	10007062 <usbd_control_xfer_cb+0xbe>
10007036:	2100      	movs	r1, #0
10007038:	42aa      	cmp	r2, r5
1000703a:	d01d      	beq.n	10007078 <usbd_control_xfer_cb+0xd4>
1000703c:	4a13      	ldr	r2, [pc, #76]	; (1000708c <usbd_control_xfer_cb+0xe8>)
1000703e:	0033      	movs	r3, r6
10007040:	0038      	movs	r0, r7
10007042:	f7fe feff 	bl	10005e44 <dcd_edpt_xfer>
10007046:	0005      	movs	r5, r0
10007048:	e7bf      	b.n	10006fca <usbd_control_xfer_cb+0x26>
1000704a:	2100      	movs	r1, #0
1000704c:	0038      	movs	r0, r7
1000704e:	f7fe ff0f 	bl	10005e70 <dcd_edpt_stall>
10007052:	2180      	movs	r1, #128	; 0x80
10007054:	0038      	movs	r0, r7
10007056:	f7fe ff0b 	bl	10005e70 <dcd_edpt_stall>
1000705a:	2501      	movs	r5, #1
1000705c:	e7b5      	b.n	10006fca <usbd_control_xfer_cb+0x26>
1000705e:	2640      	movs	r6, #64	; 0x40
10007060:	e7e5      	b.n	1000702e <usbd_control_xfer_cb+0x8a>
10007062:	42aa      	cmp	r2, r5
10007064:	d00a      	beq.n	1000707c <usbd_control_xfer_cb+0xd8>
10007066:	4c09      	ldr	r4, [pc, #36]	; (1000708c <usbd_control_xfer_cb+0xe8>)
10007068:	0001      	movs	r1, r0
1000706a:	0032      	movs	r2, r6
1000706c:	0020      	movs	r0, r4
1000706e:	f7fe f9cb 	bl	10005408 <__wrap___aeabi_memcpy>
10007072:	2180      	movs	r1, #128	; 0x80
10007074:	0022      	movs	r2, r4
10007076:	e7e2      	b.n	1000703e <usbd_control_xfer_cb+0x9a>
10007078:	2200      	movs	r2, #0
1000707a:	e7e0      	b.n	1000703e <usbd_control_xfer_cb+0x9a>
1000707c:	2180      	movs	r1, #128	; 0x80
1000707e:	2200      	movs	r2, #0
10007080:	e7dd      	b.n	1000703e <usbd_control_xfer_cb+0x9a>
10007082:	46c0      	nop			; (mov r8, r8)
10007084:	20000f58 	.word	0x20000f58
10007088:	10005cbd 	.word	0x10005cbd
1000708c:	20000f74 	.word	0x20000f74

10007090 <tud_cdc_n_connected>:
10007090:	b510      	push	{r4, lr}
10007092:	0004      	movs	r4, r0
10007094:	f7ff f900 	bl	10006298 <tud_mounted>
10007098:	2800      	cmp	r0, #0
1000709a:	d101      	bne.n	100070a0 <tud_cdc_n_connected+0x10>
1000709c:	2000      	movs	r0, #0
1000709e:	bd10      	pop	{r4, pc}
100070a0:	f7ff f902 	bl	100062a8 <tud_suspended>
100070a4:	2800      	cmp	r0, #0
100070a6:	d1f9      	bne.n	1000709c <tud_cdc_n_connected+0xc>
100070a8:	0060      	lsls	r0, r4, #1
100070aa:	1900      	adds	r0, r0, r4
100070ac:	0103      	lsls	r3, r0, #4
100070ae:	1a18      	subs	r0, r3, r0
100070b0:	4b03      	ldr	r3, [pc, #12]	; (100070c0 <tud_cdc_n_connected+0x30>)
100070b2:	0100      	lsls	r0, r0, #4
100070b4:	1818      	adds	r0, r3, r0
100070b6:	7903      	ldrb	r3, [r0, #4]
100070b8:	2001      	movs	r0, #1
100070ba:	4018      	ands	r0, r3
100070bc:	e7ef      	b.n	1000709e <tud_cdc_n_connected+0xe>
100070be:	46c0      	nop			; (mov r8, r8)
100070c0:	20000c88 	.word	0x20000c88

100070c4 <tud_cdc_n_available>:
100070c4:	0003      	movs	r3, r0
100070c6:	0040      	lsls	r0, r0, #1
100070c8:	18c0      	adds	r0, r0, r3
100070ca:	b510      	push	{r4, lr}
100070cc:	0103      	lsls	r3, r0, #4
100070ce:	1a18      	subs	r0, r3, r0
100070d0:	0100      	lsls	r0, r0, #4
100070d2:	4b03      	ldr	r3, [pc, #12]	; (100070e0 <tud_cdc_n_available+0x1c>)
100070d4:	3010      	adds	r0, #16
100070d6:	18c0      	adds	r0, r0, r3
100070d8:	f000 fb2c 	bl	10007734 <tu_fifo_count>
100070dc:	bd10      	pop	{r4, pc}
100070de:	46c0      	nop			; (mov r8, r8)
100070e0:	20000c88 	.word	0x20000c88

100070e4 <tud_cdc_n_read>:
100070e4:	b5f0      	push	{r4, r5, r6, r7, lr}
100070e6:	0044      	lsls	r4, r0, #1
100070e8:	1820      	adds	r0, r4, r0
100070ea:	0104      	lsls	r4, r0, #4
100070ec:	1a24      	subs	r4, r4, r0
100070ee:	0124      	lsls	r4, r4, #4
100070f0:	0025      	movs	r5, r4
100070f2:	46c6      	mov	lr, r8
100070f4:	4e17      	ldr	r6, [pc, #92]	; (10007154 <tud_cdc_n_read+0x70>)
100070f6:	3510      	adds	r5, #16
100070f8:	19ad      	adds	r5, r5, r6
100070fa:	b500      	push	{lr}
100070fc:	b292      	uxth	r2, r2
100070fe:	0028      	movs	r0, r5
10007100:	f000 fb8c 	bl	1000781c <tu_fifo_read_n>
10007104:	0007      	movs	r7, r0
10007106:	0028      	movs	r0, r5
10007108:	f000 fb22 	bl	10007750 <tu_fifo_remaining>
1000710c:	283f      	cmp	r0, #63	; 0x3f
1000710e:	d803      	bhi.n	10007118 <tud_cdc_n_read+0x34>
10007110:	0038      	movs	r0, r7
10007112:	bc04      	pop	{r2}
10007114:	4690      	mov	r8, r2
10007116:	bdf0      	pop	{r4, r5, r6, r7, pc}
10007118:	1933      	adds	r3, r6, r4
1000711a:	78d9      	ldrb	r1, [r3, #3]
1000711c:	2000      	movs	r0, #0
1000711e:	4698      	mov	r8, r3
10007120:	f7ff fe38 	bl	10006d94 <usbd_edpt_claim>
10007124:	2800      	cmp	r0, #0
10007126:	d0f3      	beq.n	10007110 <tud_cdc_n_read+0x2c>
10007128:	0028      	movs	r0, r5
1000712a:	f000 fb11 	bl	10007750 <tu_fifo_remaining>
1000712e:	283f      	cmp	r0, #63	; 0x3f
10007130:	d805      	bhi.n	1000713e <tud_cdc_n_read+0x5a>
10007132:	4643      	mov	r3, r8
10007134:	2000      	movs	r0, #0
10007136:	78d9      	ldrb	r1, [r3, #3]
10007138:	f7ff fe5a 	bl	10006df0 <usbd_edpt_release>
1000713c:	e7e8      	b.n	10007110 <tud_cdc_n_read+0x2c>
1000713e:	2394      	movs	r3, #148	; 0x94
10007140:	009b      	lsls	r3, r3, #2
10007142:	18e2      	adds	r2, r4, r3
10007144:	4643      	mov	r3, r8
10007146:	1992      	adds	r2, r2, r6
10007148:	78d9      	ldrb	r1, [r3, #3]
1000714a:	2000      	movs	r0, #0
1000714c:	2340      	movs	r3, #64	; 0x40
1000714e:	f7ff fe75 	bl	10006e3c <usbd_edpt_xfer>
10007152:	e7dd      	b.n	10007110 <tud_cdc_n_read+0x2c>
10007154:	20000c88 	.word	0x20000c88

10007158 <tud_cdc_n_write>:
10007158:	b5f0      	push	{r4, r5, r6, r7, lr}
1000715a:	0044      	lsls	r4, r0, #1
1000715c:	1820      	adds	r0, r4, r0
1000715e:	0104      	lsls	r4, r0, #4
10007160:	1a24      	subs	r4, r4, r0
10007162:	0124      	lsls	r4, r4, #4
10007164:	0025      	movs	r5, r4
10007166:	46c6      	mov	lr, r8
10007168:	4e21      	ldr	r6, [pc, #132]	; (100071f0 <tud_cdc_n_write+0x98>)
1000716a:	3528      	adds	r5, #40	; 0x28
1000716c:	19ad      	adds	r5, r5, r6
1000716e:	b500      	push	{lr}
10007170:	b292      	uxth	r2, r2
10007172:	0028      	movs	r0, r5
10007174:	f000 fc12 	bl	1000799c <tu_fifo_write_n>
10007178:	0007      	movs	r7, r0
1000717a:	0028      	movs	r0, r5
1000717c:	f000 fada 	bl	10007734 <tu_fifo_count>
10007180:	283f      	cmp	r0, #63	; 0x3f
10007182:	d803      	bhi.n	1000718c <tud_cdc_n_write+0x34>
10007184:	0038      	movs	r0, r7
10007186:	bc04      	pop	{r2}
10007188:	4690      	mov	r8, r2
1000718a:	bdf0      	pop	{r4, r5, r6, r7, pc}
1000718c:	0028      	movs	r0, r5
1000718e:	f000 fad1 	bl	10007734 <tu_fifo_count>
10007192:	2800      	cmp	r0, #0
10007194:	d0f6      	beq.n	10007184 <tud_cdc_n_write+0x2c>
10007196:	1933      	adds	r3, r6, r4
10007198:	7899      	ldrb	r1, [r3, #2]
1000719a:	2000      	movs	r0, #0
1000719c:	4698      	mov	r8, r3
1000719e:	f7ff fdf9 	bl	10006d94 <usbd_edpt_claim>
100071a2:	2800      	cmp	r0, #0
100071a4:	d0ee      	beq.n	10007184 <tud_cdc_n_write+0x2c>
100071a6:	23a4      	movs	r3, #164	; 0xa4
100071a8:	009b      	lsls	r3, r3, #2
100071aa:	469c      	mov	ip, r3
100071ac:	4464      	add	r4, ip
100071ae:	19a4      	adds	r4, r4, r6
100071b0:	0028      	movs	r0, r5
100071b2:	2240      	movs	r2, #64	; 0x40
100071b4:	0021      	movs	r1, r4
100071b6:	f000 fb31 	bl	1000781c <tu_fifo_read_n>
100071ba:	1e05      	subs	r5, r0, #0
100071bc:	d003      	beq.n	100071c6 <tud_cdc_n_write+0x6e>
100071be:	f7ff f86b 	bl	10006298 <tud_mounted>
100071c2:	2800      	cmp	r0, #0
100071c4:	d105      	bne.n	100071d2 <tud_cdc_n_write+0x7a>
100071c6:	4643      	mov	r3, r8
100071c8:	7899      	ldrb	r1, [r3, #2]
100071ca:	2000      	movs	r0, #0
100071cc:	f7ff fe10 	bl	10006df0 <usbd_edpt_release>
100071d0:	e7d8      	b.n	10007184 <tud_cdc_n_write+0x2c>
100071d2:	f7ff f869 	bl	100062a8 <tud_suspended>
100071d6:	4643      	mov	r3, r8
100071d8:	7899      	ldrb	r1, [r3, #2]
100071da:	2800      	cmp	r0, #0
100071dc:	d1f5      	bne.n	100071ca <tud_cdc_n_write+0x72>
100071de:	791b      	ldrb	r3, [r3, #4]
100071e0:	07db      	lsls	r3, r3, #31
100071e2:	d5f2      	bpl.n	100071ca <tud_cdc_n_write+0x72>
100071e4:	002b      	movs	r3, r5
100071e6:	0022      	movs	r2, r4
100071e8:	2000      	movs	r0, #0
100071ea:	f7ff fe27 	bl	10006e3c <usbd_edpt_xfer>
100071ee:	e7c9      	b.n	10007184 <tud_cdc_n_write+0x2c>
100071f0:	20000c88 	.word	0x20000c88

100071f4 <tud_cdc_n_write_flush>:
100071f4:	b5f8      	push	{r3, r4, r5, r6, r7, lr}
100071f6:	0044      	lsls	r4, r0, #1
100071f8:	1820      	adds	r0, r4, r0
100071fa:	0104      	lsls	r4, r0, #4
100071fc:	1a24      	subs	r4, r4, r0
100071fe:	0124      	lsls	r4, r4, #4
10007200:	0025      	movs	r5, r4
10007202:	4e1b      	ldr	r6, [pc, #108]	; (10007270 <tud_cdc_n_write_flush+0x7c>)
10007204:	3528      	adds	r5, #40	; 0x28
10007206:	19ad      	adds	r5, r5, r6
10007208:	0028      	movs	r0, r5
1000720a:	f000 fa93 	bl	10007734 <tu_fifo_count>
1000720e:	2800      	cmp	r0, #0
10007210:	d101      	bne.n	10007216 <tud_cdc_n_write_flush+0x22>
10007212:	2000      	movs	r0, #0
10007214:	bdf8      	pop	{r3, r4, r5, r6, r7, pc}
10007216:	1937      	adds	r7, r6, r4
10007218:	78b9      	ldrb	r1, [r7, #2]
1000721a:	2000      	movs	r0, #0
1000721c:	f7ff fdba 	bl	10006d94 <usbd_edpt_claim>
10007220:	2800      	cmp	r0, #0
10007222:	d0f6      	beq.n	10007212 <tud_cdc_n_write_flush+0x1e>
10007224:	23a4      	movs	r3, #164	; 0xa4
10007226:	009b      	lsls	r3, r3, #2
10007228:	469c      	mov	ip, r3
1000722a:	4464      	add	r4, ip
1000722c:	19a4      	adds	r4, r4, r6
1000722e:	0028      	movs	r0, r5
10007230:	2240      	movs	r2, #64	; 0x40
10007232:	0021      	movs	r1, r4
10007234:	f000 faf2 	bl	1000781c <tu_fifo_read_n>
10007238:	1e05      	subs	r5, r0, #0
1000723a:	d003      	beq.n	10007244 <tud_cdc_n_write_flush+0x50>
1000723c:	f7ff f82c 	bl	10006298 <tud_mounted>
10007240:	2800      	cmp	r0, #0
10007242:	d104      	bne.n	1000724e <tud_cdc_n_write_flush+0x5a>
10007244:	78b9      	ldrb	r1, [r7, #2]
10007246:	2000      	movs	r0, #0
10007248:	f7ff fdd2 	bl	10006df0 <usbd_edpt_release>
1000724c:	e7e1      	b.n	10007212 <tud_cdc_n_write_flush+0x1e>
1000724e:	f7ff f82b 	bl	100062a8 <tud_suspended>
10007252:	78b9      	ldrb	r1, [r7, #2]
10007254:	2800      	cmp	r0, #0
10007256:	d1f6      	bne.n	10007246 <tud_cdc_n_write_flush+0x52>
10007258:	793b      	ldrb	r3, [r7, #4]
1000725a:	07db      	lsls	r3, r3, #31
1000725c:	d5f3      	bpl.n	10007246 <tud_cdc_n_write_flush+0x52>
1000725e:	002b      	movs	r3, r5
10007260:	0022      	movs	r2, r4
10007262:	2000      	movs	r0, #0
10007264:	f7ff fdea 	bl	10006e3c <usbd_edpt_xfer>
10007268:	2800      	cmp	r0, #0
1000726a:	d0d2      	beq.n	10007212 <tud_cdc_n_write_flush+0x1e>
1000726c:	0028      	movs	r0, r5
1000726e:	e7d1      	b.n	10007214 <tud_cdc_n_write_flush+0x20>
10007270:	20000c88 	.word	0x20000c88

10007274 <tud_cdc_n_write_available>:
10007274:	0003      	movs	r3, r0
10007276:	0040      	lsls	r0, r0, #1
10007278:	18c0      	adds	r0, r0, r3
1000727a:	b510      	push	{r4, lr}
1000727c:	0103      	lsls	r3, r0, #4
1000727e:	1a18      	subs	r0, r3, r0
10007280:	0100      	lsls	r0, r0, #4
10007282:	4b03      	ldr	r3, [pc, #12]	; (10007290 <tud_cdc_n_write_available+0x1c>)
10007284:	3028      	adds	r0, #40	; 0x28
10007286:	18c0      	adds	r0, r0, r3
10007288:	f000 fa62 	bl	10007750 <tu_fifo_remaining>
1000728c:	bd10      	pop	{r4, pc}
1000728e:	46c0      	nop			; (mov r8, r8)
10007290:	20000c88 	.word	0x20000c88

10007294 <cdcd_init>:
10007294:	22b4      	movs	r2, #180	; 0xb4
10007296:	b570      	push	{r4, r5, r6, lr}
10007298:	4c1a      	ldr	r4, [pc, #104]	; (10007304 <cdcd_init+0x70>)
1000729a:	b082      	sub	sp, #8
1000729c:	0092      	lsls	r2, r2, #2
1000729e:	2100      	movs	r1, #0
100072a0:	0020      	movs	r0, r4
100072a2:	f7fe f8ab 	bl	100053fc <__wrap_memset>
100072a6:	23ff      	movs	r3, #255	; 0xff
100072a8:	7163      	strb	r3, [r4, #5]
100072aa:	4b17      	ldr	r3, [pc, #92]	; (10007308 <cdcd_init+0x74>)
100072ac:	2580      	movs	r5, #128	; 0x80
100072ae:	80e3      	strh	r3, [r4, #6]
100072b0:	2301      	movs	r3, #1
100072b2:	2600      	movs	r6, #0
100072b4:	0021      	movs	r1, r4
100072b6:	0020      	movs	r0, r4
100072b8:	8123      	strh	r3, [r4, #8]
100072ba:	006d      	lsls	r5, r5, #1
100072bc:	3307      	adds	r3, #7
100072be:	7323      	strb	r3, [r4, #12]
100072c0:	002a      	movs	r2, r5
100072c2:	3140      	adds	r1, #64	; 0x40
100072c4:	9600      	str	r6, [sp, #0]
100072c6:	3b07      	subs	r3, #7
100072c8:	3010      	adds	r0, #16
100072ca:	f000 f9f5 	bl	100076b8 <tu_fifo_config>
100072ce:	0021      	movs	r1, r4
100072d0:	0020      	movs	r0, r4
100072d2:	3141      	adds	r1, #65	; 0x41
100072d4:	002a      	movs	r2, r5
100072d6:	31ff      	adds	r1, #255	; 0xff
100072d8:	9600      	str	r6, [sp, #0]
100072da:	2301      	movs	r3, #1
100072dc:	3028      	adds	r0, #40	; 0x28
100072de:	f000 f9eb 	bl	100076b8 <tu_fifo_config>
100072e2:	2390      	movs	r3, #144	; 0x90
100072e4:	009b      	lsls	r3, r3, #2
100072e6:	18e5      	adds	r5, r4, r3
100072e8:	0028      	movs	r0, r5
100072ea:	f7fa fb21 	bl	10001930 <mutex_init>
100072ee:	2392      	movs	r3, #146	; 0x92
100072f0:	009b      	lsls	r3, r3, #2
100072f2:	6265      	str	r5, [r4, #36]	; 0x24
100072f4:	18e5      	adds	r5, r4, r3
100072f6:	0028      	movs	r0, r5
100072f8:	f7fa fb1a 	bl	10001930 <mutex_init>
100072fc:	63e5      	str	r5, [r4, #60]	; 0x3c
100072fe:	b002      	add	sp, #8
10007300:	bd70      	pop	{r4, r5, r6, pc}
10007302:	46c0      	nop			; (mov r8, r8)
10007304:	20000c88 	.word	0x20000c88
10007308:	ffffc200 	.word	0xffffc200

1000730c <cdcd_reset>:
1000730c:	b510      	push	{r4, lr}
1000730e:	4c07      	ldr	r4, [pc, #28]	; (1000732c <cdcd_reset+0x20>)
10007310:	2205      	movs	r2, #5
10007312:	2100      	movs	r1, #0
10007314:	0020      	movs	r0, r4
10007316:	f7fe f871 	bl	100053fc <__wrap_memset>
1000731a:	0020      	movs	r0, r4
1000731c:	3010      	adds	r0, #16
1000731e:	f000 fbbb 	bl	10007a98 <tu_fifo_clear>
10007322:	0020      	movs	r0, r4
10007324:	3028      	adds	r0, #40	; 0x28
10007326:	f000 fbb7 	bl	10007a98 <tu_fifo_clear>
1000732a:	bd10      	pop	{r4, pc}
1000732c:	20000c88 	.word	0x20000c88

10007330 <cdcd_open>:
10007330:	b5f0      	push	{r4, r5, r6, r7, lr}
10007332:	794b      	ldrb	r3, [r1, #5]
10007334:	b083      	sub	sp, #12
10007336:	0006      	movs	r6, r0
10007338:	2b02      	cmp	r3, #2
1000733a:	d003      	beq.n	10007344 <cdcd_open+0x14>
1000733c:	2500      	movs	r5, #0
1000733e:	0028      	movs	r0, r5
10007340:	b003      	add	sp, #12
10007342:	bdf0      	pop	{r4, r5, r6, r7, pc}
10007344:	798b      	ldrb	r3, [r1, #6]
10007346:	2b02      	cmp	r3, #2
10007348:	d1f8      	bne.n	1000733c <cdcd_open+0xc>
1000734a:	79cb      	ldrb	r3, [r1, #7]
1000734c:	2b06      	cmp	r3, #6
1000734e:	d8f5      	bhi.n	1000733c <cdcd_open+0xc>
10007350:	4f2f      	ldr	r7, [pc, #188]	; (10007410 <cdcd_open+0xe0>)
10007352:	78bb      	ldrb	r3, [r7, #2]
10007354:	2b00      	cmp	r3, #0
10007356:	d1f1      	bne.n	1000733c <cdcd_open+0xc>
10007358:	788b      	ldrb	r3, [r1, #2]
1000735a:	2509      	movs	r5, #9
1000735c:	703b      	strb	r3, [r7, #0]
1000735e:	780c      	ldrb	r4, [r1, #0]
10007360:	190c      	adds	r4, r1, r4
10007362:	7863      	ldrb	r3, [r4, #1]
10007364:	2b24      	cmp	r3, #36	; 0x24
10007366:	d10b      	bne.n	10007380 <cdcd_open+0x50>
10007368:	2a08      	cmp	r2, #8
1000736a:	d802      	bhi.n	10007372 <cdcd_open+0x42>
1000736c:	e00f      	b.n	1000738e <cdcd_open+0x5e>
1000736e:	42aa      	cmp	r2, r5
10007370:	d30d      	bcc.n	1000738e <cdcd_open+0x5e>
10007372:	7823      	ldrb	r3, [r4, #0]
10007374:	18e4      	adds	r4, r4, r3
10007376:	18ed      	adds	r5, r5, r3
10007378:	7863      	ldrb	r3, [r4, #1]
1000737a:	b2ad      	uxth	r5, r5
1000737c:	2b24      	cmp	r3, #36	; 0x24
1000737e:	d0f6      	beq.n	1000736e <cdcd_open+0x3e>
10007380:	2b05      	cmp	r3, #5
10007382:	d01c      	beq.n	100073be <cdcd_open+0x8e>
10007384:	2b04      	cmp	r3, #4
10007386:	d102      	bne.n	1000738e <cdcd_open+0x5e>
10007388:	7963      	ldrb	r3, [r4, #5]
1000738a:	2b0a      	cmp	r3, #10
1000738c:	d025      	beq.n	100073da <cdcd_open+0xaa>
1000738e:	4c21      	ldr	r4, [pc, #132]	; (10007414 <cdcd_open+0xe4>)
10007390:	0020      	movs	r0, r4
10007392:	f000 f9dd 	bl	10007750 <tu_fifo_remaining>
10007396:	283f      	cmp	r0, #63	; 0x3f
10007398:	d9d1      	bls.n	1000733e <cdcd_open+0xe>
1000739a:	0026      	movs	r6, r4
1000739c:	3e10      	subs	r6, #16
1000739e:	78f1      	ldrb	r1, [r6, #3]
100073a0:	2000      	movs	r0, #0
100073a2:	f7ff fcf7 	bl	10006d94 <usbd_edpt_claim>
100073a6:	2800      	cmp	r0, #0
100073a8:	d0c9      	beq.n	1000733e <cdcd_open+0xe>
100073aa:	0020      	movs	r0, r4
100073ac:	f000 f9d0 	bl	10007750 <tu_fifo_remaining>
100073b0:	283f      	cmp	r0, #63	; 0x3f
100073b2:	d823      	bhi.n	100073fc <cdcd_open+0xcc>
100073b4:	78f1      	ldrb	r1, [r6, #3]
100073b6:	2000      	movs	r0, #0
100073b8:	f7ff fd1a 	bl	10006df0 <usbd_edpt_release>
100073bc:	e7bf      	b.n	1000733e <cdcd_open+0xe>
100073be:	0021      	movs	r1, r4
100073c0:	0030      	movs	r0, r6
100073c2:	f7ff fce3 	bl	10006d8c <usbd_edpt_open>
100073c6:	2800      	cmp	r0, #0
100073c8:	d0b8      	beq.n	1000733c <cdcd_open+0xc>
100073ca:	78a3      	ldrb	r3, [r4, #2]
100073cc:	707b      	strb	r3, [r7, #1]
100073ce:	7823      	ldrb	r3, [r4, #0]
100073d0:	18ed      	adds	r5, r5, r3
100073d2:	18e4      	adds	r4, r4, r3
100073d4:	b2ad      	uxth	r5, r5
100073d6:	7863      	ldrb	r3, [r4, #1]
100073d8:	e7d4      	b.n	10007384 <cdcd_open+0x54>
100073da:	4b0f      	ldr	r3, [pc, #60]	; (10007418 <cdcd_open+0xe8>)
100073dc:	7827      	ldrb	r7, [r4, #0]
100073de:	9301      	str	r3, [sp, #4]
100073e0:	3301      	adds	r3, #1
100073e2:	9300      	str	r3, [sp, #0]
100073e4:	19e1      	adds	r1, r4, r7
100073e6:	2302      	movs	r3, #2
100073e8:	2202      	movs	r2, #2
100073ea:	0030      	movs	r0, r6
100073ec:	f7ff fc96 	bl	10006d1c <usbd_open_edpt_pair>
100073f0:	2800      	cmp	r0, #0
100073f2:	d0a3      	beq.n	1000733c <cdcd_open+0xc>
100073f4:	350e      	adds	r5, #14
100073f6:	19ed      	adds	r5, r5, r7
100073f8:	b2ad      	uxth	r5, r5
100073fa:	e7c8      	b.n	1000738e <cdcd_open+0x5e>
100073fc:	2390      	movs	r3, #144	; 0x90
100073fe:	009b      	lsls	r3, r3, #2
10007400:	18e2      	adds	r2, r4, r3
10007402:	78f1      	ldrb	r1, [r6, #3]
10007404:	2340      	movs	r3, #64	; 0x40
10007406:	2000      	movs	r0, #0
10007408:	f7ff fd18 	bl	10006e3c <usbd_edpt_xfer>
1000740c:	e797      	b.n	1000733e <cdcd_open+0xe>
1000740e:	46c0      	nop			; (mov r8, r8)
10007410:	20000c88 	.word	0x20000c88
10007414:	20000c98 	.word	0x20000c98
10007418:	20000c8a 	.word	0x20000c8a

1000741c <cdcd_control_complete>:
1000741c:	2360      	movs	r3, #96	; 0x60
1000741e:	780a      	ldrb	r2, [r1, #0]
10007420:	b570      	push	{r4, r5, r6, lr}
10007422:	4013      	ands	r3, r2
10007424:	2400      	movs	r4, #0
10007426:	2b20      	cmp	r3, #32
10007428:	d001      	beq.n	1000742e <cdcd_control_complete+0x12>
1000742a:	0020      	movs	r0, r4
1000742c:	bd70      	pop	{r4, r5, r6, pc}
1000742e:	4a0a      	ldr	r2, [pc, #40]	; (10007458 <cdcd_control_complete+0x3c>)
10007430:	794b      	ldrb	r3, [r1, #5]
10007432:	790d      	ldrb	r5, [r1, #4]
10007434:	7810      	ldrb	r0, [r2, #0]
10007436:	021b      	lsls	r3, r3, #8
10007438:	432b      	orrs	r3, r5
1000743a:	4298      	cmp	r0, r3
1000743c:	d1f5      	bne.n	1000742a <cdcd_control_complete+0xe>
1000743e:	784b      	ldrb	r3, [r1, #1]
10007440:	3401      	adds	r4, #1
10007442:	2b20      	cmp	r3, #32
10007444:	d1f1      	bne.n	1000742a <cdcd_control_complete+0xe>
10007446:	4b05      	ldr	r3, [pc, #20]	; (1000745c <cdcd_control_complete+0x40>)
10007448:	2b00      	cmp	r3, #0
1000744a:	d0ee      	beq.n	1000742a <cdcd_control_complete+0xe>
1000744c:	1d91      	adds	r1, r2, #6
1000744e:	2000      	movs	r0, #0
10007450:	e000      	b.n	10007454 <cdcd_control_complete+0x38>
10007452:	bf00      	nop
10007454:	e7e9      	b.n	1000742a <cdcd_control_complete+0xe>
10007456:	46c0      	nop			; (mov r8, r8)
10007458:	20000c88 	.word	0x20000c88
1000745c:	00000000 	.word	0x00000000

10007460 <cdcd_control_request>:
10007460:	2360      	movs	r3, #96	; 0x60
10007462:	780a      	ldrb	r2, [r1, #0]
10007464:	b570      	push	{r4, r5, r6, lr}
10007466:	4013      	ands	r3, r2
10007468:	2400      	movs	r4, #0
1000746a:	2b20      	cmp	r3, #32
1000746c:	d001      	beq.n	10007472 <cdcd_control_request+0x12>
1000746e:	0020      	movs	r0, r4
10007470:	bd70      	pop	{r4, r5, r6, pc}
10007472:	4a15      	ldr	r2, [pc, #84]	; (100074c8 <cdcd_control_request+0x68>)
10007474:	794b      	ldrb	r3, [r1, #5]
10007476:	790e      	ldrb	r6, [r1, #4]
10007478:	7815      	ldrb	r5, [r2, #0]
1000747a:	021b      	lsls	r3, r3, #8
1000747c:	4333      	orrs	r3, r6
1000747e:	429d      	cmp	r5, r3
10007480:	d1f5      	bne.n	1000746e <cdcd_control_request+0xe>
10007482:	784b      	ldrb	r3, [r1, #1]
10007484:	2b20      	cmp	r3, #32
10007486:	d31c      	bcc.n	100074c2 <cdcd_control_request+0x62>
10007488:	2b21      	cmp	r3, #33	; 0x21
1000748a:	d805      	bhi.n	10007498 <cdcd_control_request+0x38>
1000748c:	3206      	adds	r2, #6
1000748e:	2307      	movs	r3, #7
10007490:	f7ff fd10 	bl	10006eb4 <tud_control_xfer>
10007494:	2401      	movs	r4, #1
10007496:	e7ea      	b.n	1000746e <cdcd_control_request+0xe>
10007498:	2b22      	cmp	r3, #34	; 0x22
1000749a:	d112      	bne.n	100074c2 <cdcd_control_request+0x62>
1000749c:	78cd      	ldrb	r5, [r1, #3]
1000749e:	788b      	ldrb	r3, [r1, #2]
100074a0:	022d      	lsls	r5, r5, #8
100074a2:	431d      	orrs	r5, r3
100074a4:	7115      	strb	r5, [r2, #4]
100074a6:	f7ff fced 	bl	10006e84 <tud_control_status>
100074aa:	4b08      	ldr	r3, [pc, #32]	; (100074cc <cdcd_control_request+0x6c>)
100074ac:	2401      	movs	r4, #1
100074ae:	2b00      	cmp	r3, #0
100074b0:	d0dd      	beq.n	1000746e <cdcd_control_request+0xe>
100074b2:	0029      	movs	r1, r5
100074b4:	086a      	lsrs	r2, r5, #1
100074b6:	4022      	ands	r2, r4
100074b8:	4021      	ands	r1, r4
100074ba:	2000      	movs	r0, #0
100074bc:	e000      	b.n	100074c0 <cdcd_control_request+0x60>
100074be:	bf00      	nop
100074c0:	e7d5      	b.n	1000746e <cdcd_control_request+0xe>
100074c2:	2400      	movs	r4, #0
100074c4:	e7d3      	b.n	1000746e <cdcd_control_request+0xe>
100074c6:	46c0      	nop			; (mov r8, r8)
100074c8:	20000c88 	.word	0x20000c88
100074cc:	00000000 	.word	0x00000000

100074d0 <cdcd_xfer_cb>:
100074d0:	b5f0      	push	{r4, r5, r6, r7, lr}
100074d2:	4646      	mov	r6, r8
100074d4:	464f      	mov	r7, r9
100074d6:	46d6      	mov	lr, sl
100074d8:	b5c0      	push	{r6, r7, lr}
100074da:	4698      	mov	r8, r3
100074dc:	4b66      	ldr	r3, [pc, #408]	; (10007678 <cdcd_xfer_cb+0x1a8>)
100074de:	4681      	mov	r9, r0
100074e0:	78da      	ldrb	r2, [r3, #3]
100074e2:	000e      	movs	r6, r1
100074e4:	428a      	cmp	r2, r1
100074e6:	d000      	beq.n	100074ea <cdcd_xfer_cb+0x1a>
100074e8:	e06e      	b.n	100075c8 <cdcd_xfer_cb+0xf8>
100074ea:	4642      	mov	r2, r8
100074ec:	2a00      	cmp	r2, #0
100074ee:	d065      	beq.n	100075bc <cdcd_xfer_cb+0xec>
100074f0:	4a62      	ldr	r2, [pc, #392]	; (1000767c <cdcd_xfer_cb+0x1ac>)
100074f2:	2a00      	cmp	r2, #0
100074f4:	d02e      	beq.n	10007554 <cdcd_xfer_cb+0x84>
100074f6:	2294      	movs	r2, #148	; 0x94
100074f8:	0092      	lsls	r2, r2, #2
100074fa:	189d      	adds	r5, r3, r2
100074fc:	46aa      	mov	sl, r5
100074fe:	001f      	movs	r7, r3
10007500:	001c      	movs	r4, r3
10007502:	44c2      	add	sl, r8
10007504:	3710      	adds	r7, #16
10007506:	0029      	movs	r1, r5
10007508:	0038      	movs	r0, r7
1000750a:	f000 fa03 	bl	10007914 <tu_fifo_write>
1000750e:	7963      	ldrb	r3, [r4, #5]
10007510:	2bff      	cmp	r3, #255	; 0xff
10007512:	d003      	beq.n	1000751c <cdcd_xfer_cb+0x4c>
10007514:	7829      	ldrb	r1, [r5, #0]
10007516:	4299      	cmp	r1, r3
10007518:	d100      	bne.n	1000751c <cdcd_xfer_cb+0x4c>
1000751a:	e075      	b.n	10007608 <cdcd_xfer_cb+0x138>
1000751c:	3501      	adds	r5, #1
1000751e:	45aa      	cmp	sl, r5
10007520:	d1f1      	bne.n	10007506 <cdcd_xfer_cb+0x36>
10007522:	4b57      	ldr	r3, [pc, #348]	; (10007680 <cdcd_xfer_cb+0x1b0>)
10007524:	2b00      	cmp	r3, #0
10007526:	d005      	beq.n	10007534 <cdcd_xfer_cb+0x64>
10007528:	0038      	movs	r0, r7
1000752a:	f000 f903 	bl	10007734 <tu_fifo_count>
1000752e:	2800      	cmp	r0, #0
10007530:	d000      	beq.n	10007534 <cdcd_xfer_cb+0x64>
10007532:	e093      	b.n	1000765c <cdcd_xfer_cb+0x18c>
10007534:	0038      	movs	r0, r7
10007536:	f000 f90b 	bl	10007750 <tu_fifo_remaining>
1000753a:	283f      	cmp	r0, #63	; 0x3f
1000753c:	d868      	bhi.n	10007610 <cdcd_xfer_cb+0x140>
1000753e:	3f10      	subs	r7, #16
10007540:	78bb      	ldrb	r3, [r7, #2]
10007542:	429e      	cmp	r6, r3
10007544:	d015      	beq.n	10007572 <cdcd_xfer_cb+0xa2>
10007546:	2401      	movs	r4, #1
10007548:	0020      	movs	r0, r4
1000754a:	bc1c      	pop	{r2, r3, r4}
1000754c:	4690      	mov	r8, r2
1000754e:	4699      	mov	r9, r3
10007550:	46a2      	mov	sl, r4
10007552:	bdf0      	pop	{r4, r5, r6, r7, pc}
10007554:	2294      	movs	r2, #148	; 0x94
10007556:	0092      	lsls	r2, r2, #2
10007558:	189c      	adds	r4, r3, r2
1000755a:	4642      	mov	r2, r8
1000755c:	3310      	adds	r3, #16
1000755e:	001f      	movs	r7, r3
10007560:	18a5      	adds	r5, r4, r2
10007562:	0021      	movs	r1, r4
10007564:	0038      	movs	r0, r7
10007566:	3401      	adds	r4, #1
10007568:	f000 f9d4 	bl	10007914 <tu_fifo_write>
1000756c:	42ac      	cmp	r4, r5
1000756e:	d1f8      	bne.n	10007562 <cdcd_xfer_cb+0x92>
10007570:	e7d7      	b.n	10007522 <cdcd_xfer_cb+0x52>
10007572:	4b44      	ldr	r3, [pc, #272]	; (10007684 <cdcd_xfer_cb+0x1b4>)
10007574:	2b00      	cmp	r3, #0
10007576:	d002      	beq.n	1000757e <cdcd_xfer_cb+0xae>
10007578:	2000      	movs	r0, #0
1000757a:	e000      	b.n	1000757e <cdcd_xfer_cb+0xae>
1000757c:	bf00      	nop
1000757e:	4c42      	ldr	r4, [pc, #264]	; (10007688 <cdcd_xfer_cb+0x1b8>)
10007580:	0020      	movs	r0, r4
10007582:	f000 f8d7 	bl	10007734 <tu_fifo_count>
10007586:	2800      	cmp	r0, #0
10007588:	d123      	bne.n	100075d2 <cdcd_xfer_cb+0x102>
1000758a:	0020      	movs	r0, r4
1000758c:	f000 f8d2 	bl	10007734 <tu_fifo_count>
10007590:	2800      	cmp	r0, #0
10007592:	d1d8      	bne.n	10007546 <cdcd_xfer_cb+0x76>
10007594:	4643      	mov	r3, r8
10007596:	2b00      	cmp	r3, #0
10007598:	d0d5      	beq.n	10007546 <cdcd_xfer_cb+0x76>
1000759a:	069b      	lsls	r3, r3, #26
1000759c:	d1d3      	bne.n	10007546 <cdcd_xfer_cb+0x76>
1000759e:	3c28      	subs	r4, #40	; 0x28
100075a0:	78a1      	ldrb	r1, [r4, #2]
100075a2:	4648      	mov	r0, r9
100075a4:	f7ff fbf6 	bl	10006d94 <usbd_edpt_claim>
100075a8:	0025      	movs	r5, r4
100075aa:	1e04      	subs	r4, r0, #0
100075ac:	d0cb      	beq.n	10007546 <cdcd_xfer_cb+0x76>
100075ae:	78a9      	ldrb	r1, [r5, #2]
100075b0:	2300      	movs	r3, #0
100075b2:	2200      	movs	r2, #0
100075b4:	4648      	mov	r0, r9
100075b6:	f7ff fc41 	bl	10006e3c <usbd_edpt_xfer>
100075ba:	e7c5      	b.n	10007548 <cdcd_xfer_cb+0x78>
100075bc:	3310      	adds	r3, #16
100075be:	001f      	movs	r7, r3
100075c0:	4b2f      	ldr	r3, [pc, #188]	; (10007680 <cdcd_xfer_cb+0x1b0>)
100075c2:	2b00      	cmp	r3, #0
100075c4:	d1b0      	bne.n	10007528 <cdcd_xfer_cb+0x58>
100075c6:	e7b5      	b.n	10007534 <cdcd_xfer_cb+0x64>
100075c8:	789b      	ldrb	r3, [r3, #2]
100075ca:	428b      	cmp	r3, r1
100075cc:	d0d1      	beq.n	10007572 <cdcd_xfer_cb+0xa2>
100075ce:	2400      	movs	r4, #0
100075d0:	e7ba      	b.n	10007548 <cdcd_xfer_cb+0x78>
100075d2:	0025      	movs	r5, r4
100075d4:	3d28      	subs	r5, #40	; 0x28
100075d6:	78a9      	ldrb	r1, [r5, #2]
100075d8:	2000      	movs	r0, #0
100075da:	f7ff fbdb 	bl	10006d94 <usbd_edpt_claim>
100075de:	2800      	cmp	r0, #0
100075e0:	d0d3      	beq.n	1000758a <cdcd_xfer_cb+0xba>
100075e2:	239a      	movs	r3, #154	; 0x9a
100075e4:	009b      	lsls	r3, r3, #2
100075e6:	18e6      	adds	r6, r4, r3
100075e8:	2240      	movs	r2, #64	; 0x40
100075ea:	0031      	movs	r1, r6
100075ec:	0020      	movs	r0, r4
100075ee:	f000 f915 	bl	1000781c <tu_fifo_read_n>
100075f2:	1e07      	subs	r7, r0, #0
100075f4:	d003      	beq.n	100075fe <cdcd_xfer_cb+0x12e>
100075f6:	f7fe fe4f 	bl	10006298 <tud_mounted>
100075fa:	2800      	cmp	r0, #0
100075fc:	d11d      	bne.n	1000763a <cdcd_xfer_cb+0x16a>
100075fe:	78a9      	ldrb	r1, [r5, #2]
10007600:	2000      	movs	r0, #0
10007602:	f7ff fbf5 	bl	10006df0 <usbd_edpt_release>
10007606:	e7c0      	b.n	1000758a <cdcd_xfer_cb+0xba>
10007608:	2000      	movs	r0, #0
1000760a:	e000      	b.n	1000760e <cdcd_xfer_cb+0x13e>
1000760c:	bf00      	nop
1000760e:	e785      	b.n	1000751c <cdcd_xfer_cb+0x4c>
10007610:	003c      	movs	r4, r7
10007612:	3c10      	subs	r4, #16
10007614:	78e1      	ldrb	r1, [r4, #3]
10007616:	2000      	movs	r0, #0
10007618:	f7ff fbbc 	bl	10006d94 <usbd_edpt_claim>
1000761c:	2800      	cmp	r0, #0
1000761e:	d101      	bne.n	10007624 <cdcd_xfer_cb+0x154>
10007620:	78a3      	ldrb	r3, [r4, #2]
10007622:	e78e      	b.n	10007542 <cdcd_xfer_cb+0x72>
10007624:	0038      	movs	r0, r7
10007626:	f000 f893 	bl	10007750 <tu_fifo_remaining>
1000762a:	283f      	cmp	r0, #63	; 0x3f
1000762c:	d81a      	bhi.n	10007664 <cdcd_xfer_cb+0x194>
1000762e:	78e1      	ldrb	r1, [r4, #3]
10007630:	2000      	movs	r0, #0
10007632:	f7ff fbdd 	bl	10006df0 <usbd_edpt_release>
10007636:	78a3      	ldrb	r3, [r4, #2]
10007638:	e783      	b.n	10007542 <cdcd_xfer_cb+0x72>
1000763a:	f7fe fe35 	bl	100062a8 <tud_suspended>
1000763e:	78a9      	ldrb	r1, [r5, #2]
10007640:	2800      	cmp	r0, #0
10007642:	d1dd      	bne.n	10007600 <cdcd_xfer_cb+0x130>
10007644:	792b      	ldrb	r3, [r5, #4]
10007646:	07db      	lsls	r3, r3, #31
10007648:	d5da      	bpl.n	10007600 <cdcd_xfer_cb+0x130>
1000764a:	003b      	movs	r3, r7
1000764c:	0032      	movs	r2, r6
1000764e:	2000      	movs	r0, #0
10007650:	f7ff fbf4 	bl	10006e3c <usbd_edpt_xfer>
10007654:	2800      	cmp	r0, #0
10007656:	d000      	beq.n	1000765a <cdcd_xfer_cb+0x18a>
10007658:	e775      	b.n	10007546 <cdcd_xfer_cb+0x76>
1000765a:	e796      	b.n	1000758a <cdcd_xfer_cb+0xba>
1000765c:	2000      	movs	r0, #0
1000765e:	e000      	b.n	10007662 <cdcd_xfer_cb+0x192>
10007660:	bf00      	nop
10007662:	e767      	b.n	10007534 <cdcd_xfer_cb+0x64>
10007664:	2390      	movs	r3, #144	; 0x90
10007666:	009b      	lsls	r3, r3, #2
10007668:	18fa      	adds	r2, r7, r3
1000766a:	78e1      	ldrb	r1, [r4, #3]
1000766c:	2340      	movs	r3, #64	; 0x40
1000766e:	2000      	movs	r0, #0
10007670:	f7ff fbe4 	bl	10006e3c <usbd_edpt_xfer>
10007674:	78a3      	ldrb	r3, [r4, #2]
10007676:	e764      	b.n	10007542 <cdcd_xfer_cb+0x72>
10007678:	20000c88 	.word	0x20000c88
	...
10007688:	20000cb0 	.word	0x20000cb0

1000768c <tusb_init>:
1000768c:	b570      	push	{r4, r5, r6, lr}
1000768e:	4d06      	ldr	r5, [pc, #24]	; (100076a8 <tusb_init+0x1c>)
10007690:	782c      	ldrb	r4, [r5, #0]
10007692:	2c00      	cmp	r4, #0
10007694:	d001      	beq.n	1000769a <tusb_init+0xe>
10007696:	0020      	movs	r0, r4
10007698:	bd70      	pop	{r4, r5, r6, pc}
1000769a:	f7fe fe0d 	bl	100062b8 <tud_init>
1000769e:	2800      	cmp	r0, #0
100076a0:	d0f9      	beq.n	10007696 <tusb_init+0xa>
100076a2:	2301      	movs	r3, #1
100076a4:	702b      	strb	r3, [r5, #0]
100076a6:	e7f6      	b.n	10007696 <tusb_init+0xa>
100076a8:	2000171c 	.word	0x2000171c

100076ac <tusb_inited>:
100076ac:	4b01      	ldr	r3, [pc, #4]	; (100076b4 <tusb_inited+0x8>)
100076ae:	7818      	ldrb	r0, [r3, #0]
100076b0:	4770      	bx	lr
100076b2:	46c0      	nop			; (mov r8, r8)
100076b4:	2000171c 	.word	0x2000171c

100076b8 <tu_fifo_config>:
100076b8:	b5f8      	push	{r3, r4, r5, r6, r7, lr}
100076ba:	4647      	mov	r7, r8
100076bc:	46ce      	mov	lr, r9
100076be:	b580      	push	{r7, lr}
100076c0:	4698      	mov	r8, r3
100076c2:	ab08      	add	r3, sp, #32
100076c4:	781f      	ldrb	r7, [r3, #0]
100076c6:	2380      	movs	r3, #128	; 0x80
100076c8:	0005      	movs	r5, r0
100076ca:	4689      	mov	r9, r1
100076cc:	0014      	movs	r4, r2
100076ce:	021b      	lsls	r3, r3, #8
100076d0:	2600      	movs	r6, #0
100076d2:	429a      	cmp	r2, r3
100076d4:	d81a      	bhi.n	1000770c <tu_fifo_config+0x54>
100076d6:	6940      	ldr	r0, [r0, #20]
100076d8:	2800      	cmp	r0, #0
100076da:	d01c      	beq.n	10007716 <tu_fifo_config+0x5e>
100076dc:	2101      	movs	r1, #1
100076de:	4249      	negs	r1, r1
100076e0:	f001 fc3a 	bl	10008f58 <__mutex_enter_timeout_ms_veneer>
100076e4:	464b      	mov	r3, r9
100076e6:	602b      	str	r3, [r5, #0]
100076e8:	4643      	mov	r3, r8
100076ea:	80ac      	strh	r4, [r5, #4]
100076ec:	0064      	lsls	r4, r4, #1
100076ee:	b2a4      	uxth	r4, r4
100076f0:	6968      	ldr	r0, [r5, #20]
100076f2:	80eb      	strh	r3, [r5, #6]
100076f4:	1e63      	subs	r3, r4, #1
100076f6:	4264      	negs	r4, r4
100076f8:	81ee      	strh	r6, [r5, #14]
100076fa:	722f      	strb	r7, [r5, #8]
100076fc:	822e      	strh	r6, [r5, #16]
100076fe:	81ab      	strh	r3, [r5, #12]
10007700:	816c      	strh	r4, [r5, #10]
10007702:	3601      	adds	r6, #1
10007704:	2800      	cmp	r0, #0
10007706:	d001      	beq.n	1000770c <tu_fifo_config+0x54>
10007708:	f001 fc06 	bl	10008f18 <__mutex_exit_veneer>
1000770c:	0030      	movs	r0, r6
1000770e:	bc0c      	pop	{r2, r3}
10007710:	4690      	mov	r8, r2
10007712:	4699      	mov	r9, r3
10007714:	bdf8      	pop	{r3, r4, r5, r6, r7, pc}
10007716:	4643      	mov	r3, r8
10007718:	0054      	lsls	r4, r2, #1
1000771a:	b2a4      	uxth	r4, r4
1000771c:	80eb      	strh	r3, [r5, #6]
1000771e:	1e63      	subs	r3, r4, #1
10007720:	4264      	negs	r4, r4
10007722:	81ee      	strh	r6, [r5, #14]
10007724:	6029      	str	r1, [r5, #0]
10007726:	822e      	strh	r6, [r5, #16]
10007728:	80aa      	strh	r2, [r5, #4]
1000772a:	722f      	strb	r7, [r5, #8]
1000772c:	81ab      	strh	r3, [r5, #12]
1000772e:	816c      	strh	r4, [r5, #10]
10007730:	2601      	movs	r6, #1
10007732:	e7eb      	b.n	1000770c <tu_fifo_config+0x54>

10007734 <tu_fifo_count>:
10007734:	89c1      	ldrh	r1, [r0, #14]
10007736:	8a02      	ldrh	r2, [r0, #16]
10007738:	b289      	uxth	r1, r1
1000773a:	b292      	uxth	r2, r2
1000773c:	1a8b      	subs	r3, r1, r2
1000773e:	b29b      	uxth	r3, r3
10007740:	4291      	cmp	r1, r2
10007742:	d202      	bcs.n	1000774a <tu_fifo_count+0x16>
10007744:	8940      	ldrh	r0, [r0, #10]
10007746:	1a1b      	subs	r3, r3, r0
10007748:	b29b      	uxth	r3, r3
1000774a:	0018      	movs	r0, r3
1000774c:	4770      	bx	lr
1000774e:	46c0      	nop			; (mov r8, r8)

10007750 <tu_fifo_remaining>:
10007750:	b510      	push	{r4, lr}
10007752:	89c4      	ldrh	r4, [r0, #14]
10007754:	8a01      	ldrh	r1, [r0, #16]
10007756:	b2a4      	uxth	r4, r4
10007758:	b289      	uxth	r1, r1
1000775a:	1a63      	subs	r3, r4, r1
1000775c:	8882      	ldrh	r2, [r0, #4]
1000775e:	b29b      	uxth	r3, r3
10007760:	428c      	cmp	r4, r1
10007762:	d202      	bcs.n	1000776a <tu_fifo_remaining+0x1a>
10007764:	8940      	ldrh	r0, [r0, #10]
10007766:	1a1b      	subs	r3, r3, r0
10007768:	b29b      	uxth	r3, r3
1000776a:	1ad0      	subs	r0, r2, r3
1000776c:	b280      	uxth	r0, r0
1000776e:	bd10      	pop	{r4, pc}

10007770 <tu_fifo_read>:
10007770:	b5f8      	push	{r3, r4, r5, r6, r7, lr}
10007772:	0004      	movs	r4, r0
10007774:	6940      	ldr	r0, [r0, #20]
10007776:	000d      	movs	r5, r1
10007778:	2800      	cmp	r0, #0
1000777a:	d003      	beq.n	10007784 <tu_fifo_read+0x14>
1000777c:	2101      	movs	r1, #1
1000777e:	4249      	negs	r1, r1
10007780:	f001 fbea 	bl	10008f58 <__mutex_enter_timeout_ms_veneer>
10007784:	89e0      	ldrh	r0, [r4, #14]
10007786:	8a21      	ldrh	r1, [r4, #16]
10007788:	b280      	uxth	r0, r0
1000778a:	b289      	uxth	r1, r1
1000778c:	1a43      	subs	r3, r0, r1
1000778e:	b29b      	uxth	r3, r3
10007790:	4288      	cmp	r0, r1
10007792:	d202      	bcs.n	1000779a <tu_fifo_read+0x2a>
10007794:	8962      	ldrh	r2, [r4, #10]
10007796:	1a9b      	subs	r3, r3, r2
10007798:	b29b      	uxth	r3, r3
1000779a:	88a2      	ldrh	r2, [r4, #4]
1000779c:	89a6      	ldrh	r6, [r4, #12]
1000779e:	429a      	cmp	r2, r3
100077a0:	d208      	bcs.n	100077b4 <tu_fifo_read+0x44>
100077a2:	1a87      	subs	r7, r0, r2
100077a4:	b2bb      	uxth	r3, r7
100077a6:	42b8      	cmp	r0, r7
100077a8:	da2f      	bge.n	1000780a <tu_fifo_read+0x9a>
100077aa:	8960      	ldrh	r0, [r4, #10]
100077ac:	1a1b      	subs	r3, r3, r0
100077ae:	b29b      	uxth	r3, r3
100077b0:	8223      	strh	r3, [r4, #16]
100077b2:	0013      	movs	r3, r2
100077b4:	2b00      	cmp	r3, #0
100077b6:	d02b      	beq.n	10007810 <tu_fifo_read+0xa0>
100077b8:	42b1      	cmp	r1, r6
100077ba:	d906      	bls.n	100077ca <tu_fifo_read+0x5a>
100077bc:	8963      	ldrh	r3, [r4, #10]
100077be:	18c9      	adds	r1, r1, r3
100077c0:	b289      	uxth	r1, r1
100077c2:	428a      	cmp	r2, r1
100077c4:	d803      	bhi.n	100077ce <tu_fifo_read+0x5e>
100077c6:	1a89      	subs	r1, r1, r2
100077c8:	b289      	uxth	r1, r1
100077ca:	428a      	cmp	r2, r1
100077cc:	d9fb      	bls.n	100077c6 <tu_fifo_read+0x56>
100077ce:	6823      	ldr	r3, [r4, #0]
100077d0:	88e2      	ldrh	r2, [r4, #6]
100077d2:	469c      	mov	ip, r3
100077d4:	4351      	muls	r1, r2
100077d6:	0028      	movs	r0, r5
100077d8:	4461      	add	r1, ip
100077da:	f7fd fe15 	bl	10005408 <__wrap___aeabi_memcpy>
100077de:	2501      	movs	r5, #1
100077e0:	2201      	movs	r2, #1
100077e2:	8a23      	ldrh	r3, [r4, #16]
100077e4:	89a6      	ldrh	r6, [r4, #12]
100077e6:	b29b      	uxth	r3, r3
100077e8:	1c59      	adds	r1, r3, #1
100077ea:	189b      	adds	r3, r3, r2
100077ec:	b29b      	uxth	r3, r3
100077ee:	428e      	cmp	r6, r1
100077f0:	db07      	blt.n	10007802 <tu_fifo_read+0x92>
100077f2:	6960      	ldr	r0, [r4, #20]
100077f4:	8223      	strh	r3, [r4, #16]
100077f6:	2800      	cmp	r0, #0
100077f8:	d001      	beq.n	100077fe <tu_fifo_read+0x8e>
100077fa:	f001 fb8d 	bl	10008f18 <__mutex_exit_veneer>
100077fe:	0028      	movs	r0, r5
10007800:	bdf8      	pop	{r3, r4, r5, r6, r7, pc}
10007802:	8962      	ldrh	r2, [r4, #10]
10007804:	189b      	adds	r3, r3, r2
10007806:	b29b      	uxth	r3, r3
10007808:	e7f3      	b.n	100077f2 <tu_fifo_read+0x82>
1000780a:	42b7      	cmp	r7, r6
1000780c:	ddd0      	ble.n	100077b0 <tu_fifo_read+0x40>
1000780e:	e7cc      	b.n	100077aa <tu_fifo_read+0x3a>
10007810:	8a23      	ldrh	r3, [r4, #16]
10007812:	2500      	movs	r5, #0
10007814:	b29b      	uxth	r3, r3
10007816:	0019      	movs	r1, r3
10007818:	2200      	movs	r2, #0
1000781a:	e7e6      	b.n	100077ea <tu_fifo_read+0x7a>

1000781c <tu_fifo_read_n>:
1000781c:	b5f0      	push	{r4, r5, r6, r7, lr}
1000781e:	46c6      	mov	lr, r8
10007820:	0004      	movs	r4, r0
10007822:	6940      	ldr	r0, [r0, #20]
10007824:	b500      	push	{lr}
10007826:	4688      	mov	r8, r1
10007828:	0016      	movs	r6, r2
1000782a:	2800      	cmp	r0, #0
1000782c:	d003      	beq.n	10007836 <tu_fifo_read_n+0x1a>
1000782e:	2101      	movs	r1, #1
10007830:	4249      	negs	r1, r1
10007832:	f001 fb91 	bl	10008f58 <__mutex_enter_timeout_ms_veneer>
10007836:	89e7      	ldrh	r7, [r4, #14]
10007838:	8a23      	ldrh	r3, [r4, #16]
1000783a:	b2bf      	uxth	r7, r7
1000783c:	b29b      	uxth	r3, r3
1000783e:	1afd      	subs	r5, r7, r3
10007840:	b2ad      	uxth	r5, r5
10007842:	429f      	cmp	r7, r3
10007844:	d202      	bcs.n	1000784c <tu_fifo_read_n+0x30>
10007846:	8962      	ldrh	r2, [r4, #10]
10007848:	1aad      	subs	r5, r5, r2
1000784a:	b2ad      	uxth	r5, r5
1000784c:	88a0      	ldrh	r0, [r4, #4]
1000784e:	89a1      	ldrh	r1, [r4, #12]
10007850:	42a8      	cmp	r0, r5
10007852:	d20a      	bcs.n	1000786a <tu_fifo_read_n+0x4e>
10007854:	1a3b      	subs	r3, r7, r0
10007856:	b29a      	uxth	r2, r3
10007858:	429f      	cmp	r7, r3
1000785a:	da34      	bge.n	100078c6 <tu_fifo_read_n+0xaa>
1000785c:	8963      	ldrh	r3, [r4, #10]
1000785e:	1ad2      	subs	r2, r2, r3
10007860:	b292      	uxth	r2, r2
10007862:	0005      	movs	r5, r0
10007864:	8222      	strh	r2, [r4, #16]
10007866:	8a23      	ldrh	r3, [r4, #16]
10007868:	b29b      	uxth	r3, r3
1000786a:	2d00      	cmp	r5, #0
1000786c:	d02e      	beq.n	100078cc <tu_fifo_read_n+0xb0>
1000786e:	1c32      	adds	r2, r6, #0
10007870:	42ae      	cmp	r6, r5
10007872:	d842      	bhi.n	100078fa <tu_fifo_read_n+0xde>
10007874:	b295      	uxth	r5, r2
10007876:	428b      	cmp	r3, r1
10007878:	d83b      	bhi.n	100078f2 <tu_fifo_read_n+0xd6>
1000787a:	4298      	cmp	r0, r3
1000787c:	d803      	bhi.n	10007886 <tu_fifo_read_n+0x6a>
1000787e:	1a1b      	subs	r3, r3, r0
10007880:	b29b      	uxth	r3, r3
10007882:	4298      	cmp	r0, r3
10007884:	d9fb      	bls.n	1000787e <tu_fifo_read_n+0x62>
10007886:	0019      	movs	r1, r3
10007888:	6826      	ldr	r6, [r4, #0]
1000788a:	88e2      	ldrh	r2, [r4, #6]
1000788c:	46b4      	mov	ip, r6
1000788e:	4351      	muls	r1, r2
10007890:	195e      	adds	r6, r3, r5
10007892:	4461      	add	r1, ip
10007894:	4286      	cmp	r6, r0
10007896:	dd35      	ble.n	10007904 <tu_fifo_read_n+0xe8>
10007898:	1ac3      	subs	r3, r0, r3
1000789a:	b29e      	uxth	r6, r3
1000789c:	4372      	muls	r2, r6
1000789e:	4640      	mov	r0, r8
100078a0:	f7fd fdb2 	bl	10005408 <__wrap___aeabi_memcpy>
100078a4:	88e3      	ldrh	r3, [r4, #6]
100078a6:	1baa      	subs	r2, r5, r6
100078a8:	0018      	movs	r0, r3
100078aa:	4370      	muls	r0, r6
100078ac:	435a      	muls	r2, r3
100078ae:	4440      	add	r0, r8
100078b0:	6821      	ldr	r1, [r4, #0]
100078b2:	f7fd fda9 	bl	10005408 <__wrap___aeabi_memcpy>
100078b6:	8a21      	ldrh	r1, [r4, #16]
100078b8:	b289      	uxth	r1, r1
100078ba:	194b      	adds	r3, r1, r5
100078bc:	001a      	movs	r2, r3
100078be:	4299      	cmp	r1, r3
100078c0:	dd25      	ble.n	1000790e <tu_fifo_read_n+0xf2>
100078c2:	b29b      	uxth	r3, r3
100078c4:	e008      	b.n	100078d8 <tu_fifo_read_n+0xbc>
100078c6:	428b      	cmp	r3, r1
100078c8:	ddcb      	ble.n	10007862 <tu_fifo_read_n+0x46>
100078ca:	e7c7      	b.n	1000785c <tu_fifo_read_n+0x40>
100078cc:	8a22      	ldrh	r2, [r4, #16]
100078ce:	b292      	uxth	r2, r2
100078d0:	0013      	movs	r3, r2
100078d2:	b29b      	uxth	r3, r3
100078d4:	4291      	cmp	r1, r2
100078d6:	da02      	bge.n	100078de <tu_fifo_read_n+0xc2>
100078d8:	8962      	ldrh	r2, [r4, #10]
100078da:	189b      	adds	r3, r3, r2
100078dc:	b29b      	uxth	r3, r3
100078de:	6960      	ldr	r0, [r4, #20]
100078e0:	8223      	strh	r3, [r4, #16]
100078e2:	2800      	cmp	r0, #0
100078e4:	d001      	beq.n	100078ea <tu_fifo_read_n+0xce>
100078e6:	f001 fb17 	bl	10008f18 <__mutex_exit_veneer>
100078ea:	0028      	movs	r0, r5
100078ec:	bc04      	pop	{r2}
100078ee:	4690      	mov	r8, r2
100078f0:	bdf0      	pop	{r4, r5, r6, r7, pc}
100078f2:	8962      	ldrh	r2, [r4, #10]
100078f4:	189b      	adds	r3, r3, r2
100078f6:	b29b      	uxth	r3, r3
100078f8:	e7bf      	b.n	1000787a <tu_fifo_read_n+0x5e>
100078fa:	1c2a      	adds	r2, r5, #0
100078fc:	b295      	uxth	r5, r2
100078fe:	428b      	cmp	r3, r1
10007900:	d9bb      	bls.n	1000787a <tu_fifo_read_n+0x5e>
10007902:	e7f6      	b.n	100078f2 <tu_fifo_read_n+0xd6>
10007904:	436a      	muls	r2, r5
10007906:	4640      	mov	r0, r8
10007908:	f7fd fd7e 	bl	10005408 <__wrap___aeabi_memcpy>
1000790c:	e7d3      	b.n	100078b6 <tu_fifo_read_n+0x9a>
1000790e:	89a1      	ldrh	r1, [r4, #12]
10007910:	e7df      	b.n	100078d2 <tu_fifo_read_n+0xb6>
10007912:	46c0      	nop			; (mov r8, r8)

10007914 <tu_fifo_write>:
10007914:	b5f8      	push	{r3, r4, r5, r6, r7, lr}
10007916:	0004      	movs	r4, r0
10007918:	6940      	ldr	r0, [r0, #20]
1000791a:	000e      	movs	r6, r1
1000791c:	2800      	cmp	r0, #0
1000791e:	d003      	beq.n	10007928 <tu_fifo_write+0x14>
10007920:	2101      	movs	r1, #1
10007922:	4249      	negs	r1, r1
10007924:	f001 fb18 	bl	10008f58 <__mutex_enter_timeout_ms_veneer>
10007928:	89e5      	ldrh	r5, [r4, #14]
1000792a:	8a23      	ldrh	r3, [r4, #16]
1000792c:	b2ad      	uxth	r5, r5
1000792e:	b29b      	uxth	r3, r3
10007930:	1aea      	subs	r2, r5, r3
10007932:	b292      	uxth	r2, r2
10007934:	42ab      	cmp	r3, r5
10007936:	d902      	bls.n	1000793e <tu_fifo_write+0x2a>
10007938:	8963      	ldrh	r3, [r4, #10]
1000793a:	1ad2      	subs	r2, r2, r3
1000793c:	b292      	uxth	r2, r2
1000793e:	88a3      	ldrh	r3, [r4, #4]
10007940:	4293      	cmp	r3, r2
10007942:	d027      	beq.n	10007994 <tu_fifo_write+0x80>
10007944:	89a2      	ldrh	r2, [r4, #12]
10007946:	0028      	movs	r0, r5
10007948:	42aa      	cmp	r2, r5
1000794a:	d206      	bcs.n	1000795a <tu_fifo_write+0x46>
1000794c:	8960      	ldrh	r0, [r4, #10]
1000794e:	1828      	adds	r0, r5, r0
10007950:	b280      	uxth	r0, r0
10007952:	4283      	cmp	r3, r0
10007954:	d803      	bhi.n	1000795e <tu_fifo_write+0x4a>
10007956:	1ac0      	subs	r0, r0, r3
10007958:	b280      	uxth	r0, r0
1000795a:	4283      	cmp	r3, r0
1000795c:	d9fb      	bls.n	10007956 <tu_fifo_write+0x42>
1000795e:	6823      	ldr	r3, [r4, #0]
10007960:	88e2      	ldrh	r2, [r4, #6]
10007962:	469c      	mov	ip, r3
10007964:	4350      	muls	r0, r2
10007966:	0031      	movs	r1, r6
10007968:	4460      	add	r0, ip
1000796a:	f7fd fd4d 	bl	10005408 <__wrap___aeabi_memcpy>
1000796e:	89a3      	ldrh	r3, [r4, #12]
10007970:	42ab      	cmp	r3, r5
10007972:	d90a      	bls.n	1000798a <tu_fifo_write+0x76>
10007974:	3501      	adds	r5, #1
10007976:	b2ad      	uxth	r5, r5
10007978:	6960      	ldr	r0, [r4, #20]
1000797a:	81e5      	strh	r5, [r4, #14]
1000797c:	2701      	movs	r7, #1
1000797e:	2800      	cmp	r0, #0
10007980:	d001      	beq.n	10007986 <tu_fifo_write+0x72>
10007982:	f001 fac9 	bl	10008f18 <__mutex_exit_veneer>
10007986:	0038      	movs	r0, r7
10007988:	bdf8      	pop	{r3, r4, r5, r6, r7, pc}
1000798a:	8963      	ldrh	r3, [r4, #10]
1000798c:	18ed      	adds	r5, r5, r3
1000798e:	3501      	adds	r5, #1
10007990:	b2ad      	uxth	r5, r5
10007992:	e7f1      	b.n	10007978 <tu_fifo_write+0x64>
10007994:	7a27      	ldrb	r7, [r4, #8]
10007996:	2f00      	cmp	r7, #0
10007998:	d1d4      	bne.n	10007944 <tu_fifo_write+0x30>
1000799a:	e7f4      	b.n	10007986 <tu_fifo_write+0x72>

1000799c <tu_fifo_write_n>:
1000799c:	b5f0      	push	{r4, r5, r6, r7, lr}
1000799e:	464f      	mov	r7, r9
100079a0:	4646      	mov	r6, r8
100079a2:	46d6      	mov	lr, sl
100079a4:	0004      	movs	r4, r0
100079a6:	b5c0      	push	{r6, r7, lr}
100079a8:	4688      	mov	r8, r1
100079aa:	0015      	movs	r5, r2
100079ac:	2700      	movs	r7, #0
100079ae:	2a00      	cmp	r2, #0
100079b0:	d053      	beq.n	10007a5a <tu_fifo_write_n+0xbe>
100079b2:	6940      	ldr	r0, [r0, #20]
100079b4:	2800      	cmp	r0, #0
100079b6:	d003      	beq.n	100079c0 <tu_fifo_write_n+0x24>
100079b8:	2101      	movs	r1, #1
100079ba:	4249      	negs	r1, r1
100079bc:	f001 facc 	bl	10008f58 <__mutex_enter_timeout_ms_veneer>
100079c0:	88e3      	ldrh	r3, [r4, #6]
100079c2:	89e6      	ldrh	r6, [r4, #14]
100079c4:	469a      	mov	sl, r3
100079c6:	8a20      	ldrh	r0, [r4, #16]
100079c8:	7a23      	ldrb	r3, [r4, #8]
100079ca:	b2b6      	uxth	r6, r6
100079cc:	b280      	uxth	r0, r0
100079ce:	88a1      	ldrh	r1, [r4, #4]
100079d0:	2b00      	cmp	r3, #0
100079d2:	d148      	bne.n	10007a66 <tu_fifo_write_n+0xca>
100079d4:	1a33      	subs	r3, r6, r0
100079d6:	b29b      	uxth	r3, r3
100079d8:	4286      	cmp	r6, r0
100079da:	d202      	bcs.n	100079e2 <tu_fifo_write_n+0x46>
100079dc:	8960      	ldrh	r0, [r4, #10]
100079de:	1a1b      	subs	r3, r3, r0
100079e0:	b29b      	uxth	r3, r3
100079e2:	1acb      	subs	r3, r1, r3
100079e4:	1c1f      	adds	r7, r3, #0
100079e6:	b29b      	uxth	r3, r3
100079e8:	42ab      	cmp	r3, r5
100079ea:	d84d      	bhi.n	10007a88 <tu_fifo_write_n+0xec>
100079ec:	b2bf      	uxth	r7, r7
100079ee:	003d      	movs	r5, r7
100079f0:	89a0      	ldrh	r0, [r4, #12]
100079f2:	0033      	movs	r3, r6
100079f4:	42b0      	cmp	r0, r6
100079f6:	d205      	bcs.n	10007a04 <tu_fifo_write_n+0x68>
100079f8:	8963      	ldrh	r3, [r4, #10]
100079fa:	18f3      	adds	r3, r6, r3
100079fc:	b29b      	uxth	r3, r3
100079fe:	e001      	b.n	10007a04 <tu_fifo_write_n+0x68>
10007a00:	1a5b      	subs	r3, r3, r1
10007a02:	b29b      	uxth	r3, r3
10007a04:	428b      	cmp	r3, r1
10007a06:	d2fb      	bcs.n	10007a00 <tu_fifo_write_n+0x64>
10007a08:	4650      	mov	r0, sl
10007a0a:	6822      	ldr	r2, [r4, #0]
10007a0c:	4358      	muls	r0, r3
10007a0e:	4694      	mov	ip, r2
10007a10:	195a      	adds	r2, r3, r5
10007a12:	4460      	add	r0, ip
10007a14:	428a      	cmp	r2, r1
10007a16:	dd31      	ble.n	10007a7c <tu_fifo_write_n+0xe0>
10007a18:	1acb      	subs	r3, r1, r3
10007a1a:	b29b      	uxth	r3, r3
10007a1c:	4652      	mov	r2, sl
10007a1e:	4699      	mov	r9, r3
10007a20:	435a      	muls	r2, r3
10007a22:	4641      	mov	r1, r8
10007a24:	f7fd fcf0 	bl	10005408 <__wrap___aeabi_memcpy>
10007a28:	464b      	mov	r3, r9
10007a2a:	88e1      	ldrh	r1, [r4, #6]
10007a2c:	1aea      	subs	r2, r5, r3
10007a2e:	434a      	muls	r2, r1
10007a30:	4359      	muls	r1, r3
10007a32:	6820      	ldr	r0, [r4, #0]
10007a34:	4441      	add	r1, r8
10007a36:	f7fd fce7 	bl	10005408 <__wrap___aeabi_memcpy>
10007a3a:	1975      	adds	r5, r6, r5
10007a3c:	42b5      	cmp	r5, r6
10007a3e:	db02      	blt.n	10007a46 <tu_fifo_write_n+0xaa>
10007a40:	89a3      	ldrh	r3, [r4, #12]
10007a42:	429d      	cmp	r5, r3
10007a44:	dd24      	ble.n	10007a90 <tu_fifo_write_n+0xf4>
10007a46:	8963      	ldrh	r3, [r4, #10]
10007a48:	18f6      	adds	r6, r6, r3
10007a4a:	19be      	adds	r6, r7, r6
10007a4c:	b2b6      	uxth	r6, r6
10007a4e:	6960      	ldr	r0, [r4, #20]
10007a50:	81e6      	strh	r6, [r4, #14]
10007a52:	2800      	cmp	r0, #0
10007a54:	d001      	beq.n	10007a5a <tu_fifo_write_n+0xbe>
10007a56:	f001 fa5f 	bl	10008f18 <__mutex_exit_veneer>
10007a5a:	0038      	movs	r0, r7
10007a5c:	bc1c      	pop	{r2, r3, r4}
10007a5e:	4690      	mov	r8, r2
10007a60:	4699      	mov	r9, r3
10007a62:	46a2      	mov	sl, r4
10007a64:	bdf0      	pop	{r4, r5, r6, r7, pc}
10007a66:	002f      	movs	r7, r5
10007a68:	428d      	cmp	r5, r1
10007a6a:	d9c1      	bls.n	100079f0 <tu_fifo_write_n+0x54>
10007a6c:	4653      	mov	r3, sl
10007a6e:	1a6d      	subs	r5, r5, r1
10007a70:	435d      	muls	r5, r3
10007a72:	81e0      	strh	r0, [r4, #14]
10007a74:	44a8      	add	r8, r5
10007a76:	000f      	movs	r7, r1
10007a78:	000d      	movs	r5, r1
10007a7a:	e7b9      	b.n	100079f0 <tu_fifo_write_n+0x54>
10007a7c:	4652      	mov	r2, sl
10007a7e:	4641      	mov	r1, r8
10007a80:	436a      	muls	r2, r5
10007a82:	f7fd fcc1 	bl	10005408 <__wrap___aeabi_memcpy>
10007a86:	e7d8      	b.n	10007a3a <tu_fifo_write_n+0x9e>
10007a88:	1c2f      	adds	r7, r5, #0
10007a8a:	b2bf      	uxth	r7, r7
10007a8c:	003d      	movs	r5, r7
10007a8e:	e7af      	b.n	100079f0 <tu_fifo_write_n+0x54>
10007a90:	19be      	adds	r6, r7, r6
10007a92:	b2b6      	uxth	r6, r6
10007a94:	e7db      	b.n	10007a4e <tu_fifo_write_n+0xb2>
10007a96:	46c0      	nop			; (mov r8, r8)

10007a98 <tu_fifo_clear>:
10007a98:	b510      	push	{r4, lr}
10007a9a:	0004      	movs	r4, r0
10007a9c:	6940      	ldr	r0, [r0, #20]
10007a9e:	2800      	cmp	r0, #0
10007aa0:	d00d      	beq.n	10007abe <tu_fifo_clear+0x26>
10007aa2:	2101      	movs	r1, #1
10007aa4:	4249      	negs	r1, r1
10007aa6:	f001 fa57 	bl	10008f58 <__mutex_enter_timeout_ms_veneer>
10007aaa:	2300      	movs	r3, #0
10007aac:	6960      	ldr	r0, [r4, #20]
10007aae:	81e3      	strh	r3, [r4, #14]
10007ab0:	8223      	strh	r3, [r4, #16]
10007ab2:	2800      	cmp	r0, #0
10007ab4:	d001      	beq.n	10007aba <tu_fifo_clear+0x22>
10007ab6:	f001 fa2f 	bl	10008f18 <__mutex_exit_veneer>
10007aba:	2001      	movs	r0, #1
10007abc:	bd10      	pop	{r4, pc}
10007abe:	81e0      	strh	r0, [r4, #14]
10007ac0:	8220      	strh	r0, [r4, #16]
10007ac2:	e7fa      	b.n	10007aba <tu_fifo_clear+0x22>

10007ac4 <i2c_init>:
10007ac4:	b5f8      	push	{r3, r4, r5, r6, r7, lr}
10007ac6:	4b24      	ldr	r3, [pc, #144]	; (10007b58 <i2c_init+0x94>)
10007ac8:	0005      	movs	r5, r0
10007aca:	1ac3      	subs	r3, r0, r3
10007acc:	425a      	negs	r2, r3
10007ace:	4153      	adcs	r3, r2
10007ad0:	2207      	movs	r2, #7
10007ad2:	425b      	negs	r3, r3
10007ad4:	4393      	bics	r3, r2
10007ad6:	4a21      	ldr	r2, [pc, #132]	; (10007b5c <i2c_init+0x98>)
10007ad8:	3310      	adds	r3, #16
10007ada:	6013      	str	r3, [r2, #0]
10007adc:	4a20      	ldr	r2, [pc, #128]	; (10007b60 <i2c_init+0x9c>)
10007ade:	000e      	movs	r6, r1
10007ae0:	4920      	ldr	r1, [pc, #128]	; (10007b64 <i2c_init+0xa0>)
10007ae2:	6013      	str	r3, [r2, #0]
10007ae4:	001c      	movs	r4, r3
10007ae6:	688a      	ldr	r2, [r1, #8]
10007ae8:	4394      	bics	r4, r2
10007aea:	d1fb      	bne.n	10007ae4 <i2c_init+0x20>
10007aec:	2265      	movs	r2, #101	; 0x65
10007aee:	2103      	movs	r1, #3
10007af0:	682b      	ldr	r3, [r5, #0]
10007af2:	712c      	strb	r4, [r5, #4]
10007af4:	66dc      	str	r4, [r3, #108]	; 0x6c
10007af6:	601a      	str	r2, [r3, #0]
10007af8:	3223      	adds	r2, #35	; 0x23
10007afa:	63dc      	str	r4, [r3, #60]	; 0x3c
10007afc:	2005      	movs	r0, #5
10007afe:	639c      	str	r4, [r3, #56]	; 0x38
10007b00:	5099      	str	r1, [r3, r2]
10007b02:	f7fa fc37 	bl	10002374 <clock_get_hz>
10007b06:	0007      	movs	r7, r0
10007b08:	0870      	lsrs	r0, r6, #1
10007b0a:	0031      	movs	r1, r6
10007b0c:	19c0      	adds	r0, r0, r7
10007b0e:	f7fc fd55 	bl	100045bc <__wrap___aeabi_uidiv>
10007b12:	0006      	movs	r6, r0
10007b14:	0040      	lsls	r0, r0, #1
10007b16:	2105      	movs	r1, #5
10007b18:	1980      	adds	r0, r0, r6
10007b1a:	f7fc fd4f 	bl	100045bc <__wrap___aeabi_uidiv>
10007b1e:	2204      	movs	r2, #4
10007b20:	682b      	ldr	r3, [r5, #0]
10007b22:	4684      	mov	ip, r0
10007b24:	66dc      	str	r4, [r3, #108]	; 0x6c
10007b26:	6819      	ldr	r1, [r3, #0]
10007b28:	1a30      	subs	r0, r6, r0
10007b2a:	404a      	eors	r2, r1
10007b2c:	2106      	movs	r1, #6
10007b2e:	4011      	ands	r1, r2
10007b30:	2280      	movs	r2, #128	; 0x80
10007b32:	0152      	lsls	r2, r2, #5
10007b34:	431a      	orrs	r2, r3
10007b36:	6011      	str	r1, [r2, #0]
10007b38:	4662      	mov	r2, ip
10007b3a:	61da      	str	r2, [r3, #28]
10007b3c:	6218      	str	r0, [r3, #32]
10007b3e:	2201      	movs	r2, #1
10007b40:	280f      	cmp	r0, #15
10007b42:	d900      	bls.n	10007b46 <i2c_init+0x82>
10007b44:	0902      	lsrs	r2, r0, #4
10007b46:	21a0      	movs	r1, #160	; 0xa0
10007b48:	505a      	str	r2, [r3, r1]
10007b4a:	2201      	movs	r2, #1
10007b4c:	0031      	movs	r1, r6
10007b4e:	0038      	movs	r0, r7
10007b50:	66da      	str	r2, [r3, #108]	; 0x6c
10007b52:	f7fc fd33 	bl	100045bc <__wrap___aeabi_uidiv>
10007b56:	bdf8      	pop	{r3, r4, r5, r6, r7, pc}
10007b58:	2000038c 	.word	0x2000038c
10007b5c:	4000e000 	.word	0x4000e000
10007b60:	4000f000 	.word	0x4000f000
10007b64:	4000c000 	.word	0x4000c000

10007b68 <i2c_write_blocking>:
10007b68:	b5f0      	push	{r4, r5, r6, r7, lr}
10007b6a:	464e      	mov	r6, r9
10007b6c:	46de      	mov	lr, fp
10007b6e:	4657      	mov	r7, sl
10007b70:	4645      	mov	r5, r8
10007b72:	4684      	mov	ip, r0
10007b74:	b5e0      	push	{r5, r6, r7, lr}
10007b76:	b083      	sub	sp, #12
10007b78:	a80c      	add	r0, sp, #48	; 0x30
10007b7a:	9201      	str	r2, [sp, #4]
10007b7c:	7802      	ldrb	r2, [r0, #0]
10007b7e:	2000      	movs	r0, #0
10007b80:	4691      	mov	r9, r2
10007b82:	4662      	mov	r2, ip
10007b84:	6814      	ldr	r4, [r2, #0]
10007b86:	66e0      	str	r0, [r4, #108]	; 0x6c
10007b88:	6061      	str	r1, [r4, #4]
10007b8a:	2101      	movs	r1, #1
10007b8c:	66e1      	str	r1, [r4, #108]	; 0x6c
10007b8e:	2b00      	cmp	r3, #0
10007b90:	d039      	beq.n	10007c06 <i2c_write_blocking+0x9e>
10007b92:	1e5a      	subs	r2, r3, #1
10007b94:	4690      	mov	r8, r2
10007b96:	464a      	mov	r2, r9
10007b98:	4051      	eors	r1, r2
10007b9a:	024a      	lsls	r2, r1, #9
10007b9c:	4692      	mov	sl, r2
10007b9e:	2680      	movs	r6, #128	; 0x80
10007ba0:	2704      	movs	r7, #4
10007ba2:	2100      	movs	r1, #0
10007ba4:	468b      	mov	fp, r1
10007ba6:	2800      	cmp	r0, #0
10007ba8:	d026      	beq.n	10007bf8 <i2c_write_blocking+0x90>
10007baa:	2500      	movs	r5, #0
10007bac:	4580      	cmp	r8, r0
10007bae:	d100      	bne.n	10007bb2 <i2c_write_blocking+0x4a>
10007bb0:	4655      	mov	r5, sl
10007bb2:	9a01      	ldr	r2, [sp, #4]
10007bb4:	5c11      	ldrb	r1, [r2, r0]
10007bb6:	465a      	mov	r2, fp
10007bb8:	4311      	orrs	r1, r2
10007bba:	4329      	orrs	r1, r5
10007bbc:	6121      	str	r1, [r4, #16]
10007bbe:	e002      	b.n	10007bc6 <i2c_write_blocking+0x5e>
10007bc0:	6f21      	ldr	r1, [r4, #112]	; 0x70
10007bc2:	420f      	tst	r7, r1
10007bc4:	d113      	bne.n	10007bee <i2c_write_blocking+0x86>
10007bc6:	59a5      	ldr	r5, [r4, r6]
10007bc8:	6d61      	ldr	r1, [r4, #84]	; 0x54
10007bca:	2900      	cmp	r1, #0
10007bcc:	d0f8      	beq.n	10007bc0 <i2c_write_blocking+0x58>
10007bce:	2d00      	cmp	r5, #0
10007bd0:	d01b      	beq.n	10007c0a <i2c_write_blocking+0xa2>
10007bd2:	07eb      	lsls	r3, r5, #31
10007bd4:	d419      	bmi.n	10007c0a <i2c_write_blocking+0xa2>
10007bd6:	072b      	lsls	r3, r5, #28
10007bd8:	d517      	bpl.n	10007c0a <i2c_write_blocking+0xa2>
10007bda:	4663      	mov	r3, ip
10007bdc:	464a      	mov	r2, r9
10007bde:	711a      	strb	r2, [r3, #4]
10007be0:	b003      	add	sp, #12
10007be2:	bc3c      	pop	{r2, r3, r4, r5}
10007be4:	4690      	mov	r8, r2
10007be6:	4699      	mov	r9, r3
10007be8:	46a2      	mov	sl, r4
10007bea:	46ab      	mov	fp, r5
10007bec:	bdf0      	pop	{r4, r5, r6, r7, pc}
10007bee:	3001      	adds	r0, #1
10007bf0:	4283      	cmp	r3, r0
10007bf2:	d1d6      	bne.n	10007ba2 <i2c_write_blocking+0x3a>
10007bf4:	0018      	movs	r0, r3
10007bf6:	e7f0      	b.n	10007bda <i2c_write_blocking+0x72>
10007bf8:	4662      	mov	r2, ip
10007bfa:	7911      	ldrb	r1, [r2, #4]
10007bfc:	1e4d      	subs	r5, r1, #1
10007bfe:	41a9      	sbcs	r1, r5
10007c00:	028a      	lsls	r2, r1, #10
10007c02:	4693      	mov	fp, r2
10007c04:	e7d1      	b.n	10007baa <i2c_write_blocking+0x42>
10007c06:	2000      	movs	r0, #0
10007c08:	e7e7      	b.n	10007bda <i2c_write_blocking+0x72>
10007c0a:	2002      	movs	r0, #2
10007c0c:	4240      	negs	r0, r0
10007c0e:	e7e4      	b.n	10007bda <i2c_write_blocking+0x72>

10007c10 <i2c_read_blocking>:
10007c10:	b5f0      	push	{r4, r5, r6, r7, lr}
10007c12:	46d6      	mov	lr, sl
10007c14:	464f      	mov	r7, r9
10007c16:	4646      	mov	r6, r8
10007c18:	b5c0      	push	{r6, r7, lr}
10007c1a:	0007      	movs	r7, r0
10007c1c:	a808      	add	r0, sp, #32
10007c1e:	4692      	mov	sl, r2
10007c20:	7802      	ldrb	r2, [r0, #0]
10007c22:	2000      	movs	r0, #0
10007c24:	683c      	ldr	r4, [r7, #0]
10007c26:	4690      	mov	r8, r2
10007c28:	66e0      	str	r0, [r4, #108]	; 0x6c
10007c2a:	6061      	str	r1, [r4, #4]
10007c2c:	2101      	movs	r1, #1
10007c2e:	66e1      	str	r1, [r4, #108]	; 0x6c
10007c30:	2b00      	cmp	r3, #0
10007c32:	d036      	beq.n	10007ca2 <i2c_read_blocking+0x92>
10007c34:	4051      	eors	r1, r2
10007c36:	024a      	lsls	r2, r1, #9
10007c38:	4694      	mov	ip, r2
10007c3a:	2600      	movs	r6, #0
10007c3c:	2580      	movs	r5, #128	; 0x80
10007c3e:	1e58      	subs	r0, r3, #1
10007c40:	6f61      	ldr	r1, [r4, #116]	; 0x74
10007c42:	2920      	cmp	r1, #32
10007c44:	d0fc      	beq.n	10007c40 <i2c_read_blocking+0x30>
10007c46:	2e00      	cmp	r6, #0
10007c48:	d024      	beq.n	10007c94 <i2c_read_blocking+0x84>
10007c4a:	2180      	movs	r1, #128	; 0x80
10007c4c:	0049      	lsls	r1, r1, #1
10007c4e:	4689      	mov	r9, r1
10007c50:	42b0      	cmp	r0, r6
10007c52:	d011      	beq.n	10007c78 <i2c_read_blocking+0x68>
10007c54:	6121      	str	r1, [r4, #16]
10007c56:	e002      	b.n	10007c5e <i2c_read_blocking+0x4e>
10007c58:	6fa1      	ldr	r1, [r4, #120]	; 0x78
10007c5a:	2900      	cmp	r1, #0
10007c5c:	d110      	bne.n	10007c80 <i2c_read_blocking+0x70>
10007c5e:	5961      	ldr	r1, [r4, r5]
10007c60:	6d61      	ldr	r1, [r4, #84]	; 0x54
10007c62:	2900      	cmp	r1, #0
10007c64:	d0f8      	beq.n	10007c58 <i2c_read_blocking+0x48>
10007c66:	2002      	movs	r0, #2
10007c68:	4240      	negs	r0, r0
10007c6a:	4643      	mov	r3, r8
10007c6c:	713b      	strb	r3, [r7, #4]
10007c6e:	bc1c      	pop	{r2, r3, r4}
10007c70:	4690      	mov	r8, r2
10007c72:	4699      	mov	r9, r3
10007c74:	46a2      	mov	sl, r4
10007c76:	bdf0      	pop	{r4, r5, r6, r7, pc}
10007c78:	4649      	mov	r1, r9
10007c7a:	4662      	mov	r2, ip
10007c7c:	4311      	orrs	r1, r2
10007c7e:	e7e9      	b.n	10007c54 <i2c_read_blocking+0x44>
10007c80:	4652      	mov	r2, sl
10007c82:	6921      	ldr	r1, [r4, #16]
10007c84:	5591      	strb	r1, [r2, r6]
10007c86:	3601      	adds	r6, #1
10007c88:	42b3      	cmp	r3, r6
10007c8a:	d001      	beq.n	10007c90 <i2c_read_blocking+0x80>
10007c8c:	683c      	ldr	r4, [r7, #0]
10007c8e:	e7d7      	b.n	10007c40 <i2c_read_blocking+0x30>
10007c90:	0018      	movs	r0, r3
10007c92:	e7ea      	b.n	10007c6a <i2c_read_blocking+0x5a>
10007c94:	7939      	ldrb	r1, [r7, #4]
10007c96:	2900      	cmp	r1, #0
10007c98:	d0d7      	beq.n	10007c4a <i2c_read_blocking+0x3a>
10007c9a:	21a0      	movs	r1, #160	; 0xa0
10007c9c:	00c9      	lsls	r1, r1, #3
10007c9e:	4689      	mov	r9, r1
10007ca0:	e7d6      	b.n	10007c50 <i2c_read_blocking+0x40>
10007ca2:	2000      	movs	r0, #0
10007ca4:	e7e1      	b.n	10007c6a <i2c_read_blocking+0x5a>
10007ca6:	46c0      	nop			; (mov r8, r8)

10007ca8 <spi_init>:
10007ca8:	b5f8      	push	{r3, r4, r5, r6, r7, lr}
10007caa:	4647      	mov	r7, r8
10007cac:	4680      	mov	r8, r0
10007cae:	4b31      	ldr	r3, [pc, #196]	; (10007d74 <spi_init+0xcc>)
10007cb0:	46ce      	mov	lr, r9
10007cb2:	4443      	add	r3, r8
10007cb4:	1e5a      	subs	r2, r3, #1
10007cb6:	4193      	sbcs	r3, r2
10007cb8:	2280      	movs	r2, #128	; 0x80
10007cba:	0252      	lsls	r2, r2, #9
10007cbc:	4694      	mov	ip, r2
10007cbe:	425b      	negs	r3, r3
10007cc0:	4013      	ands	r3, r2
10007cc2:	4a2d      	ldr	r2, [pc, #180]	; (10007d78 <spi_init+0xd0>)
10007cc4:	4463      	add	r3, ip
10007cc6:	b580      	push	{r7, lr}
10007cc8:	6013      	str	r3, [r2, #0]
10007cca:	4a2c      	ldr	r2, [pc, #176]	; (10007d7c <spi_init+0xd4>)
10007ccc:	000d      	movs	r5, r1
10007cce:	492c      	ldr	r1, [pc, #176]	; (10007d80 <spi_init+0xd8>)
10007cd0:	6013      	str	r3, [r2, #0]
10007cd2:	0018      	movs	r0, r3
10007cd4:	688a      	ldr	r2, [r1, #8]
10007cd6:	4390      	bics	r0, r2
10007cd8:	d1fb      	bne.n	10007cd2 <spi_init+0x2a>
10007cda:	2006      	movs	r0, #6
10007cdc:	f7fa fb4a 	bl	10002374 <clock_get_hz>
10007ce0:	2680      	movs	r6, #128	; 0x80
10007ce2:	4681      	mov	r9, r0
10007ce4:	0de9      	lsrs	r1, r5, #23
10007ce6:	0268      	lsls	r0, r5, #9
10007ce8:	0dab      	lsrs	r3, r5, #22
10007cea:	02aa      	lsls	r2, r5, #10
10007cec:	2402      	movs	r4, #2
10007cee:	0076      	lsls	r6, r6, #1
10007cf0:	e006      	b.n	10007d00 <spi_init+0x58>
10007cf2:	4591      	cmp	r9, r2
10007cf4:	d307      	bcc.n	10007d06 <spi_init+0x5e>
10007cf6:	1812      	adds	r2, r2, r0
10007cf8:	414b      	adcs	r3, r1
10007cfa:	003c      	movs	r4, r7
10007cfc:	42b7      	cmp	r7, r6
10007cfe:	d002      	beq.n	10007d06 <spi_init+0x5e>
10007d00:	1ca7      	adds	r7, r4, #2
10007d02:	2b00      	cmp	r3, #0
10007d04:	d0f5      	beq.n	10007cf2 <spi_init+0x4a>
10007d06:	2780      	movs	r7, #128	; 0x80
10007d08:	0226      	lsls	r6, r4, #8
10007d0a:	1b36      	subs	r6, r6, r4
10007d0c:	007f      	lsls	r7, r7, #1
10007d0e:	e002      	b.n	10007d16 <spi_init+0x6e>
10007d10:	1b36      	subs	r6, r6, r4
10007d12:	2f01      	cmp	r7, #1
10007d14:	d02c      	beq.n	10007d70 <spi_init+0xc8>
10007d16:	0031      	movs	r1, r6
10007d18:	4648      	mov	r0, r9
10007d1a:	3f01      	subs	r7, #1
10007d1c:	f7fc fc4e 	bl	100045bc <__wrap___aeabi_uidiv>
10007d20:	4285      	cmp	r5, r0
10007d22:	d2f5      	bcs.n	10007d10 <spi_init+0x68>
10007d24:	023b      	lsls	r3, r7, #8
10007d26:	4642      	mov	r2, r8
10007d28:	6114      	str	r4, [r2, #16]
10007d2a:	6812      	ldr	r2, [r2, #0]
10007d2c:	4641      	mov	r1, r8
10007d2e:	4053      	eors	r3, r2
10007d30:	22ff      	movs	r2, #255	; 0xff
10007d32:	0212      	lsls	r2, r2, #8
10007d34:	4013      	ands	r3, r2
10007d36:	2280      	movs	r2, #128	; 0x80
10007d38:	0152      	lsls	r2, r2, #5
10007d3a:	430a      	orrs	r2, r1
10007d3c:	6013      	str	r3, [r2, #0]
10007d3e:	2507      	movs	r5, #7
10007d40:	680b      	ldr	r3, [r1, #0]
10007d42:	21cf      	movs	r1, #207	; 0xcf
10007d44:	406b      	eors	r3, r5
10007d46:	400b      	ands	r3, r1
10007d48:	6013      	str	r3, [r2, #0]
10007d4a:	4644      	mov	r4, r8
10007d4c:	2380      	movs	r3, #128	; 0x80
10007d4e:	2003      	movs	r0, #3
10007d50:	4647      	mov	r7, r8
10007d52:	019b      	lsls	r3, r3, #6
10007d54:	3424      	adds	r4, #36	; 0x24
10007d56:	431c      	orrs	r4, r3
10007d58:	6020      	str	r0, [r4, #0]
10007d5a:	cf01      	ldmia	r7!, {r0}
10007d5c:	431f      	orrs	r7, r3
10007d5e:	2302      	movs	r3, #2
10007d60:	4068      	eors	r0, r5
10007d62:	4001      	ands	r1, r0
10007d64:	6011      	str	r1, [r2, #0]
10007d66:	603b      	str	r3, [r7, #0]
10007d68:	bc0c      	pop	{r2, r3}
10007d6a:	4690      	mov	r8, r2
10007d6c:	4699      	mov	r9, r3
10007d6e:	bdf8      	pop	{r3, r4, r5, r6, r7, pc}
10007d70:	2300      	movs	r3, #0
10007d72:	e7d8      	b.n	10007d26 <spi_init+0x7e>
10007d74:	bffc4000 	.word	0xbffc4000
10007d78:	4000e000 	.word	0x4000e000
10007d7c:	4000f000 	.word	0x4000f000
10007d80:	4000c000 	.word	0x4000c000

10007d84 <picoSystemInit>:
10007d84:	b510      	push	{r4, lr}
10007d86:	4917      	ldr	r1, [pc, #92]	; (10007de4 <picoSystemInit+0x60>)
10007d88:	4817      	ldr	r0, [pc, #92]	; (10007de8 <picoSystemInit+0x64>)
10007d8a:	f7ff fe9b 	bl	10007ac4 <i2c_init>
10007d8e:	2103      	movs	r1, #3
10007d90:	2008      	movs	r0, #8
10007d92:	f7f8 ff11 	bl	10000bb8 <gpio_set_function>
10007d96:	2103      	movs	r1, #3
10007d98:	2009      	movs	r0, #9
10007d9a:	f7f8 ff0d 	bl	10000bb8 <gpio_set_function>
10007d9e:	2200      	movs	r2, #0
10007da0:	2101      	movs	r1, #1
10007da2:	2008      	movs	r0, #8
10007da4:	f7f8 ff20 	bl	10000be8 <gpio_set_pulls>
10007da8:	2200      	movs	r2, #0
10007daa:	2101      	movs	r1, #1
10007dac:	2009      	movs	r0, #9
10007dae:	f7f8 ff1b 	bl	10000be8 <gpio_set_pulls>
10007db2:	490e      	ldr	r1, [pc, #56]	; (10007dec <picoSystemInit+0x68>)
10007db4:	480e      	ldr	r0, [pc, #56]	; (10007df0 <picoSystemInit+0x6c>)
10007db6:	f7ff ff77 	bl	10007ca8 <spi_init>
10007dba:	2101      	movs	r1, #1
10007dbc:	2004      	movs	r0, #4
10007dbe:	f7f8 fefb 	bl	10000bb8 <gpio_set_function>
10007dc2:	2101      	movs	r1, #1
10007dc4:	2002      	movs	r0, #2
10007dc6:	f7f8 fef7 	bl	10000bb8 <gpio_set_function>
10007dca:	2101      	movs	r1, #1
10007dcc:	2003      	movs	r0, #3
10007dce:	f7f8 fef3 	bl	10000bb8 <gpio_set_function>
10007dd2:	2005      	movs	r0, #5
10007dd4:	f7f8 ff22 	bl	10000c1c <gpio_init>
10007dd8:	23d0      	movs	r3, #208	; 0xd0
10007dda:	2220      	movs	r2, #32
10007ddc:	061b      	lsls	r3, r3, #24
10007dde:	625a      	str	r2, [r3, #36]	; 0x24
10007de0:	615a      	str	r2, [r3, #20]
10007de2:	bd10      	pop	{r4, pc}
10007de4:	000186a0 	.word	0x000186a0
10007de8:	2000038c 	.word	0x2000038c
10007dec:	007a1200 	.word	0x007a1200
10007df0:	4003c000 	.word	0x4003c000

10007df4 <ov2640Probe>:
10007df4:	b5f0      	push	{r4, r5, r6, r7, lr}
10007df6:	46c6      	mov	lr, r8
10007df8:	220f      	movs	r2, #15
10007dfa:	230a      	movs	r3, #10
10007dfc:	2700      	movs	r7, #0
10007dfe:	b500      	push	{lr}
10007e00:	b084      	sub	sp, #16
10007e02:	4d1d      	ldr	r5, [pc, #116]	; (10007e78 <ov2640Probe+0x84>)
10007e04:	4c1d      	ldr	r4, [pc, #116]	; (10007e7c <ov2640Probe+0x88>)
10007e06:	446a      	add	r2, sp
10007e08:	7013      	strb	r3, [r2, #0]
10007e0a:	3b09      	subs	r3, #9
10007e0c:	7829      	ldrb	r1, [r5, #0]
10007e0e:	ae03      	add	r6, sp, #12
10007e10:	9300      	str	r3, [sp, #0]
10007e12:	0020      	movs	r0, r4
10007e14:	4698      	mov	r8, r3
10007e16:	f7ff fea7 	bl	10007b68 <i2c_write_blocking>
10007e1a:	7829      	ldrb	r1, [r5, #0]
10007e1c:	2301      	movs	r3, #1
10007e1e:	0032      	movs	r2, r6
10007e20:	9700      	str	r7, [sp, #0]
10007e22:	0020      	movs	r0, r4
10007e24:	f7ff fef4 	bl	10007c10 <i2c_read_blocking>
10007e28:	220e      	movs	r2, #14
10007e2a:	230b      	movs	r3, #11
10007e2c:	446a      	add	r2, sp
10007e2e:	7013      	strb	r3, [r2, #0]
10007e30:	4643      	mov	r3, r8
10007e32:	7829      	ldrb	r1, [r5, #0]
10007e34:	0020      	movs	r0, r4
10007e36:	9300      	str	r3, [sp, #0]
10007e38:	f7ff fe96 	bl	10007b68 <i2c_write_blocking>
10007e3c:	220d      	movs	r2, #13
10007e3e:	7829      	ldrb	r1, [r5, #0]
10007e40:	2301      	movs	r3, #1
10007e42:	9700      	str	r7, [sp, #0]
10007e44:	446a      	add	r2, sp
10007e46:	0020      	movs	r0, r4
10007e48:	f7ff fee2 	bl	10007c10 <i2c_read_blocking>
10007e4c:	7833      	ldrb	r3, [r6, #0]
10007e4e:	2b26      	cmp	r3, #38	; 0x26
10007e50:	d105      	bne.n	10007e5e <ov2640Probe+0x6a>
10007e52:	466b      	mov	r3, sp
10007e54:	2202      	movs	r2, #2
10007e56:	7b5b      	ldrb	r3, [r3, #13]
10007e58:	4393      	bics	r3, r2
10007e5a:	2b40      	cmp	r3, #64	; 0x40
10007e5c:	d007      	beq.n	10007e6e <ov2640Probe+0x7a>
10007e5e:	4808      	ldr	r0, [pc, #32]	; (10007e80 <ov2640Probe+0x8c>)
10007e60:	f7fd fbac 	bl	100055bc <__wrap_puts>
10007e64:	2001      	movs	r0, #1
10007e66:	b004      	add	sp, #16
10007e68:	bc04      	pop	{r2}
10007e6a:	4690      	mov	r8, r2
10007e6c:	bdf0      	pop	{r4, r5, r6, r7, pc}
10007e6e:	4805      	ldr	r0, [pc, #20]	; (10007e84 <ov2640Probe+0x90>)
10007e70:	f7fd fba4 	bl	100055bc <__wrap_puts>
10007e74:	2000      	movs	r0, #0
10007e76:	e7f6      	b.n	10007e66 <ov2640Probe+0x72>
10007e78:	20000394 	.word	0x20000394
10007e7c:	2000038c 	.word	0x2000038c
10007e80:	1000b4b8 	.word	0x1000b4b8
10007e84:	1000b4a4 	.word	0x1000b4a4

10007e88 <spiBusDetect>:
10007e88:	b570      	push	{r4, r5, r6, lr}
10007e8a:	23ab      	movs	r3, #171	; 0xab
10007e8c:	25d0      	movs	r5, #208	; 0xd0
10007e8e:	2620      	movs	r6, #32
10007e90:	b082      	sub	sp, #8
10007e92:	ac01      	add	r4, sp, #4
10007e94:	062d      	lsls	r5, r5, #24
10007e96:	01db      	lsls	r3, r3, #7
10007e98:	8023      	strh	r3, [r4, #0]
10007e9a:	0021      	movs	r1, r4
10007e9c:	2202      	movs	r2, #2
10007e9e:	61ae      	str	r6, [r5, #24]
10007ea0:	4811      	ldr	r0, [pc, #68]	; (10007ee8 <spiBusDetect+0x60>)
10007ea2:	f001 f861 	bl	10008f68 <__spi_write_blocking_veneer>
10007ea6:	466b      	mov	r3, sp
10007ea8:	1cd9      	adds	r1, r3, #3
10007eaa:	2300      	movs	r3, #0
10007eac:	616e      	str	r6, [r5, #20]
10007eae:	2201      	movs	r2, #1
10007eb0:	700b      	strb	r3, [r1, #0]
10007eb2:	7023      	strb	r3, [r4, #0]
10007eb4:	480c      	ldr	r0, [pc, #48]	; (10007ee8 <spiBusDetect+0x60>)
10007eb6:	61ae      	str	r6, [r5, #24]
10007eb8:	f001 f856 	bl	10008f68 <__spi_write_blocking_veneer>
10007ebc:	2301      	movs	r3, #1
10007ebe:	0022      	movs	r2, r4
10007ec0:	2100      	movs	r1, #0
10007ec2:	4809      	ldr	r0, [pc, #36]	; (10007ee8 <spiBusDetect+0x60>)
10007ec4:	f001 f820 	bl	10008f08 <__spi_read_blocking_veneer>
10007ec8:	616e      	str	r6, [r5, #20]
10007eca:	7823      	ldrb	r3, [r4, #0]
10007ecc:	2b55      	cmp	r3, #85	; 0x55
10007ece:	d005      	beq.n	10007edc <spiBusDetect+0x54>
10007ed0:	4806      	ldr	r0, [pc, #24]	; (10007eec <spiBusDetect+0x64>)
10007ed2:	f7fd fb73 	bl	100055bc <__wrap_puts>
10007ed6:	2001      	movs	r0, #1
10007ed8:	b002      	add	sp, #8
10007eda:	bd70      	pop	{r4, r5, r6, pc}
10007edc:	4804      	ldr	r0, [pc, #16]	; (10007ef0 <spiBusDetect+0x68>)
10007ede:	f7fd fc8b 	bl	100057f8 <__wrap_printf>
10007ee2:	2000      	movs	r0, #0
10007ee4:	e7f8      	b.n	10007ed8 <spiBusDetect+0x50>
10007ee6:	46c0      	nop			; (mov r8, r8)
10007ee8:	4003c000 	.word	0x4003c000
10007eec:	1000b4e4 	.word	0x1000b4e4
10007ef0:	1000b4d4 	.word	0x1000b4d4

10007ef4 <ov2640Init>:
10007ef4:	b5f0      	push	{r4, r5, r6, r7, lr}
10007ef6:	464f      	mov	r7, r9
10007ef8:	46d6      	mov	lr, sl
10007efa:	4646      	mov	r6, r8
10007efc:	b5c0      	push	{r6, r7, lr}
10007efe:	b084      	sub	sp, #16
10007f00:	0007      	movs	r7, r0
10007f02:	ac03      	add	r4, sp, #12
10007f04:	2801      	cmp	r0, #1
10007f06:	d100      	bne.n	10007f0a <ov2640Init+0x16>
10007f08:	e0f5      	b.n	100080f6 <ov2640Init+0x202>
10007f0a:	2800      	cmp	r0, #0
10007f0c:	d054      	beq.n	10007fb8 <ov2640Init+0xc4>
10007f0e:	2802      	cmp	r0, #2
10007f10:	d135      	bne.n	10007f7e <ov2640Init+0x8a>
10007f12:	2701      	movs	r7, #1
10007f14:	4b93      	ldr	r3, [pc, #588]	; (10008164 <ov2640Init+0x270>)
10007f16:	4e94      	ldr	r6, [pc, #592]	; (10008168 <ov2640Init+0x274>)
10007f18:	4d94      	ldr	r5, [pc, #592]	; (1000816c <ov2640Init+0x278>)
10007f1a:	8023      	strh	r3, [r4, #0]
10007f1c:	3bfe      	subs	r3, #254	; 0xfe
10007f1e:	7831      	ldrb	r1, [r6, #0]
10007f20:	3bff      	subs	r3, #255	; 0xff
10007f22:	9700      	str	r7, [sp, #0]
10007f24:	0022      	movs	r2, r4
10007f26:	0028      	movs	r0, r5
10007f28:	f7ff fe1e 	bl	10007b68 <i2c_write_blocking>
10007f2c:	4b90      	ldr	r3, [pc, #576]	; (10008170 <ov2640Init+0x27c>)
10007f2e:	7831      	ldrb	r1, [r6, #0]
10007f30:	8023      	strh	r3, [r4, #0]
10007f32:	0022      	movs	r2, r4
10007f34:	2302      	movs	r3, #2
10007f36:	9700      	str	r7, [sp, #0]
10007f38:	0028      	movs	r0, r5
10007f3a:	f7ff fe15 	bl	10007b68 <i2c_write_blocking>
10007f3e:	2064      	movs	r0, #100	; 0x64
10007f40:	f7f9 faaa 	bl	10001498 <sleep_ms>
10007f44:	2301      	movs	r3, #1
10007f46:	469a      	mov	sl, r3
10007f48:	4f8a      	ldr	r7, [pc, #552]	; (10008174 <ov2640Init+0x280>)
10007f4a:	683b      	ldr	r3, [r7, #0]
10007f4c:	7831      	ldrb	r1, [r6, #0]
10007f4e:	4698      	mov	r8, r3
10007f50:	687b      	ldr	r3, [r7, #4]
10007f52:	0022      	movs	r2, r4
10007f54:	4699      	mov	r9, r3
10007f56:	4643      	mov	r3, r8
10007f58:	7023      	strb	r3, [r4, #0]
10007f5a:	464b      	mov	r3, r9
10007f5c:	7063      	strb	r3, [r4, #1]
10007f5e:	4653      	mov	r3, sl
10007f60:	0028      	movs	r0, r5
10007f62:	9300      	str	r3, [sp, #0]
10007f64:	2302      	movs	r3, #2
10007f66:	f7ff fdff 	bl	10007b68 <i2c_write_blocking>
10007f6a:	200a      	movs	r0, #10
10007f6c:	f7f9 fa94 	bl	10001498 <sleep_ms>
10007f70:	4643      	mov	r3, r8
10007f72:	3708      	adds	r7, #8
10007f74:	2bff      	cmp	r3, #255	; 0xff
10007f76:	d1e8      	bne.n	10007f4a <ov2640Init+0x56>
10007f78:	464b      	mov	r3, r9
10007f7a:	2bff      	cmp	r3, #255	; 0xff
10007f7c:	d1e5      	bne.n	10007f4a <ov2640Init+0x56>
10007f7e:	23c2      	movs	r3, #194	; 0xc2
10007f80:	25d0      	movs	r5, #208	; 0xd0
10007f82:	2620      	movs	r6, #32
10007f84:	062d      	lsls	r5, r5, #24
10007f86:	005b      	lsls	r3, r3, #1
10007f88:	8023      	strh	r3, [r4, #0]
10007f8a:	0021      	movs	r1, r4
10007f8c:	61ae      	str	r6, [r5, #24]
10007f8e:	2202      	movs	r2, #2
10007f90:	4879      	ldr	r0, [pc, #484]	; (10008178 <ov2640Init+0x284>)
10007f92:	f000 ffe9 	bl	10008f68 <__spi_write_blocking_veneer>
10007f96:	23a1      	movs	r3, #161	; 0xa1
10007f98:	009b      	lsls	r3, r3, #2
10007f9a:	616e      	str	r6, [r5, #20]
10007f9c:	2202      	movs	r2, #2
10007f9e:	8023      	strh	r3, [r4, #0]
10007fa0:	0021      	movs	r1, r4
10007fa2:	61ae      	str	r6, [r5, #24]
10007fa4:	4874      	ldr	r0, [pc, #464]	; (10008178 <ov2640Init+0x284>)
10007fa6:	f000 ffdf 	bl	10008f68 <__spi_write_blocking_veneer>
10007faa:	616e      	str	r6, [r5, #20]
10007fac:	b004      	add	sp, #16
10007fae:	bc1c      	pop	{r2, r3, r4}
10007fb0:	4690      	mov	r8, r2
10007fb2:	4699      	mov	r9, r3
10007fb4:	46a2      	mov	sl, r4
10007fb6:	bdf0      	pop	{r4, r5, r6, r7, pc}
10007fb8:	2701      	movs	r7, #1
10007fba:	4b6a      	ldr	r3, [pc, #424]	; (10008164 <ov2640Init+0x270>)
10007fbc:	4e6a      	ldr	r6, [pc, #424]	; (10008168 <ov2640Init+0x274>)
10007fbe:	4d6b      	ldr	r5, [pc, #428]	; (1000816c <ov2640Init+0x278>)
10007fc0:	8023      	strh	r3, [r4, #0]
10007fc2:	3bfe      	subs	r3, #254	; 0xfe
10007fc4:	7831      	ldrb	r1, [r6, #0]
10007fc6:	3bff      	subs	r3, #255	; 0xff
10007fc8:	9700      	str	r7, [sp, #0]
10007fca:	0022      	movs	r2, r4
10007fcc:	0028      	movs	r0, r5
10007fce:	f7ff fdcb 	bl	10007b68 <i2c_write_blocking>
10007fd2:	4b67      	ldr	r3, [pc, #412]	; (10008170 <ov2640Init+0x27c>)
10007fd4:	7831      	ldrb	r1, [r6, #0]
10007fd6:	8023      	strh	r3, [r4, #0]
10007fd8:	0022      	movs	r2, r4
10007fda:	9700      	str	r7, [sp, #0]
10007fdc:	2302      	movs	r3, #2
10007fde:	0028      	movs	r0, r5
10007fe0:	f7ff fdc2 	bl	10007b68 <i2c_write_blocking>
10007fe4:	2301      	movs	r3, #1
10007fe6:	469a      	mov	sl, r3
10007fe8:	4f64      	ldr	r7, [pc, #400]	; (1000817c <ov2640Init+0x288>)
10007fea:	683b      	ldr	r3, [r7, #0]
10007fec:	7831      	ldrb	r1, [r6, #0]
10007fee:	4698      	mov	r8, r3
10007ff0:	687b      	ldr	r3, [r7, #4]
10007ff2:	0022      	movs	r2, r4
10007ff4:	4699      	mov	r9, r3
10007ff6:	4643      	mov	r3, r8
10007ff8:	7023      	strb	r3, [r4, #0]
10007ffa:	464b      	mov	r3, r9
10007ffc:	7063      	strb	r3, [r4, #1]
10007ffe:	4653      	mov	r3, sl
10008000:	0028      	movs	r0, r5
10008002:	9300      	str	r3, [sp, #0]
10008004:	2302      	movs	r3, #2
10008006:	f7ff fdaf 	bl	10007b68 <i2c_write_blocking>
1000800a:	200a      	movs	r0, #10
1000800c:	f7f9 fa44 	bl	10001498 <sleep_ms>
10008010:	4643      	mov	r3, r8
10008012:	3708      	adds	r7, #8
10008014:	2bff      	cmp	r3, #255	; 0xff
10008016:	d1e8      	bne.n	10007fea <ov2640Init+0xf6>
10008018:	464b      	mov	r3, r9
1000801a:	2bff      	cmp	r3, #255	; 0xff
1000801c:	d1e5      	bne.n	10007fea <ov2640Init+0xf6>
1000801e:	3bfe      	subs	r3, #254	; 0xfe
10008020:	469a      	mov	sl, r3
10008022:	4f57      	ldr	r7, [pc, #348]	; (10008180 <ov2640Init+0x28c>)
10008024:	683b      	ldr	r3, [r7, #0]
10008026:	7831      	ldrb	r1, [r6, #0]
10008028:	4698      	mov	r8, r3
1000802a:	687b      	ldr	r3, [r7, #4]
1000802c:	0022      	movs	r2, r4
1000802e:	4699      	mov	r9, r3
10008030:	4643      	mov	r3, r8
10008032:	7023      	strb	r3, [r4, #0]
10008034:	464b      	mov	r3, r9
10008036:	7063      	strb	r3, [r4, #1]
10008038:	4653      	mov	r3, sl
1000803a:	0028      	movs	r0, r5
1000803c:	9300      	str	r3, [sp, #0]
1000803e:	2302      	movs	r3, #2
10008040:	f7ff fd92 	bl	10007b68 <i2c_write_blocking>
10008044:	200a      	movs	r0, #10
10008046:	f7f9 fa27 	bl	10001498 <sleep_ms>
1000804a:	4643      	mov	r3, r8
1000804c:	3708      	adds	r7, #8
1000804e:	2bff      	cmp	r3, #255	; 0xff
10008050:	d1e8      	bne.n	10008024 <ov2640Init+0x130>
10008052:	464b      	mov	r3, r9
10008054:	2bff      	cmp	r3, #255	; 0xff
10008056:	d1e5      	bne.n	10008024 <ov2640Init+0x130>
10008058:	3bfe      	subs	r3, #254	; 0xfe
1000805a:	469a      	mov	sl, r3
1000805c:	4f49      	ldr	r7, [pc, #292]	; (10008184 <ov2640Init+0x290>)
1000805e:	683b      	ldr	r3, [r7, #0]
10008060:	7831      	ldrb	r1, [r6, #0]
10008062:	4698      	mov	r8, r3
10008064:	687b      	ldr	r3, [r7, #4]
10008066:	0022      	movs	r2, r4
10008068:	4699      	mov	r9, r3
1000806a:	4643      	mov	r3, r8
1000806c:	7023      	strb	r3, [r4, #0]
1000806e:	464b      	mov	r3, r9
10008070:	7063      	strb	r3, [r4, #1]
10008072:	4653      	mov	r3, sl
10008074:	0028      	movs	r0, r5
10008076:	9300      	str	r3, [sp, #0]
10008078:	2302      	movs	r3, #2
1000807a:	f7ff fd75 	bl	10007b68 <i2c_write_blocking>
1000807e:	200a      	movs	r0, #10
10008080:	f7f9 fa0a 	bl	10001498 <sleep_ms>
10008084:	4643      	mov	r3, r8
10008086:	3708      	adds	r7, #8
10008088:	2bff      	cmp	r3, #255	; 0xff
1000808a:	d1e8      	bne.n	1000805e <ov2640Init+0x16a>
1000808c:	464b      	mov	r3, r9
1000808e:	2bff      	cmp	r3, #255	; 0xff
10008090:	d1e5      	bne.n	1000805e <ov2640Init+0x16a>
10008092:	4b34      	ldr	r3, [pc, #208]	; (10008164 <ov2640Init+0x270>)
10008094:	7831      	ldrb	r1, [r6, #0]
10008096:	8023      	strh	r3, [r4, #0]
10008098:	4653      	mov	r3, sl
1000809a:	0022      	movs	r2, r4
1000809c:	9300      	str	r3, [sp, #0]
1000809e:	0028      	movs	r0, r5
100080a0:	2302      	movs	r3, #2
100080a2:	f7ff fd61 	bl	10007b68 <i2c_write_blocking>
100080a6:	2315      	movs	r3, #21
100080a8:	8023      	strh	r3, [r4, #0]
100080aa:	4653      	mov	r3, sl
100080ac:	7831      	ldrb	r1, [r6, #0]
100080ae:	0022      	movs	r2, r4
100080b0:	9300      	str	r3, [sp, #0]
100080b2:	0028      	movs	r0, r5
100080b4:	2302      	movs	r3, #2
100080b6:	f7ff fd57 	bl	10007b68 <i2c_write_blocking>
100080ba:	2301      	movs	r3, #1
100080bc:	469a      	mov	sl, r3
100080be:	4f32      	ldr	r7, [pc, #200]	; (10008188 <ov2640Init+0x294>)
100080c0:	683b      	ldr	r3, [r7, #0]
100080c2:	7831      	ldrb	r1, [r6, #0]
100080c4:	4698      	mov	r8, r3
100080c6:	687b      	ldr	r3, [r7, #4]
100080c8:	0022      	movs	r2, r4
100080ca:	4699      	mov	r9, r3
100080cc:	4643      	mov	r3, r8
100080ce:	7023      	strb	r3, [r4, #0]
100080d0:	464b      	mov	r3, r9
100080d2:	7063      	strb	r3, [r4, #1]
100080d4:	4653      	mov	r3, sl
100080d6:	0028      	movs	r0, r5
100080d8:	9300      	str	r3, [sp, #0]
100080da:	2302      	movs	r3, #2
100080dc:	f7ff fd44 	bl	10007b68 <i2c_write_blocking>
100080e0:	200a      	movs	r0, #10
100080e2:	f7f9 f9d9 	bl	10001498 <sleep_ms>
100080e6:	4643      	mov	r3, r8
100080e8:	3708      	adds	r7, #8
100080ea:	2bff      	cmp	r3, #255	; 0xff
100080ec:	d1e8      	bne.n	100080c0 <ov2640Init+0x1cc>
100080ee:	464b      	mov	r3, r9
100080f0:	2bff      	cmp	r3, #255	; 0xff
100080f2:	d1e5      	bne.n	100080c0 <ov2640Init+0x1cc>
100080f4:	e743      	b.n	10007f7e <ov2640Init+0x8a>
100080f6:	4b1b      	ldr	r3, [pc, #108]	; (10008164 <ov2640Init+0x270>)
100080f8:	4e1b      	ldr	r6, [pc, #108]	; (10008168 <ov2640Init+0x274>)
100080fa:	4d1c      	ldr	r5, [pc, #112]	; (1000816c <ov2640Init+0x278>)
100080fc:	8023      	strh	r3, [r4, #0]
100080fe:	3bfe      	subs	r3, #254	; 0xfe
10008100:	7831      	ldrb	r1, [r6, #0]
10008102:	3bff      	subs	r3, #255	; 0xff
10008104:	9000      	str	r0, [sp, #0]
10008106:	0022      	movs	r2, r4
10008108:	0028      	movs	r0, r5
1000810a:	f7ff fd2d 	bl	10007b68 <i2c_write_blocking>
1000810e:	4b18      	ldr	r3, [pc, #96]	; (10008170 <ov2640Init+0x27c>)
10008110:	7831      	ldrb	r1, [r6, #0]
10008112:	8023      	strh	r3, [r4, #0]
10008114:	0022      	movs	r2, r4
10008116:	2302      	movs	r3, #2
10008118:	9700      	str	r7, [sp, #0]
1000811a:	0028      	movs	r0, r5
1000811c:	f7ff fd24 	bl	10007b68 <i2c_write_blocking>
10008120:	2064      	movs	r0, #100	; 0x64
10008122:	f7f9 f9b9 	bl	10001498 <sleep_ms>
10008126:	2301      	movs	r3, #1
10008128:	469a      	mov	sl, r3
1000812a:	4f18      	ldr	r7, [pc, #96]	; (1000818c <ov2640Init+0x298>)
1000812c:	683b      	ldr	r3, [r7, #0]
1000812e:	7831      	ldrb	r1, [r6, #0]
10008130:	4698      	mov	r8, r3
10008132:	687b      	ldr	r3, [r7, #4]
10008134:	0022      	movs	r2, r4
10008136:	4699      	mov	r9, r3
10008138:	4643      	mov	r3, r8
1000813a:	7023      	strb	r3, [r4, #0]
1000813c:	464b      	mov	r3, r9
1000813e:	7063      	strb	r3, [r4, #1]
10008140:	4653      	mov	r3, sl
10008142:	0028      	movs	r0, r5
10008144:	9300      	str	r3, [sp, #0]
10008146:	2302      	movs	r3, #2
10008148:	f7ff fd0e 	bl	10007b68 <i2c_write_blocking>
1000814c:	200a      	movs	r0, #10
1000814e:	f7f9 f9a3 	bl	10001498 <sleep_ms>
10008152:	4643      	mov	r3, r8
10008154:	3708      	adds	r7, #8
10008156:	2bff      	cmp	r3, #255	; 0xff
10008158:	d1e8      	bne.n	1000812c <ov2640Init+0x238>
1000815a:	464b      	mov	r3, r9
1000815c:	2bff      	cmp	r3, #255	; 0xff
1000815e:	d1e5      	bne.n	1000812c <ov2640Init+0x238>
10008160:	e70d      	b.n	10007f7e <ov2640Init+0x8a>
10008162:	46c0      	nop			; (mov r8, r8)
10008164:	000001ff 	.word	0x000001ff
10008168:	20000394 	.word	0x20000394
1000816c:	2000038c 	.word	0x2000038c
10008170:	ffff8012 	.word	0xffff8012
10008174:	1000ae74 	.word	0x1000ae74
10008178:	4003c000 	.word	0x4003c000
1000817c:	1000a21c 	.word	0x1000a21c
10008180:	1000ae24 	.word	0x1000ae24
10008184:	1000a1d4 	.word	0x1000a1d4
10008188:	10009cc4 	.word	0x10009cc4
1000818c:	1000a814 	.word	0x1000a814

10008190 <OV2640_set_JPEG_size>:
10008190:	b5f0      	push	{r4, r5, r6, r7, lr}
10008192:	46d6      	mov	lr, sl
10008194:	464f      	mov	r7, r9
10008196:	4646      	mov	r6, r8
10008198:	b5c0      	push	{r6, r7, lr}
1000819a:	b084      	sub	sp, #16
1000819c:	2808      	cmp	r0, #8
1000819e:	d900      	bls.n	100081a2 <OV2640_set_JPEG_size+0x12>
100081a0:	e131      	b.n	10008406 <OV2640_set_JPEG_size+0x276>
100081a2:	4ba9      	ldr	r3, [pc, #676]	; (10008448 <OV2640_set_JPEG_size+0x2b8>)
100081a4:	0080      	lsls	r0, r0, #2
100081a6:	581b      	ldr	r3, [r3, r0]
100081a8:	469f      	mov	pc, r3
100081aa:	2301      	movs	r3, #1
100081ac:	469a      	mov	sl, r3
100081ae:	4fa7      	ldr	r7, [pc, #668]	; (1000844c <OV2640_set_JPEG_size+0x2bc>)
100081b0:	4ea7      	ldr	r6, [pc, #668]	; (10008450 <OV2640_set_JPEG_size+0x2c0>)
100081b2:	4da8      	ldr	r5, [pc, #672]	; (10008454 <OV2640_set_JPEG_size+0x2c4>)
100081b4:	ac03      	add	r4, sp, #12
100081b6:	683b      	ldr	r3, [r7, #0]
100081b8:	7831      	ldrb	r1, [r6, #0]
100081ba:	4698      	mov	r8, r3
100081bc:	687b      	ldr	r3, [r7, #4]
100081be:	0022      	movs	r2, r4
100081c0:	4699      	mov	r9, r3
100081c2:	4643      	mov	r3, r8
100081c4:	7023      	strb	r3, [r4, #0]
100081c6:	464b      	mov	r3, r9
100081c8:	7063      	strb	r3, [r4, #1]
100081ca:	4653      	mov	r3, sl
100081cc:	0028      	movs	r0, r5
100081ce:	9300      	str	r3, [sp, #0]
100081d0:	2302      	movs	r3, #2
100081d2:	f7ff fcc9 	bl	10007b68 <i2c_write_blocking>
100081d6:	200a      	movs	r0, #10
100081d8:	f7f9 f95e 	bl	10001498 <sleep_ms>
100081dc:	4643      	mov	r3, r8
100081de:	3708      	adds	r7, #8
100081e0:	2bff      	cmp	r3, #255	; 0xff
100081e2:	d1e8      	bne.n	100081b6 <OV2640_set_JPEG_size+0x26>
100081e4:	464b      	mov	r3, r9
100081e6:	2bff      	cmp	r3, #255	; 0xff
100081e8:	d1e5      	bne.n	100081b6 <OV2640_set_JPEG_size+0x26>
100081ea:	b004      	add	sp, #16
100081ec:	bc1c      	pop	{r2, r3, r4}
100081ee:	4690      	mov	r8, r2
100081f0:	4699      	mov	r9, r3
100081f2:	46a2      	mov	sl, r4
100081f4:	bdf0      	pop	{r4, r5, r6, r7, pc}
100081f6:	2301      	movs	r3, #1
100081f8:	469a      	mov	sl, r3
100081fa:	4f97      	ldr	r7, [pc, #604]	; (10008458 <OV2640_set_JPEG_size+0x2c8>)
100081fc:	4e94      	ldr	r6, [pc, #592]	; (10008450 <OV2640_set_JPEG_size+0x2c0>)
100081fe:	4d95      	ldr	r5, [pc, #596]	; (10008454 <OV2640_set_JPEG_size+0x2c4>)
10008200:	ac03      	add	r4, sp, #12
10008202:	683b      	ldr	r3, [r7, #0]
10008204:	7831      	ldrb	r1, [r6, #0]
10008206:	4698      	mov	r8, r3
10008208:	687b      	ldr	r3, [r7, #4]
1000820a:	0022      	movs	r2, r4
1000820c:	4699      	mov	r9, r3
1000820e:	4643      	mov	r3, r8
10008210:	7023      	strb	r3, [r4, #0]
10008212:	464b      	mov	r3, r9
10008214:	7063      	strb	r3, [r4, #1]
10008216:	4653      	mov	r3, sl
10008218:	0028      	movs	r0, r5
1000821a:	9300      	str	r3, [sp, #0]
1000821c:	2302      	movs	r3, #2
1000821e:	f7ff fca3 	bl	10007b68 <i2c_write_blocking>
10008222:	200a      	movs	r0, #10
10008224:	f7f9 f938 	bl	10001498 <sleep_ms>
10008228:	4643      	mov	r3, r8
1000822a:	3708      	adds	r7, #8
1000822c:	2bff      	cmp	r3, #255	; 0xff
1000822e:	d1e8      	bne.n	10008202 <OV2640_set_JPEG_size+0x72>
10008230:	464b      	mov	r3, r9
10008232:	2bff      	cmp	r3, #255	; 0xff
10008234:	d1e5      	bne.n	10008202 <OV2640_set_JPEG_size+0x72>
10008236:	e7d8      	b.n	100081ea <OV2640_set_JPEG_size+0x5a>
10008238:	2301      	movs	r3, #1
1000823a:	469a      	mov	sl, r3
1000823c:	4f87      	ldr	r7, [pc, #540]	; (1000845c <OV2640_set_JPEG_size+0x2cc>)
1000823e:	4e84      	ldr	r6, [pc, #528]	; (10008450 <OV2640_set_JPEG_size+0x2c0>)
10008240:	4d84      	ldr	r5, [pc, #528]	; (10008454 <OV2640_set_JPEG_size+0x2c4>)
10008242:	ac03      	add	r4, sp, #12
10008244:	683b      	ldr	r3, [r7, #0]
10008246:	7831      	ldrb	r1, [r6, #0]
10008248:	4698      	mov	r8, r3
1000824a:	687b      	ldr	r3, [r7, #4]
1000824c:	0022      	movs	r2, r4
1000824e:	4699      	mov	r9, r3
10008250:	4643      	mov	r3, r8
10008252:	7023      	strb	r3, [r4, #0]
10008254:	464b      	mov	r3, r9
10008256:	7063      	strb	r3, [r4, #1]
10008258:	4653      	mov	r3, sl
1000825a:	0028      	movs	r0, r5
1000825c:	9300      	str	r3, [sp, #0]
1000825e:	2302      	movs	r3, #2
10008260:	f7ff fc82 	bl	10007b68 <i2c_write_blocking>
10008264:	200a      	movs	r0, #10
10008266:	f7f9 f917 	bl	10001498 <sleep_ms>
1000826a:	4643      	mov	r3, r8
1000826c:	3708      	adds	r7, #8
1000826e:	2bff      	cmp	r3, #255	; 0xff
10008270:	d1e8      	bne.n	10008244 <OV2640_set_JPEG_size+0xb4>
10008272:	464b      	mov	r3, r9
10008274:	2bff      	cmp	r3, #255	; 0xff
10008276:	d1e5      	bne.n	10008244 <OV2640_set_JPEG_size+0xb4>
10008278:	e7b7      	b.n	100081ea <OV2640_set_JPEG_size+0x5a>
1000827a:	2301      	movs	r3, #1
1000827c:	469a      	mov	sl, r3
1000827e:	4f78      	ldr	r7, [pc, #480]	; (10008460 <OV2640_set_JPEG_size+0x2d0>)
10008280:	4e73      	ldr	r6, [pc, #460]	; (10008450 <OV2640_set_JPEG_size+0x2c0>)
10008282:	4d74      	ldr	r5, [pc, #464]	; (10008454 <OV2640_set_JPEG_size+0x2c4>)
10008284:	ac03      	add	r4, sp, #12
10008286:	683b      	ldr	r3, [r7, #0]
10008288:	7831      	ldrb	r1, [r6, #0]
1000828a:	4698      	mov	r8, r3
1000828c:	687b      	ldr	r3, [r7, #4]
1000828e:	0022      	movs	r2, r4
10008290:	4699      	mov	r9, r3
10008292:	4643      	mov	r3, r8
10008294:	7023      	strb	r3, [r4, #0]
10008296:	464b      	mov	r3, r9
10008298:	7063      	strb	r3, [r4, #1]
1000829a:	4653      	mov	r3, sl
1000829c:	0028      	movs	r0, r5
1000829e:	9300      	str	r3, [sp, #0]
100082a0:	2302      	movs	r3, #2
100082a2:	f7ff fc61 	bl	10007b68 <i2c_write_blocking>
100082a6:	200a      	movs	r0, #10
100082a8:	f7f9 f8f6 	bl	10001498 <sleep_ms>
100082ac:	4643      	mov	r3, r8
100082ae:	3708      	adds	r7, #8
100082b0:	2bff      	cmp	r3, #255	; 0xff
100082b2:	d1e8      	bne.n	10008286 <OV2640_set_JPEG_size+0xf6>
100082b4:	464b      	mov	r3, r9
100082b6:	2bff      	cmp	r3, #255	; 0xff
100082b8:	d1e5      	bne.n	10008286 <OV2640_set_JPEG_size+0xf6>
100082ba:	e796      	b.n	100081ea <OV2640_set_JPEG_size+0x5a>
100082bc:	2301      	movs	r3, #1
100082be:	469a      	mov	sl, r3
100082c0:	4f68      	ldr	r7, [pc, #416]	; (10008464 <OV2640_set_JPEG_size+0x2d4>)
100082c2:	4e63      	ldr	r6, [pc, #396]	; (10008450 <OV2640_set_JPEG_size+0x2c0>)
100082c4:	4d63      	ldr	r5, [pc, #396]	; (10008454 <OV2640_set_JPEG_size+0x2c4>)
100082c6:	ac03      	add	r4, sp, #12
100082c8:	683b      	ldr	r3, [r7, #0]
100082ca:	7831      	ldrb	r1, [r6, #0]
100082cc:	4698      	mov	r8, r3
100082ce:	687b      	ldr	r3, [r7, #4]
100082d0:	0022      	movs	r2, r4
100082d2:	4699      	mov	r9, r3
100082d4:	4643      	mov	r3, r8
100082d6:	7023      	strb	r3, [r4, #0]
100082d8:	464b      	mov	r3, r9
100082da:	7063      	strb	r3, [r4, #1]
100082dc:	4653      	mov	r3, sl
100082de:	0028      	movs	r0, r5
100082e0:	9300      	str	r3, [sp, #0]
100082e2:	2302      	movs	r3, #2
100082e4:	f7ff fc40 	bl	10007b68 <i2c_write_blocking>
100082e8:	200a      	movs	r0, #10
100082ea:	f7f9 f8d5 	bl	10001498 <sleep_ms>
100082ee:	4643      	mov	r3, r8
100082f0:	3708      	adds	r7, #8
100082f2:	2bff      	cmp	r3, #255	; 0xff
100082f4:	d1e8      	bne.n	100082c8 <OV2640_set_JPEG_size+0x138>
100082f6:	464b      	mov	r3, r9
100082f8:	2bff      	cmp	r3, #255	; 0xff
100082fa:	d1e5      	bne.n	100082c8 <OV2640_set_JPEG_size+0x138>
100082fc:	e775      	b.n	100081ea <OV2640_set_JPEG_size+0x5a>
100082fe:	2301      	movs	r3, #1
10008300:	469a      	mov	sl, r3
10008302:	4f59      	ldr	r7, [pc, #356]	; (10008468 <OV2640_set_JPEG_size+0x2d8>)
10008304:	4e52      	ldr	r6, [pc, #328]	; (10008450 <OV2640_set_JPEG_size+0x2c0>)
10008306:	4d53      	ldr	r5, [pc, #332]	; (10008454 <OV2640_set_JPEG_size+0x2c4>)
10008308:	ac03      	add	r4, sp, #12
1000830a:	683b      	ldr	r3, [r7, #0]
1000830c:	7831      	ldrb	r1, [r6, #0]
1000830e:	4698      	mov	r8, r3
10008310:	687b      	ldr	r3, [r7, #4]
10008312:	0022      	movs	r2, r4
10008314:	4699      	mov	r9, r3
10008316:	4643      	mov	r3, r8
10008318:	7023      	strb	r3, [r4, #0]
1000831a:	464b      	mov	r3, r9
1000831c:	7063      	strb	r3, [r4, #1]
1000831e:	4653      	mov	r3, sl
10008320:	0028      	movs	r0, r5
10008322:	9300      	str	r3, [sp, #0]
10008324:	2302      	movs	r3, #2
10008326:	f7ff fc1f 	bl	10007b68 <i2c_write_blocking>
1000832a:	200a      	movs	r0, #10
1000832c:	f7f9 f8b4 	bl	10001498 <sleep_ms>
10008330:	4643      	mov	r3, r8
10008332:	3708      	adds	r7, #8
10008334:	2bff      	cmp	r3, #255	; 0xff
10008336:	d1e8      	bne.n	1000830a <OV2640_set_JPEG_size+0x17a>
10008338:	464b      	mov	r3, r9
1000833a:	2bff      	cmp	r3, #255	; 0xff
1000833c:	d1e5      	bne.n	1000830a <OV2640_set_JPEG_size+0x17a>
1000833e:	e754      	b.n	100081ea <OV2640_set_JPEG_size+0x5a>
10008340:	2301      	movs	r3, #1
10008342:	469a      	mov	sl, r3
10008344:	4f49      	ldr	r7, [pc, #292]	; (1000846c <OV2640_set_JPEG_size+0x2dc>)
10008346:	4e42      	ldr	r6, [pc, #264]	; (10008450 <OV2640_set_JPEG_size+0x2c0>)
10008348:	4d42      	ldr	r5, [pc, #264]	; (10008454 <OV2640_set_JPEG_size+0x2c4>)
1000834a:	ac03      	add	r4, sp, #12
1000834c:	683b      	ldr	r3, [r7, #0]
1000834e:	7831      	ldrb	r1, [r6, #0]
10008350:	4698      	mov	r8, r3
10008352:	687b      	ldr	r3, [r7, #4]
10008354:	0022      	movs	r2, r4
10008356:	4699      	mov	r9, r3
10008358:	4643      	mov	r3, r8
1000835a:	7023      	strb	r3, [r4, #0]
1000835c:	464b      	mov	r3, r9
1000835e:	7063      	strb	r3, [r4, #1]
10008360:	4653      	mov	r3, sl
10008362:	0028      	movs	r0, r5
10008364:	9300      	str	r3, [sp, #0]
10008366:	2302      	movs	r3, #2
10008368:	f7ff fbfe 	bl	10007b68 <i2c_write_blocking>
1000836c:	200a      	movs	r0, #10
1000836e:	f7f9 f893 	bl	10001498 <sleep_ms>
10008372:	4643      	mov	r3, r8
10008374:	3708      	adds	r7, #8
10008376:	2bff      	cmp	r3, #255	; 0xff
10008378:	d1e8      	bne.n	1000834c <OV2640_set_JPEG_size+0x1bc>
1000837a:	464b      	mov	r3, r9
1000837c:	2bff      	cmp	r3, #255	; 0xff
1000837e:	d1e5      	bne.n	1000834c <OV2640_set_JPEG_size+0x1bc>
10008380:	e733      	b.n	100081ea <OV2640_set_JPEG_size+0x5a>
10008382:	2301      	movs	r3, #1
10008384:	469a      	mov	sl, r3
10008386:	4f3a      	ldr	r7, [pc, #232]	; (10008470 <OV2640_set_JPEG_size+0x2e0>)
10008388:	4e31      	ldr	r6, [pc, #196]	; (10008450 <OV2640_set_JPEG_size+0x2c0>)
1000838a:	4d32      	ldr	r5, [pc, #200]	; (10008454 <OV2640_set_JPEG_size+0x2c4>)
1000838c:	ac03      	add	r4, sp, #12
1000838e:	683b      	ldr	r3, [r7, #0]
10008390:	7831      	ldrb	r1, [r6, #0]
10008392:	4698      	mov	r8, r3
10008394:	687b      	ldr	r3, [r7, #4]
10008396:	0022      	movs	r2, r4
10008398:	4699      	mov	r9, r3
1000839a:	4643      	mov	r3, r8
1000839c:	7023      	strb	r3, [r4, #0]
1000839e:	464b      	mov	r3, r9
100083a0:	7063      	strb	r3, [r4, #1]
100083a2:	4653      	mov	r3, sl
100083a4:	0028      	movs	r0, r5
100083a6:	9300      	str	r3, [sp, #0]
100083a8:	2302      	movs	r3, #2
100083aa:	f7ff fbdd 	bl	10007b68 <i2c_write_blocking>
100083ae:	200a      	movs	r0, #10
100083b0:	f7f9 f872 	bl	10001498 <sleep_ms>
100083b4:	4643      	mov	r3, r8
100083b6:	3708      	adds	r7, #8
100083b8:	2bff      	cmp	r3, #255	; 0xff
100083ba:	d1e8      	bne.n	1000838e <OV2640_set_JPEG_size+0x1fe>
100083bc:	464b      	mov	r3, r9
100083be:	2bff      	cmp	r3, #255	; 0xff
100083c0:	d1e5      	bne.n	1000838e <OV2640_set_JPEG_size+0x1fe>
100083c2:	e712      	b.n	100081ea <OV2640_set_JPEG_size+0x5a>
100083c4:	2301      	movs	r3, #1
100083c6:	469a      	mov	sl, r3
100083c8:	4f2a      	ldr	r7, [pc, #168]	; (10008474 <OV2640_set_JPEG_size+0x2e4>)
100083ca:	4e21      	ldr	r6, [pc, #132]	; (10008450 <OV2640_set_JPEG_size+0x2c0>)
100083cc:	4d21      	ldr	r5, [pc, #132]	; (10008454 <OV2640_set_JPEG_size+0x2c4>)
100083ce:	ac03      	add	r4, sp, #12
100083d0:	683b      	ldr	r3, [r7, #0]
100083d2:	7831      	ldrb	r1, [r6, #0]
100083d4:	4698      	mov	r8, r3
100083d6:	687b      	ldr	r3, [r7, #4]
100083d8:	0022      	movs	r2, r4
100083da:	4699      	mov	r9, r3
100083dc:	4643      	mov	r3, r8
100083de:	7023      	strb	r3, [r4, #0]
100083e0:	464b      	mov	r3, r9
100083e2:	7063      	strb	r3, [r4, #1]
100083e4:	4653      	mov	r3, sl
100083e6:	0028      	movs	r0, r5
100083e8:	9300      	str	r3, [sp, #0]
100083ea:	2302      	movs	r3, #2
100083ec:	f7ff fbbc 	bl	10007b68 <i2c_write_blocking>
100083f0:	200a      	movs	r0, #10
100083f2:	f7f9 f851 	bl	10001498 <sleep_ms>
100083f6:	4643      	mov	r3, r8
100083f8:	3708      	adds	r7, #8
100083fa:	2bff      	cmp	r3, #255	; 0xff
100083fc:	d1e8      	bne.n	100083d0 <OV2640_set_JPEG_size+0x240>
100083fe:	464b      	mov	r3, r9
10008400:	2bff      	cmp	r3, #255	; 0xff
10008402:	d1e5      	bne.n	100083d0 <OV2640_set_JPEG_size+0x240>
10008404:	e6f1      	b.n	100081ea <OV2640_set_JPEG_size+0x5a>
10008406:	2301      	movs	r3, #1
10008408:	469a      	mov	sl, r3
1000840a:	4f19      	ldr	r7, [pc, #100]	; (10008470 <OV2640_set_JPEG_size+0x2e0>)
1000840c:	4e10      	ldr	r6, [pc, #64]	; (10008450 <OV2640_set_JPEG_size+0x2c0>)
1000840e:	4d11      	ldr	r5, [pc, #68]	; (10008454 <OV2640_set_JPEG_size+0x2c4>)
10008410:	ac03      	add	r4, sp, #12
10008412:	683b      	ldr	r3, [r7, #0]
10008414:	7831      	ldrb	r1, [r6, #0]
10008416:	4698      	mov	r8, r3
10008418:	687b      	ldr	r3, [r7, #4]
1000841a:	0022      	movs	r2, r4
1000841c:	4699      	mov	r9, r3
1000841e:	4643      	mov	r3, r8
10008420:	7023      	strb	r3, [r4, #0]
10008422:	464b      	mov	r3, r9
10008424:	7063      	strb	r3, [r4, #1]
10008426:	4653      	mov	r3, sl
10008428:	0028      	movs	r0, r5
1000842a:	9300      	str	r3, [sp, #0]
1000842c:	2302      	movs	r3, #2
1000842e:	f7ff fb9b 	bl	10007b68 <i2c_write_blocking>
10008432:	200a      	movs	r0, #10
10008434:	f7f9 f830 	bl	10001498 <sleep_ms>
10008438:	4643      	mov	r3, r8
1000843a:	3708      	adds	r7, #8
1000843c:	2bff      	cmp	r3, #255	; 0xff
1000843e:	d1e8      	bne.n	10008412 <OV2640_set_JPEG_size+0x282>
10008440:	464b      	mov	r3, r9
10008442:	2bff      	cmp	r3, #255	; 0xff
10008444:	d1e5      	bne.n	10008412 <OV2640_set_JPEG_size+0x282>
10008446:	e6d0      	b.n	100081ea <OV2640_set_JPEG_size+0x5a>
10008448:	10009658 	.word	0x10009658
1000844c:	100097b4 	.word	0x100097b4
10008450:	20000394 	.word	0x20000394
10008454:	2000038c 	.word	0x2000038c
10008458:	100098fc 	.word	0x100098fc
1000845c:	10009e04 	.word	0x10009e04
10008460:	10009f44 	.word	0x10009f44
10008464:	1000a08c 	.word	0x1000a08c
10008468:	1000967c 	.word	0x1000967c
1000846c:	10009b84 	.word	0x10009b84
10008470:	10009cc4 	.word	0x10009cc4
10008474:	10009a44 	.word	0x10009a44

10008478 <capture>:
10008478:	b5f0      	push	{r4, r5, r6, r7, lr}
1000847a:	2300      	movs	r3, #0
1000847c:	46d6      	mov	lr, sl
1000847e:	464f      	mov	r7, r9
10008480:	4646      	mov	r6, r8
10008482:	469a      	mov	sl, r3
10008484:	b5c0      	push	{r6, r7, lr}
10008486:	0007      	movs	r7, r0
10008488:	4c4c      	ldr	r4, [pc, #304]	; (100085bc <capture+0x144>)
1000848a:	44a5      	add	sp, r4
1000848c:	ac02      	add	r4, sp, #8
1000848e:	2341      	movs	r3, #65	; 0x41
10008490:	466a      	mov	r2, sp
10008492:	25d0      	movs	r5, #208	; 0xd0
10008494:	7013      	strb	r3, [r2, #0]
10008496:	2620      	movs	r6, #32
10008498:	4653      	mov	r3, sl
1000849a:	062d      	lsls	r5, r5, #24
1000849c:	7023      	strb	r3, [r4, #0]
1000849e:	2201      	movs	r2, #1
100084a0:	4669      	mov	r1, sp
100084a2:	61ae      	str	r6, [r5, #24]
100084a4:	4846      	ldr	r0, [pc, #280]	; (100085c0 <capture+0x148>)
100084a6:	f000 fd5f 	bl	10008f68 <__spi_write_blocking_veneer>
100084aa:	2301      	movs	r3, #1
100084ac:	0022      	movs	r2, r4
100084ae:	2100      	movs	r1, #0
100084b0:	4843      	ldr	r0, [pc, #268]	; (100085c0 <capture+0x148>)
100084b2:	f000 fd29 	bl	10008f08 <__spi_read_blocking_veneer>
100084b6:	616e      	str	r6, [r5, #20]
100084b8:	7823      	ldrb	r3, [r4, #0]
100084ba:	071b      	lsls	r3, r3, #28
100084bc:	d5e7      	bpl.n	1000848e <capture+0x16>
100084be:	466b      	mov	r3, sp
100084c0:	1cd9      	adds	r1, r3, #3
100084c2:	2342      	movs	r3, #66	; 0x42
100084c4:	700b      	strb	r3, [r1, #0]
100084c6:	4653      	mov	r3, sl
100084c8:	2201      	movs	r2, #1
100084ca:	7023      	strb	r3, [r4, #0]
100084cc:	483c      	ldr	r0, [pc, #240]	; (100085c0 <capture+0x148>)
100084ce:	61ae      	str	r6, [r5, #24]
100084d0:	f000 fd4a 	bl	10008f68 <__spi_write_blocking_veneer>
100084d4:	2100      	movs	r1, #0
100084d6:	2301      	movs	r3, #1
100084d8:	0022      	movs	r2, r4
100084da:	4839      	ldr	r0, [pc, #228]	; (100085c0 <capture+0x148>)
100084dc:	f000 fd14 	bl	10008f08 <__spi_read_blocking_veneer>
100084e0:	616e      	str	r6, [r5, #20]
100084e2:	7823      	ldrb	r3, [r4, #0]
100084e4:	2201      	movs	r2, #1
100084e6:	4698      	mov	r8, r3
100084e8:	466b      	mov	r3, sp
100084ea:	1c99      	adds	r1, r3, #2
100084ec:	2343      	movs	r3, #67	; 0x43
100084ee:	700b      	strb	r3, [r1, #0]
100084f0:	4653      	mov	r3, sl
100084f2:	4833      	ldr	r0, [pc, #204]	; (100085c0 <capture+0x148>)
100084f4:	7023      	strb	r3, [r4, #0]
100084f6:	61ae      	str	r6, [r5, #24]
100084f8:	f000 fd36 	bl	10008f68 <__spi_write_blocking_veneer>
100084fc:	2100      	movs	r1, #0
100084fe:	2301      	movs	r3, #1
10008500:	0022      	movs	r2, r4
10008502:	482f      	ldr	r0, [pc, #188]	; (100085c0 <capture+0x148>)
10008504:	f000 fd00 	bl	10008f08 <__spi_read_blocking_veneer>
10008508:	616e      	str	r6, [r5, #20]
1000850a:	7823      	ldrb	r3, [r4, #0]
1000850c:	2201      	movs	r2, #1
1000850e:	4699      	mov	r9, r3
10008510:	466b      	mov	r3, sp
10008512:	1c59      	adds	r1, r3, #1
10008514:	2344      	movs	r3, #68	; 0x44
10008516:	700b      	strb	r3, [r1, #0]
10008518:	4653      	mov	r3, sl
1000851a:	4829      	ldr	r0, [pc, #164]	; (100085c0 <capture+0x148>)
1000851c:	7023      	strb	r3, [r4, #0]
1000851e:	61ae      	str	r6, [r5, #24]
10008520:	f000 fd22 	bl	10008f68 <__spi_write_blocking_veneer>
10008524:	2301      	movs	r3, #1
10008526:	0022      	movs	r2, r4
10008528:	2100      	movs	r1, #0
1000852a:	4825      	ldr	r0, [pc, #148]	; (100085c0 <capture+0x148>)
1000852c:	f000 fcec 	bl	10008f08 <__spi_read_blocking_veneer>
10008530:	464b      	mov	r3, r9
10008532:	4642      	mov	r2, r8
10008534:	021b      	lsls	r3, r3, #8
10008536:	4313      	orrs	r3, r2
10008538:	227f      	movs	r2, #127	; 0x7f
1000853a:	616e      	str	r6, [r5, #20]
1000853c:	7821      	ldrb	r1, [r4, #0]
1000853e:	4820      	ldr	r0, [pc, #128]	; (100085c0 <capture+0x148>)
10008540:	400a      	ands	r2, r1
10008542:	0412      	lsls	r2, r2, #16
10008544:	4313      	orrs	r3, r2
10008546:	4698      	mov	r8, r3
10008548:	0022      	movs	r2, r4
1000854a:	2301      	movs	r3, #1
1000854c:	213c      	movs	r1, #60	; 0x3c
1000854e:	61ae      	str	r6, [r5, #24]
10008550:	f000 fcda 	bl	10008f08 <__spi_read_blocking_veneer>
10008554:	4643      	mov	r3, r8
10008556:	0022      	movs	r2, r4
10008558:	213c      	movs	r1, #60	; 0x3c
1000855a:	4819      	ldr	r0, [pc, #100]	; (100085c0 <capture+0x148>)
1000855c:	f000 fcd4 	bl	10008f08 <__spi_read_blocking_veneer>
10008560:	23c2      	movs	r3, #194	; 0xc2
10008562:	466a      	mov	r2, sp
10008564:	005b      	lsls	r3, r3, #1
10008566:	616e      	str	r6, [r5, #20]
10008568:	a901      	add	r1, sp, #4
1000856a:	8093      	strh	r3, [r2, #4]
1000856c:	4814      	ldr	r0, [pc, #80]	; (100085c0 <capture+0x148>)
1000856e:	2202      	movs	r2, #2
10008570:	61ae      	str	r6, [r5, #24]
10008572:	f000 fcf9 	bl	10008f68 <__spi_write_blocking_veneer>
10008576:	23a1      	movs	r3, #161	; 0xa1
10008578:	466a      	mov	r2, sp
1000857a:	009b      	lsls	r3, r3, #2
1000857c:	616e      	str	r6, [r5, #20]
1000857e:	a901      	add	r1, sp, #4
10008580:	8093      	strh	r3, [r2, #4]
10008582:	480f      	ldr	r0, [pc, #60]	; (100085c0 <capture+0x148>)
10008584:	61ae      	str	r6, [r5, #24]
10008586:	2202      	movs	r2, #2
10008588:	f000 fcee 	bl	10008f68 <__spi_write_blocking_veneer>
1000858c:	4643      	mov	r3, r8
1000858e:	3b08      	subs	r3, #8
10008590:	616e      	str	r6, [r5, #20]
10008592:	2b00      	cmp	r3, #0
10008594:	dd0a      	ble.n	100085ac <capture+0x134>
10008596:	2000      	movs	r0, #0
10008598:	2200      	movs	r2, #0
1000859a:	1c41      	adds	r1, r0, #1
1000859c:	5ca2      	ldrb	r2, [r4, r2]
1000859e:	b289      	uxth	r1, r1
100085a0:	543a      	strb	r2, [r7, r0]
100085a2:	004a      	lsls	r2, r1, #1
100085a4:	b292      	uxth	r2, r2
100085a6:	0008      	movs	r0, r1
100085a8:	429a      	cmp	r2, r3
100085aa:	dbf6      	blt.n	1000859a <capture+0x122>
100085ac:	4b05      	ldr	r3, [pc, #20]	; (100085c4 <capture+0x14c>)
100085ae:	449d      	add	sp, r3
100085b0:	bc1c      	pop	{r2, r3, r4}
100085b2:	4690      	mov	r8, r2
100085b4:	4699      	mov	r9, r3
100085b6:	46a2      	mov	sl, r4
100085b8:	bdf0      	pop	{r4, r5, r6, r7, pc}
100085ba:	46c0      	nop			; (mov r8, r8)
100085bc:	ffffb7f0 	.word	0xffffb7f0
100085c0:	4003c000 	.word	0x4003c000
100085c4:	00004810 	.word	0x00004810

100085c8 <_GLOBAL__sub_I__ZN9__gnu_cxx9__freeresEv>:
100085c8:	b570      	push	{r4, r5, r6, lr}
100085ca:	259e      	movs	r5, #158	; 0x9e
100085cc:	4c08      	ldr	r4, [pc, #32]	; (100085f0 <_GLOBAL__sub_I__ZN9__gnu_cxx9__freeresEv+0x28>)
100085ce:	012d      	lsls	r5, r5, #4
100085d0:	0028      	movs	r0, r5
100085d2:	60e5      	str	r5, [r4, #12]
100085d4:	f7fc ff02 	bl	100053dc <__wrap_malloc>
100085d8:	60a0      	str	r0, [r4, #8]
100085da:	2800      	cmp	r0, #0
100085dc:	d004      	beq.n	100085e8 <_GLOBAL__sub_I__ZN9__gnu_cxx9__freeresEv+0x20>
100085de:	2300      	movs	r3, #0
100085e0:	6060      	str	r0, [r4, #4]
100085e2:	6005      	str	r5, [r0, #0]
100085e4:	6043      	str	r3, [r0, #4]
100085e6:	bd70      	pop	{r4, r5, r6, pc}
100085e8:	60e0      	str	r0, [r4, #12]
100085ea:	6060      	str	r0, [r4, #4]
100085ec:	e7fb      	b.n	100085e6 <_GLOBAL__sub_I__ZN9__gnu_cxx9__freeresEv+0x1e>
100085ee:	46c0      	nop			; (mov r8, r8)
100085f0:	20000c74 	.word	0x20000c74

100085f4 <calloc>:
100085f4:	b510      	push	{r4, lr}
100085f6:	4b04      	ldr	r3, [pc, #16]	; (10008608 <calloc+0x14>)
100085f8:	000a      	movs	r2, r1
100085fa:	681b      	ldr	r3, [r3, #0]
100085fc:	0001      	movs	r1, r0
100085fe:	0018      	movs	r0, r3
10008600:	f000 f804 	bl	1000860c <_calloc_r>
10008604:	bd10      	pop	{r4, pc}
10008606:	46c0      	nop			; (mov r8, r8)
10008608:	200003b0 	.word	0x200003b0

1000860c <_calloc_r>:
1000860c:	b510      	push	{r4, lr}
1000860e:	4351      	muls	r1, r2
10008610:	f000 f83c 	bl	1000868c <_malloc_r>
10008614:	1e04      	subs	r4, r0, #0
10008616:	d01c      	beq.n	10008652 <_calloc_r+0x46>
10008618:	0003      	movs	r3, r0
1000861a:	3b08      	subs	r3, #8
1000861c:	685a      	ldr	r2, [r3, #4]
1000861e:	2303      	movs	r3, #3
10008620:	439a      	bics	r2, r3
10008622:	3a04      	subs	r2, #4
10008624:	2a24      	cmp	r2, #36	; 0x24
10008626:	d816      	bhi.n	10008656 <_calloc_r+0x4a>
10008628:	0003      	movs	r3, r0
1000862a:	2a13      	cmp	r2, #19
1000862c:	d90d      	bls.n	1000864a <_calloc_r+0x3e>
1000862e:	2100      	movs	r1, #0
10008630:	3308      	adds	r3, #8
10008632:	6001      	str	r1, [r0, #0]
10008634:	6041      	str	r1, [r0, #4]
10008636:	2a1b      	cmp	r2, #27
10008638:	d907      	bls.n	1000864a <_calloc_r+0x3e>
1000863a:	6081      	str	r1, [r0, #8]
1000863c:	60c1      	str	r1, [r0, #12]
1000863e:	2a24      	cmp	r2, #36	; 0x24
10008640:	d10d      	bne.n	1000865e <_calloc_r+0x52>
10008642:	0003      	movs	r3, r0
10008644:	6101      	str	r1, [r0, #16]
10008646:	3318      	adds	r3, #24
10008648:	6141      	str	r1, [r0, #20]
1000864a:	2200      	movs	r2, #0
1000864c:	601a      	str	r2, [r3, #0]
1000864e:	605a      	str	r2, [r3, #4]
10008650:	609a      	str	r2, [r3, #8]
10008652:	0020      	movs	r0, r4
10008654:	bd10      	pop	{r4, pc}
10008656:	2100      	movs	r1, #0
10008658:	f7fc fed0 	bl	100053fc <__wrap_memset>
1000865c:	e7f9      	b.n	10008652 <_calloc_r+0x46>
1000865e:	0003      	movs	r3, r0
10008660:	3310      	adds	r3, #16
10008662:	e7f2      	b.n	1000864a <_calloc_r+0x3e>

10008664 <malloc>:
10008664:	b510      	push	{r4, lr}
10008666:	4b03      	ldr	r3, [pc, #12]	; (10008674 <malloc+0x10>)
10008668:	0001      	movs	r1, r0
1000866a:	6818      	ldr	r0, [r3, #0]
1000866c:	f000 f80e 	bl	1000868c <_malloc_r>
10008670:	bd10      	pop	{r4, pc}
10008672:	46c0      	nop			; (mov r8, r8)
10008674:	200003b0 	.word	0x200003b0

10008678 <free>:
10008678:	b510      	push	{r4, lr}
1000867a:	4b03      	ldr	r3, [pc, #12]	; (10008688 <free+0x10>)
1000867c:	0001      	movs	r1, r0
1000867e:	6818      	ldr	r0, [r3, #0]
10008680:	f000 fb54 	bl	10008d2c <_free_r>
10008684:	bd10      	pop	{r4, pc}
10008686:	46c0      	nop			; (mov r8, r8)
10008688:	200003b0 	.word	0x200003b0

1000868c <_malloc_r>:
1000868c:	b5f0      	push	{r4, r5, r6, r7, lr}
1000868e:	4657      	mov	r7, sl
10008690:	4645      	mov	r5, r8
10008692:	46de      	mov	lr, fp
10008694:	464e      	mov	r6, r9
10008696:	b5e0      	push	{r5, r6, r7, lr}
10008698:	000d      	movs	r5, r1
1000869a:	350b      	adds	r5, #11
1000869c:	b083      	sub	sp, #12
1000869e:	0007      	movs	r7, r0
100086a0:	2d16      	cmp	r5, #22
100086a2:	d828      	bhi.n	100086f6 <_malloc_r+0x6a>
100086a4:	2910      	cmp	r1, #16
100086a6:	d900      	bls.n	100086aa <_malloc_r+0x1e>
100086a8:	e0c1      	b.n	1000882e <_malloc_r+0x1a2>
100086aa:	f000 faa7 	bl	10008bfc <__malloc_lock>
100086ae:	2510      	movs	r5, #16
100086b0:	2318      	movs	r3, #24
100086b2:	2002      	movs	r0, #2
100086b4:	4ece      	ldr	r6, [pc, #824]	; (100089f0 <_malloc_r+0x364>)
100086b6:	18f3      	adds	r3, r6, r3
100086b8:	001a      	movs	r2, r3
100086ba:	685c      	ldr	r4, [r3, #4]
100086bc:	3a08      	subs	r2, #8
100086be:	4294      	cmp	r4, r2
100086c0:	d100      	bne.n	100086c4 <_malloc_r+0x38>
100086c2:	e160      	b.n	10008986 <_malloc_r+0x2fa>
100086c4:	2303      	movs	r3, #3
100086c6:	6862      	ldr	r2, [r4, #4]
100086c8:	439a      	bics	r2, r3
100086ca:	0013      	movs	r3, r2
100086cc:	68e2      	ldr	r2, [r4, #12]
100086ce:	68a1      	ldr	r1, [r4, #8]
100086d0:	60ca      	str	r2, [r1, #12]
100086d2:	6091      	str	r1, [r2, #8]
100086d4:	2201      	movs	r2, #1
100086d6:	18e3      	adds	r3, r4, r3
100086d8:	6859      	ldr	r1, [r3, #4]
100086da:	0038      	movs	r0, r7
100086dc:	430a      	orrs	r2, r1
100086de:	605a      	str	r2, [r3, #4]
100086e0:	f000 fa8e 	bl	10008c00 <__malloc_unlock>
100086e4:	0020      	movs	r0, r4
100086e6:	3008      	adds	r0, #8
100086e8:	b003      	add	sp, #12
100086ea:	bc3c      	pop	{r2, r3, r4, r5}
100086ec:	4690      	mov	r8, r2
100086ee:	4699      	mov	r9, r3
100086f0:	46a2      	mov	sl, r4
100086f2:	46ab      	mov	fp, r5
100086f4:	bdf0      	pop	{r4, r5, r6, r7, pc}
100086f6:	2307      	movs	r3, #7
100086f8:	439d      	bics	r5, r3
100086fa:	d500      	bpl.n	100086fe <_malloc_r+0x72>
100086fc:	e097      	b.n	1000882e <_malloc_r+0x1a2>
100086fe:	42a9      	cmp	r1, r5
10008700:	d900      	bls.n	10008704 <_malloc_r+0x78>
10008702:	e094      	b.n	1000882e <_malloc_r+0x1a2>
10008704:	f000 fa7a 	bl	10008bfc <__malloc_lock>
10008708:	23f8      	movs	r3, #248	; 0xf8
1000870a:	33ff      	adds	r3, #255	; 0xff
1000870c:	429d      	cmp	r5, r3
1000870e:	d800      	bhi.n	10008712 <_malloc_r+0x86>
10008710:	e15e      	b.n	100089d0 <_malloc_r+0x344>
10008712:	0a68      	lsrs	r0, r5, #9
10008714:	d100      	bne.n	10008718 <_malloc_r+0x8c>
10008716:	e08e      	b.n	10008836 <_malloc_r+0x1aa>
10008718:	2804      	cmp	r0, #4
1000871a:	d900      	bls.n	1000871e <_malloc_r+0x92>
1000871c:	e139      	b.n	10008992 <_malloc_r+0x306>
1000871e:	2338      	movs	r3, #56	; 0x38
10008720:	4698      	mov	r8, r3
10008722:	09a8      	lsrs	r0, r5, #6
10008724:	4480      	add	r8, r0
10008726:	3039      	adds	r0, #57	; 0x39
10008728:	00c1      	lsls	r1, r0, #3
1000872a:	4eb1      	ldr	r6, [pc, #708]	; (100089f0 <_malloc_r+0x364>)
1000872c:	1871      	adds	r1, r6, r1
1000872e:	3908      	subs	r1, #8
10008730:	68cc      	ldr	r4, [r1, #12]
10008732:	42a1      	cmp	r1, r4
10008734:	d018      	beq.n	10008768 <_malloc_r+0xdc>
10008736:	2303      	movs	r3, #3
10008738:	6862      	ldr	r2, [r4, #4]
1000873a:	439a      	bics	r2, r3
1000873c:	0013      	movs	r3, r2
1000873e:	1b52      	subs	r2, r2, r5
10008740:	2a0f      	cmp	r2, #15
10008742:	dd00      	ble.n	10008746 <_malloc_r+0xba>
10008744:	e11d      	b.n	10008982 <_malloc_r+0x2f6>
10008746:	2a00      	cmp	r2, #0
10008748:	dac0      	bge.n	100086cc <_malloc_r+0x40>
1000874a:	2303      	movs	r3, #3
1000874c:	469c      	mov	ip, r3
1000874e:	e008      	b.n	10008762 <_malloc_r+0xd6>
10008750:	4662      	mov	r2, ip
10008752:	6863      	ldr	r3, [r4, #4]
10008754:	4393      	bics	r3, r2
10008756:	1b5a      	subs	r2, r3, r5
10008758:	2a0f      	cmp	r2, #15
1000875a:	dd00      	ble.n	1000875e <_malloc_r+0xd2>
1000875c:	e111      	b.n	10008982 <_malloc_r+0x2f6>
1000875e:	2a00      	cmp	r2, #0
10008760:	dab4      	bge.n	100086cc <_malloc_r+0x40>
10008762:	68e4      	ldr	r4, [r4, #12]
10008764:	42a1      	cmp	r1, r4
10008766:	d1f3      	bne.n	10008750 <_malloc_r+0xc4>
10008768:	0032      	movs	r2, r6
1000876a:	6934      	ldr	r4, [r6, #16]
1000876c:	3208      	adds	r2, #8
1000876e:	4294      	cmp	r4, r2
10008770:	d067      	beq.n	10008842 <_malloc_r+0x1b6>
10008772:	2303      	movs	r3, #3
10008774:	6861      	ldr	r1, [r4, #4]
10008776:	4399      	bics	r1, r3
10008778:	468a      	mov	sl, r1
1000877a:	000b      	movs	r3, r1
1000877c:	1b49      	subs	r1, r1, r5
1000877e:	290f      	cmp	r1, #15
10008780:	dd00      	ble.n	10008784 <_malloc_r+0xf8>
10008782:	e112      	b.n	100089aa <_malloc_r+0x31e>
10008784:	6172      	str	r2, [r6, #20]
10008786:	6132      	str	r2, [r6, #16]
10008788:	2900      	cmp	r1, #0
1000878a:	daa3      	bge.n	100086d4 <_malloc_r+0x48>
1000878c:	4a99      	ldr	r2, [pc, #612]	; (100089f4 <_malloc_r+0x368>)
1000878e:	4592      	cmp	sl, r2
10008790:	d900      	bls.n	10008794 <_malloc_r+0x108>
10008792:	e148      	b.n	10008a26 <_malloc_r+0x39a>
10008794:	08db      	lsrs	r3, r3, #3
10008796:	3aff      	subs	r2, #255	; 0xff
10008798:	1099      	asrs	r1, r3, #2
1000879a:	3aff      	subs	r2, #255	; 0xff
1000879c:	408a      	lsls	r2, r1
1000879e:	00db      	lsls	r3, r3, #3
100087a0:	6871      	ldr	r1, [r6, #4]
100087a2:	199b      	adds	r3, r3, r6
100087a4:	430a      	orrs	r2, r1
100087a6:	6899      	ldr	r1, [r3, #8]
100087a8:	6072      	str	r2, [r6, #4]
100087aa:	60e3      	str	r3, [r4, #12]
100087ac:	60a1      	str	r1, [r4, #8]
100087ae:	609c      	str	r4, [r3, #8]
100087b0:	60cc      	str	r4, [r1, #12]
100087b2:	2101      	movs	r1, #1
100087b4:	1083      	asrs	r3, r0, #2
100087b6:	4099      	lsls	r1, r3
100087b8:	4291      	cmp	r1, r2
100087ba:	d848      	bhi.n	1000884e <_malloc_r+0x1c2>
100087bc:	420a      	tst	r2, r1
100087be:	d105      	bne.n	100087cc <_malloc_r+0x140>
100087c0:	2303      	movs	r3, #3
100087c2:	4398      	bics	r0, r3
100087c4:	0049      	lsls	r1, r1, #1
100087c6:	3004      	adds	r0, #4
100087c8:	420a      	tst	r2, r1
100087ca:	d0fb      	beq.n	100087c4 <_malloc_r+0x138>
100087cc:	2303      	movs	r3, #3
100087ce:	4698      	mov	r8, r3
100087d0:	00c3      	lsls	r3, r0, #3
100087d2:	4699      	mov	r9, r3
100087d4:	44b1      	add	r9, r6
100087d6:	46cc      	mov	ip, r9
100087d8:	4682      	mov	sl, r0
100087da:	4663      	mov	r3, ip
100087dc:	68dc      	ldr	r4, [r3, #12]
100087de:	45a4      	cmp	ip, r4
100087e0:	d107      	bne.n	100087f2 <_malloc_r+0x166>
100087e2:	e0f9      	b.n	100089d8 <_malloc_r+0x34c>
100087e4:	2a00      	cmp	r2, #0
100087e6:	db00      	blt.n	100087ea <_malloc_r+0x15e>
100087e8:	e10e      	b.n	10008a08 <_malloc_r+0x37c>
100087ea:	68e4      	ldr	r4, [r4, #12]
100087ec:	45a4      	cmp	ip, r4
100087ee:	d100      	bne.n	100087f2 <_malloc_r+0x166>
100087f0:	e0f2      	b.n	100089d8 <_malloc_r+0x34c>
100087f2:	4642      	mov	r2, r8
100087f4:	6863      	ldr	r3, [r4, #4]
100087f6:	4393      	bics	r3, r2
100087f8:	1b5a      	subs	r2, r3, r5
100087fa:	2a0f      	cmp	r2, #15
100087fc:	ddf2      	ble.n	100087e4 <_malloc_r+0x158>
100087fe:	2001      	movs	r0, #1
10008800:	4680      	mov	r8, r0
10008802:	1961      	adds	r1, r4, r5
10008804:	4305      	orrs	r5, r0
10008806:	6065      	str	r5, [r4, #4]
10008808:	68a0      	ldr	r0, [r4, #8]
1000880a:	68e5      	ldr	r5, [r4, #12]
1000880c:	3608      	adds	r6, #8
1000880e:	60c5      	str	r5, [r0, #12]
10008810:	60a8      	str	r0, [r5, #8]
10008812:	4640      	mov	r0, r8
10008814:	60f1      	str	r1, [r6, #12]
10008816:	60b1      	str	r1, [r6, #8]
10008818:	4310      	orrs	r0, r2
1000881a:	6048      	str	r0, [r1, #4]
1000881c:	60ce      	str	r6, [r1, #12]
1000881e:	608e      	str	r6, [r1, #8]
10008820:	0038      	movs	r0, r7
10008822:	50e2      	str	r2, [r4, r3]
10008824:	f000 f9ec 	bl	10008c00 <__malloc_unlock>
10008828:	0020      	movs	r0, r4
1000882a:	3008      	adds	r0, #8
1000882c:	e75c      	b.n	100086e8 <_malloc_r+0x5c>
1000882e:	230c      	movs	r3, #12
10008830:	2000      	movs	r0, #0
10008832:	603b      	str	r3, [r7, #0]
10008834:	e758      	b.n	100086e8 <_malloc_r+0x5c>
10008836:	2180      	movs	r1, #128	; 0x80
10008838:	233f      	movs	r3, #63	; 0x3f
1000883a:	0089      	lsls	r1, r1, #2
1000883c:	2040      	movs	r0, #64	; 0x40
1000883e:	4698      	mov	r8, r3
10008840:	e773      	b.n	1000872a <_malloc_r+0x9e>
10008842:	2101      	movs	r1, #1
10008844:	6872      	ldr	r2, [r6, #4]
10008846:	1083      	asrs	r3, r0, #2
10008848:	4099      	lsls	r1, r3
1000884a:	4291      	cmp	r1, r2
1000884c:	d9b6      	bls.n	100087bc <_malloc_r+0x130>
1000884e:	2303      	movs	r3, #3
10008850:	68b4      	ldr	r4, [r6, #8]
10008852:	6862      	ldr	r2, [r4, #4]
10008854:	439a      	bics	r2, r3
10008856:	4690      	mov	r8, r2
10008858:	42aa      	cmp	r2, r5
1000885a:	d303      	bcc.n	10008864 <_malloc_r+0x1d8>
1000885c:	1b53      	subs	r3, r2, r5
1000885e:	2b0f      	cmp	r3, #15
10008860:	dd00      	ble.n	10008864 <_malloc_r+0x1d8>
10008862:	e080      	b.n	10008966 <_malloc_r+0x2da>
10008864:	4b64      	ldr	r3, [pc, #400]	; (100089f8 <_malloc_r+0x36c>)
10008866:	4a65      	ldr	r2, [pc, #404]	; (100089fc <_malloc_r+0x370>)
10008868:	469a      	mov	sl, r3
1000886a:	4693      	mov	fp, r2
1000886c:	681b      	ldr	r3, [r3, #0]
1000886e:	6812      	ldr	r2, [r2, #0]
10008870:	18eb      	adds	r3, r5, r3
10008872:	3201      	adds	r2, #1
10008874:	d100      	bne.n	10008878 <_malloc_r+0x1ec>
10008876:	e138      	b.n	10008aea <_malloc_r+0x45e>
10008878:	4a61      	ldr	r2, [pc, #388]	; (10008a00 <_malloc_r+0x374>)
1000887a:	4694      	mov	ip, r2
1000887c:	4463      	add	r3, ip
1000887e:	0b1b      	lsrs	r3, r3, #12
10008880:	031b      	lsls	r3, r3, #12
10008882:	9300      	str	r3, [sp, #0]
10008884:	9900      	ldr	r1, [sp, #0]
10008886:	0038      	movs	r0, r7
10008888:	f000 f9bc 	bl	10008c04 <_sbrk_r>
1000888c:	0003      	movs	r3, r0
1000888e:	4681      	mov	r9, r0
10008890:	3301      	adds	r3, #1
10008892:	d100      	bne.n	10008896 <_malloc_r+0x20a>
10008894:	e0f6      	b.n	10008a84 <_malloc_r+0x3f8>
10008896:	4643      	mov	r3, r8
10008898:	18e2      	adds	r2, r4, r3
1000889a:	4282      	cmp	r2, r0
1000889c:	d900      	bls.n	100088a0 <_malloc_r+0x214>
1000889e:	e0ef      	b.n	10008a80 <_malloc_r+0x3f4>
100088a0:	4651      	mov	r1, sl
100088a2:	6849      	ldr	r1, [r1, #4]
100088a4:	9b00      	ldr	r3, [sp, #0]
100088a6:	468c      	mov	ip, r1
100088a8:	4651      	mov	r1, sl
100088aa:	4463      	add	r3, ip
100088ac:	604b      	str	r3, [r1, #4]
100088ae:	4282      	cmp	r2, r0
100088b0:	d100      	bne.n	100088b4 <_malloc_r+0x228>
100088b2:	e14b      	b.n	10008b4c <_malloc_r+0x4c0>
100088b4:	4659      	mov	r1, fp
100088b6:	6809      	ldr	r1, [r1, #0]
100088b8:	3101      	adds	r1, #1
100088ba:	d100      	bne.n	100088be <_malloc_r+0x232>
100088bc:	e15d      	b.n	10008b7a <_malloc_r+0x4ee>
100088be:	4649      	mov	r1, r9
100088c0:	1a8a      	subs	r2, r1, r2
100088c2:	18d3      	adds	r3, r2, r3
100088c4:	4652      	mov	r2, sl
100088c6:	6053      	str	r3, [r2, #4]
100088c8:	2307      	movs	r3, #7
100088ca:	464a      	mov	r2, r9
100088cc:	401a      	ands	r2, r3
100088ce:	9201      	str	r2, [sp, #4]
100088d0:	d100      	bne.n	100088d4 <_malloc_r+0x248>
100088d2:	e120      	b.n	10008b16 <_malloc_r+0x48a>
100088d4:	2108      	movs	r1, #8
100088d6:	464b      	mov	r3, r9
100088d8:	4689      	mov	r9, r1
100088da:	1a9b      	subs	r3, r3, r2
100088dc:	4499      	add	r9, r3
100088de:	9900      	ldr	r1, [sp, #0]
100088e0:	4b48      	ldr	r3, [pc, #288]	; (10008a04 <_malloc_r+0x378>)
100088e2:	4449      	add	r1, r9
100088e4:	1a9b      	subs	r3, r3, r2
100088e6:	1a5b      	subs	r3, r3, r1
100088e8:	051b      	lsls	r3, r3, #20
100088ea:	0d1b      	lsrs	r3, r3, #20
100088ec:	9100      	str	r1, [sp, #0]
100088ee:	0038      	movs	r0, r7
100088f0:	0019      	movs	r1, r3
100088f2:	469b      	mov	fp, r3
100088f4:	f000 f986 	bl	10008c04 <_sbrk_r>
100088f8:	1c43      	adds	r3, r0, #1
100088fa:	d100      	bne.n	100088fe <_malloc_r+0x272>
100088fc:	e15a      	b.n	10008bb4 <_malloc_r+0x528>
100088fe:	4653      	mov	r3, sl
10008900:	4652      	mov	r2, sl
10008902:	685b      	ldr	r3, [r3, #4]
10008904:	4649      	mov	r1, r9
10008906:	445b      	add	r3, fp
10008908:	6053      	str	r3, [r2, #4]
1000890a:	464a      	mov	r2, r9
1000890c:	60b2      	str	r2, [r6, #8]
1000890e:	1a80      	subs	r0, r0, r2
10008910:	2201      	movs	r2, #1
10008912:	4458      	add	r0, fp
10008914:	4310      	orrs	r0, r2
10008916:	6048      	str	r0, [r1, #4]
10008918:	42b4      	cmp	r4, r6
1000891a:	d011      	beq.n	10008940 <_malloc_r+0x2b4>
1000891c:	4641      	mov	r1, r8
1000891e:	290f      	cmp	r1, #15
10008920:	d800      	bhi.n	10008924 <_malloc_r+0x298>
10008922:	e127      	b.n	10008b74 <_malloc_r+0x4e8>
10008924:	2007      	movs	r0, #7
10008926:	390c      	subs	r1, #12
10008928:	4381      	bics	r1, r0
1000892a:	6860      	ldr	r0, [r4, #4]
1000892c:	4002      	ands	r2, r0
1000892e:	2005      	movs	r0, #5
10008930:	430a      	orrs	r2, r1
10008932:	6062      	str	r2, [r4, #4]
10008934:	1862      	adds	r2, r4, r1
10008936:	6050      	str	r0, [r2, #4]
10008938:	6090      	str	r0, [r2, #8]
1000893a:	290f      	cmp	r1, #15
1000893c:	d900      	bls.n	10008940 <_malloc_r+0x2b4>
1000893e:	e141      	b.n	10008bc4 <_malloc_r+0x538>
10008940:	4652      	mov	r2, sl
10008942:	6ad2      	ldr	r2, [r2, #44]	; 0x2c
10008944:	4293      	cmp	r3, r2
10008946:	d901      	bls.n	1000894c <_malloc_r+0x2c0>
10008948:	4652      	mov	r2, sl
1000894a:	62d3      	str	r3, [r2, #44]	; 0x2c
1000894c:	2203      	movs	r2, #3
1000894e:	68b4      	ldr	r4, [r6, #8]
10008950:	6861      	ldr	r1, [r4, #4]
10008952:	4391      	bics	r1, r2
10008954:	000a      	movs	r2, r1
10008956:	4651      	mov	r1, sl
10008958:	6b09      	ldr	r1, [r1, #48]	; 0x30
1000895a:	428b      	cmp	r3, r1
1000895c:	d800      	bhi.n	10008960 <_malloc_r+0x2d4>
1000895e:	e095      	b.n	10008a8c <_malloc_r+0x400>
10008960:	4651      	mov	r1, sl
10008962:	630b      	str	r3, [r1, #48]	; 0x30
10008964:	e092      	b.n	10008a8c <_malloc_r+0x400>
10008966:	2201      	movs	r2, #1
10008968:	0029      	movs	r1, r5
1000896a:	4313      	orrs	r3, r2
1000896c:	4311      	orrs	r1, r2
1000896e:	1965      	adds	r5, r4, r5
10008970:	6061      	str	r1, [r4, #4]
10008972:	0038      	movs	r0, r7
10008974:	60b5      	str	r5, [r6, #8]
10008976:	606b      	str	r3, [r5, #4]
10008978:	f000 f942 	bl	10008c00 <__malloc_unlock>
1000897c:	0020      	movs	r0, r4
1000897e:	3008      	adds	r0, #8
10008980:	e6b2      	b.n	100086e8 <_malloc_r+0x5c>
10008982:	4640      	mov	r0, r8
10008984:	e6f0      	b.n	10008768 <_malloc_r+0xdc>
10008986:	68dc      	ldr	r4, [r3, #12]
10008988:	3002      	adds	r0, #2
1000898a:	42a3      	cmp	r3, r4
1000898c:	d100      	bne.n	10008990 <_malloc_r+0x304>
1000898e:	e6eb      	b.n	10008768 <_malloc_r+0xdc>
10008990:	e698      	b.n	100086c4 <_malloc_r+0x38>
10008992:	2814      	cmp	r0, #20
10008994:	d96e      	bls.n	10008a74 <_malloc_r+0x3e8>
10008996:	2854      	cmp	r0, #84	; 0x54
10008998:	d900      	bls.n	1000899c <_malloc_r+0x310>
1000899a:	e0a9      	b.n	10008af0 <_malloc_r+0x464>
1000899c:	236e      	movs	r3, #110	; 0x6e
1000899e:	4698      	mov	r8, r3
100089a0:	0b28      	lsrs	r0, r5, #12
100089a2:	4480      	add	r8, r0
100089a4:	306f      	adds	r0, #111	; 0x6f
100089a6:	00c1      	lsls	r1, r0, #3
100089a8:	e6bf      	b.n	1000872a <_malloc_r+0x9e>
100089aa:	2301      	movs	r3, #1
100089ac:	1960      	adds	r0, r4, r5
100089ae:	431d      	orrs	r5, r3
100089b0:	6065      	str	r5, [r4, #4]
100089b2:	6170      	str	r0, [r6, #20]
100089b4:	6130      	str	r0, [r6, #16]
100089b6:	60c2      	str	r2, [r0, #12]
100089b8:	6082      	str	r2, [r0, #8]
100089ba:	001a      	movs	r2, r3
100089bc:	4653      	mov	r3, sl
100089be:	430a      	orrs	r2, r1
100089c0:	6042      	str	r2, [r0, #4]
100089c2:	0038      	movs	r0, r7
100089c4:	50e1      	str	r1, [r4, r3]
100089c6:	f000 f91b 	bl	10008c00 <__malloc_unlock>
100089ca:	0020      	movs	r0, r4
100089cc:	3008      	adds	r0, #8
100089ce:	e68b      	b.n	100086e8 <_malloc_r+0x5c>
100089d0:	002b      	movs	r3, r5
100089d2:	08e8      	lsrs	r0, r5, #3
100089d4:	3308      	adds	r3, #8
100089d6:	e66d      	b.n	100086b4 <_malloc_r+0x28>
100089d8:	2308      	movs	r3, #8
100089da:	469b      	mov	fp, r3
100089dc:	3b07      	subs	r3, #7
100089de:	44dc      	add	ip, fp
100089e0:	469b      	mov	fp, r3
100089e2:	44da      	add	sl, fp
100089e4:	4643      	mov	r3, r8
100089e6:	4652      	mov	r2, sl
100089e8:	4213      	tst	r3, r2
100089ea:	d000      	beq.n	100089ee <_malloc_r+0x362>
100089ec:	e6f5      	b.n	100087da <_malloc_r+0x14e>
100089ee:	e067      	b.n	10008ac0 <_malloc_r+0x434>
100089f0:	200007e8 	.word	0x200007e8
100089f4:	000001ff 	.word	0x000001ff
100089f8:	20000c34 	.word	0x20000c34
100089fc:	200007e0 	.word	0x200007e0
10008a00:	0000100f 	.word	0x0000100f
10008a04:	00001008 	.word	0x00001008
10008a08:	2201      	movs	r2, #1
10008a0a:	18e3      	adds	r3, r4, r3
10008a0c:	6859      	ldr	r1, [r3, #4]
10008a0e:	0038      	movs	r0, r7
10008a10:	430a      	orrs	r2, r1
10008a12:	605a      	str	r2, [r3, #4]
10008a14:	68e3      	ldr	r3, [r4, #12]
10008a16:	68a2      	ldr	r2, [r4, #8]
10008a18:	60d3      	str	r3, [r2, #12]
10008a1a:	609a      	str	r2, [r3, #8]
10008a1c:	f000 f8f0 	bl	10008c00 <__malloc_unlock>
10008a20:	0020      	movs	r0, r4
10008a22:	3008      	adds	r0, #8
10008a24:	e660      	b.n	100086e8 <_malloc_r+0x5c>
10008a26:	0a5a      	lsrs	r2, r3, #9
10008a28:	2a04      	cmp	r2, #4
10008a2a:	d93a      	bls.n	10008aa2 <_malloc_r+0x416>
10008a2c:	2a14      	cmp	r2, #20
10008a2e:	d900      	bls.n	10008a32 <_malloc_r+0x3a6>
10008a30:	e083      	b.n	10008b3a <_malloc_r+0x4ae>
10008a32:	235b      	movs	r3, #91	; 0x5b
10008a34:	4698      	mov	r8, r3
10008a36:	4490      	add	r8, r2
10008a38:	325c      	adds	r2, #92	; 0x5c
10008a3a:	00d2      	lsls	r2, r2, #3
10008a3c:	2308      	movs	r3, #8
10008a3e:	425b      	negs	r3, r3
10008a40:	469c      	mov	ip, r3
10008a42:	18b2      	adds	r2, r6, r2
10008a44:	4494      	add	ip, r2
10008a46:	4663      	mov	r3, ip
10008a48:	6899      	ldr	r1, [r3, #8]
10008a4a:	2303      	movs	r3, #3
10008a4c:	4699      	mov	r9, r3
10008a4e:	458c      	cmp	ip, r1
10008a50:	d059      	beq.n	10008b06 <_malloc_r+0x47a>
10008a52:	464b      	mov	r3, r9
10008a54:	684a      	ldr	r2, [r1, #4]
10008a56:	439a      	bics	r2, r3
10008a58:	4552      	cmp	r2, sl
10008a5a:	d902      	bls.n	10008a62 <_malloc_r+0x3d6>
10008a5c:	6889      	ldr	r1, [r1, #8]
10008a5e:	458c      	cmp	ip, r1
10008a60:	d1f7      	bne.n	10008a52 <_malloc_r+0x3c6>
10008a62:	68cb      	ldr	r3, [r1, #12]
10008a64:	6872      	ldr	r2, [r6, #4]
10008a66:	469c      	mov	ip, r3
10008a68:	4663      	mov	r3, ip
10008a6a:	60a1      	str	r1, [r4, #8]
10008a6c:	60e3      	str	r3, [r4, #12]
10008a6e:	609c      	str	r4, [r3, #8]
10008a70:	60cc      	str	r4, [r1, #12]
10008a72:	e69e      	b.n	100087b2 <_malloc_r+0x126>
10008a74:	235b      	movs	r3, #91	; 0x5b
10008a76:	4698      	mov	r8, r3
10008a78:	4480      	add	r8, r0
10008a7a:	305c      	adds	r0, #92	; 0x5c
10008a7c:	00c1      	lsls	r1, r0, #3
10008a7e:	e654      	b.n	1000872a <_malloc_r+0x9e>
10008a80:	42b4      	cmp	r4, r6
10008a82:	d07e      	beq.n	10008b82 <_malloc_r+0x4f6>
10008a84:	2303      	movs	r3, #3
10008a86:	68b4      	ldr	r4, [r6, #8]
10008a88:	6862      	ldr	r2, [r4, #4]
10008a8a:	439a      	bics	r2, r3
10008a8c:	1b53      	subs	r3, r2, r5
10008a8e:	4295      	cmp	r5, r2
10008a90:	d802      	bhi.n	10008a98 <_malloc_r+0x40c>
10008a92:	2b0f      	cmp	r3, #15
10008a94:	dd00      	ble.n	10008a98 <_malloc_r+0x40c>
10008a96:	e766      	b.n	10008966 <_malloc_r+0x2da>
10008a98:	0038      	movs	r0, r7
10008a9a:	f000 f8b1 	bl	10008c00 <__malloc_unlock>
10008a9e:	2000      	movs	r0, #0
10008aa0:	e622      	b.n	100086e8 <_malloc_r+0x5c>
10008aa2:	099a      	lsrs	r2, r3, #6
10008aa4:	2338      	movs	r3, #56	; 0x38
10008aa6:	4698      	mov	r8, r3
10008aa8:	4490      	add	r8, r2
10008aaa:	3239      	adds	r2, #57	; 0x39
10008aac:	00d2      	lsls	r2, r2, #3
10008aae:	e7c5      	b.n	10008a3c <_malloc_r+0x3b0>
10008ab0:	464b      	mov	r3, r9
10008ab2:	681a      	ldr	r2, [r3, #0]
10008ab4:	3b08      	subs	r3, #8
10008ab6:	3801      	subs	r0, #1
10008ab8:	4691      	mov	r9, r2
10008aba:	429a      	cmp	r2, r3
10008abc:	d000      	beq.n	10008ac0 <_malloc_r+0x434>
10008abe:	e098      	b.n	10008bf2 <_malloc_r+0x566>
10008ac0:	4643      	mov	r3, r8
10008ac2:	4203      	tst	r3, r0
10008ac4:	d1f4      	bne.n	10008ab0 <_malloc_r+0x424>
10008ac6:	6873      	ldr	r3, [r6, #4]
10008ac8:	438b      	bics	r3, r1
10008aca:	6073      	str	r3, [r6, #4]
10008acc:	0049      	lsls	r1, r1, #1
10008ace:	4299      	cmp	r1, r3
10008ad0:	d900      	bls.n	10008ad4 <_malloc_r+0x448>
10008ad2:	e6bc      	b.n	1000884e <_malloc_r+0x1c2>
10008ad4:	2900      	cmp	r1, #0
10008ad6:	d104      	bne.n	10008ae2 <_malloc_r+0x456>
10008ad8:	e6b9      	b.n	1000884e <_malloc_r+0x1c2>
10008ada:	2204      	movs	r2, #4
10008adc:	4694      	mov	ip, r2
10008ade:	0049      	lsls	r1, r1, #1
10008ae0:	44e2      	add	sl, ip
10008ae2:	420b      	tst	r3, r1
10008ae4:	d0f9      	beq.n	10008ada <_malloc_r+0x44e>
10008ae6:	4650      	mov	r0, sl
10008ae8:	e672      	b.n	100087d0 <_malloc_r+0x144>
10008aea:	3310      	adds	r3, #16
10008aec:	9300      	str	r3, [sp, #0]
10008aee:	e6c9      	b.n	10008884 <_malloc_r+0x1f8>
10008af0:	23aa      	movs	r3, #170	; 0xaa
10008af2:	005b      	lsls	r3, r3, #1
10008af4:	4298      	cmp	r0, r3
10008af6:	d833      	bhi.n	10008b60 <_malloc_r+0x4d4>
10008af8:	3bdd      	subs	r3, #221	; 0xdd
10008afa:	4698      	mov	r8, r3
10008afc:	0be8      	lsrs	r0, r5, #15
10008afe:	4480      	add	r8, r0
10008b00:	3078      	adds	r0, #120	; 0x78
10008b02:	00c1      	lsls	r1, r0, #3
10008b04:	e611      	b.n	1000872a <_malloc_r+0x9e>
10008b06:	4643      	mov	r3, r8
10008b08:	2201      	movs	r2, #1
10008b0a:	109b      	asrs	r3, r3, #2
10008b0c:	409a      	lsls	r2, r3
10008b0e:	6873      	ldr	r3, [r6, #4]
10008b10:	431a      	orrs	r2, r3
10008b12:	6072      	str	r2, [r6, #4]
10008b14:	e7a8      	b.n	10008a68 <_malloc_r+0x3dc>
10008b16:	9b00      	ldr	r3, [sp, #0]
10008b18:	0038      	movs	r0, r7
10008b1a:	444b      	add	r3, r9
10008b1c:	9300      	str	r3, [sp, #0]
10008b1e:	051b      	lsls	r3, r3, #20
10008b20:	425b      	negs	r3, r3
10008b22:	0d1b      	lsrs	r3, r3, #20
10008b24:	0019      	movs	r1, r3
10008b26:	469b      	mov	fp, r3
10008b28:	f000 f86c 	bl	10008c04 <_sbrk_r>
10008b2c:	1c43      	adds	r3, r0, #1
10008b2e:	d000      	beq.n	10008b32 <_malloc_r+0x4a6>
10008b30:	e6e5      	b.n	100088fe <_malloc_r+0x272>
10008b32:	2300      	movs	r3, #0
10008b34:	9800      	ldr	r0, [sp, #0]
10008b36:	469b      	mov	fp, r3
10008b38:	e6e1      	b.n	100088fe <_malloc_r+0x272>
10008b3a:	2a54      	cmp	r2, #84	; 0x54
10008b3c:	d829      	bhi.n	10008b92 <_malloc_r+0x506>
10008b3e:	0b1a      	lsrs	r2, r3, #12
10008b40:	236e      	movs	r3, #110	; 0x6e
10008b42:	4698      	mov	r8, r3
10008b44:	4490      	add	r8, r2
10008b46:	326f      	adds	r2, #111	; 0x6f
10008b48:	00d2      	lsls	r2, r2, #3
10008b4a:	e777      	b.n	10008a3c <_malloc_r+0x3b0>
10008b4c:	0511      	lsls	r1, r2, #20
10008b4e:	d000      	beq.n	10008b52 <_malloc_r+0x4c6>
10008b50:	e6b0      	b.n	100088b4 <_malloc_r+0x228>
10008b52:	2001      	movs	r0, #1
10008b54:	9a00      	ldr	r2, [sp, #0]
10008b56:	68b1      	ldr	r1, [r6, #8]
10008b58:	4442      	add	r2, r8
10008b5a:	4302      	orrs	r2, r0
10008b5c:	604a      	str	r2, [r1, #4]
10008b5e:	e6ef      	b.n	10008940 <_malloc_r+0x2b4>
10008b60:	4b25      	ldr	r3, [pc, #148]	; (10008bf8 <_malloc_r+0x56c>)
10008b62:	4298      	cmp	r0, r3
10008b64:	d820      	bhi.n	10008ba8 <_malloc_r+0x51c>
10008b66:	237c      	movs	r3, #124	; 0x7c
10008b68:	4698      	mov	r8, r3
10008b6a:	0ca8      	lsrs	r0, r5, #18
10008b6c:	4480      	add	r8, r0
10008b6e:	307d      	adds	r0, #125	; 0x7d
10008b70:	00c1      	lsls	r1, r0, #3
10008b72:	e5da      	b.n	1000872a <_malloc_r+0x9e>
10008b74:	464b      	mov	r3, r9
10008b76:	605a      	str	r2, [r3, #4]
10008b78:	e78e      	b.n	10008a98 <_malloc_r+0x40c>
10008b7a:	465b      	mov	r3, fp
10008b7c:	464a      	mov	r2, r9
10008b7e:	601a      	str	r2, [r3, #0]
10008b80:	e6a2      	b.n	100088c8 <_malloc_r+0x23c>
10008b82:	4651      	mov	r1, sl
10008b84:	6849      	ldr	r1, [r1, #4]
10008b86:	9b00      	ldr	r3, [sp, #0]
10008b88:	468c      	mov	ip, r1
10008b8a:	4651      	mov	r1, sl
10008b8c:	4463      	add	r3, ip
10008b8e:	604b      	str	r3, [r1, #4]
10008b90:	e690      	b.n	100088b4 <_malloc_r+0x228>
10008b92:	21aa      	movs	r1, #170	; 0xaa
10008b94:	0049      	lsls	r1, r1, #1
10008b96:	428a      	cmp	r2, r1
10008b98:	d81c      	bhi.n	10008bd4 <_malloc_r+0x548>
10008b9a:	0bda      	lsrs	r2, r3, #15
10008b9c:	2377      	movs	r3, #119	; 0x77
10008b9e:	4698      	mov	r8, r3
10008ba0:	4490      	add	r8, r2
10008ba2:	3278      	adds	r2, #120	; 0x78
10008ba4:	00d2      	lsls	r2, r2, #3
10008ba6:	e749      	b.n	10008a3c <_malloc_r+0x3b0>
10008ba8:	21fe      	movs	r1, #254	; 0xfe
10008baa:	237e      	movs	r3, #126	; 0x7e
10008bac:	0089      	lsls	r1, r1, #2
10008bae:	207f      	movs	r0, #127	; 0x7f
10008bb0:	4698      	mov	r8, r3
10008bb2:	e5ba      	b.n	1000872a <_malloc_r+0x9e>
10008bb4:	9b00      	ldr	r3, [sp, #0]
10008bb6:	9801      	ldr	r0, [sp, #4]
10008bb8:	469c      	mov	ip, r3
10008bba:	2300      	movs	r3, #0
10008bbc:	3808      	subs	r0, #8
10008bbe:	4460      	add	r0, ip
10008bc0:	469b      	mov	fp, r3
10008bc2:	e69c      	b.n	100088fe <_malloc_r+0x272>
10008bc4:	0021      	movs	r1, r4
10008bc6:	0038      	movs	r0, r7
10008bc8:	3108      	adds	r1, #8
10008bca:	f000 f8af 	bl	10008d2c <_free_r>
10008bce:	4653      	mov	r3, sl
10008bd0:	685b      	ldr	r3, [r3, #4]
10008bd2:	e6b5      	b.n	10008940 <_malloc_r+0x2b4>
10008bd4:	4908      	ldr	r1, [pc, #32]	; (10008bf8 <_malloc_r+0x56c>)
10008bd6:	428a      	cmp	r2, r1
10008bd8:	d806      	bhi.n	10008be8 <_malloc_r+0x55c>
10008bda:	0c9a      	lsrs	r2, r3, #18
10008bdc:	237c      	movs	r3, #124	; 0x7c
10008bde:	4698      	mov	r8, r3
10008be0:	4490      	add	r8, r2
10008be2:	327d      	adds	r2, #125	; 0x7d
10008be4:	00d2      	lsls	r2, r2, #3
10008be6:	e729      	b.n	10008a3c <_malloc_r+0x3b0>
10008be8:	22fe      	movs	r2, #254	; 0xfe
10008bea:	237e      	movs	r3, #126	; 0x7e
10008bec:	0092      	lsls	r2, r2, #2
10008bee:	4698      	mov	r8, r3
10008bf0:	e724      	b.n	10008a3c <_malloc_r+0x3b0>
10008bf2:	6873      	ldr	r3, [r6, #4]
10008bf4:	e76a      	b.n	10008acc <_malloc_r+0x440>
10008bf6:	46c0      	nop			; (mov r8, r8)
10008bf8:	00000554 	.word	0x00000554

10008bfc <__malloc_lock>:
10008bfc:	4770      	bx	lr
10008bfe:	46c0      	nop			; (mov r8, r8)

10008c00 <__malloc_unlock>:
10008c00:	4770      	bx	lr
10008c02:	46c0      	nop			; (mov r8, r8)

10008c04 <_sbrk_r>:
10008c04:	2300      	movs	r3, #0
10008c06:	b570      	push	{r4, r5, r6, lr}
10008c08:	4c06      	ldr	r4, [pc, #24]	; (10008c24 <_sbrk_r+0x20>)
10008c0a:	0005      	movs	r5, r0
10008c0c:	0008      	movs	r0, r1
10008c0e:	6023      	str	r3, [r4, #0]
10008c10:	f7f9 fa00 	bl	10002014 <_sbrk>
10008c14:	1c43      	adds	r3, r0, #1
10008c16:	d000      	beq.n	10008c1a <_sbrk_r+0x16>
10008c18:	bd70      	pop	{r4, r5, r6, pc}
10008c1a:	6823      	ldr	r3, [r4, #0]
10008c1c:	2b00      	cmp	r3, #0
10008c1e:	d0fb      	beq.n	10008c18 <_sbrk_r+0x14>
10008c20:	602b      	str	r3, [r5, #0]
10008c22:	e7f9      	b.n	10008c18 <_sbrk_r+0x14>
10008c24:	200019e8 	.word	0x200019e8

10008c28 <strlen>:
10008c28:	b510      	push	{r4, lr}
10008c2a:	0004      	movs	r4, r0
10008c2c:	0783      	lsls	r3, r0, #30
10008c2e:	d00a      	beq.n	10008c46 <strlen+0x1e>
10008c30:	7803      	ldrb	r3, [r0, #0]
10008c32:	2b00      	cmp	r3, #0
10008c34:	d023      	beq.n	10008c7e <strlen+0x56>
10008c36:	2203      	movs	r2, #3
10008c38:	e002      	b.n	10008c40 <strlen+0x18>
10008c3a:	7803      	ldrb	r3, [r0, #0]
10008c3c:	2b00      	cmp	r3, #0
10008c3e:	d01c      	beq.n	10008c7a <strlen+0x52>
10008c40:	3001      	adds	r0, #1
10008c42:	4210      	tst	r0, r2
10008c44:	d1f9      	bne.n	10008c3a <strlen+0x12>
10008c46:	6802      	ldr	r2, [r0, #0]
10008c48:	4b0e      	ldr	r3, [pc, #56]	; (10008c84 <strlen+0x5c>)
10008c4a:	490f      	ldr	r1, [pc, #60]	; (10008c88 <strlen+0x60>)
10008c4c:	18d3      	adds	r3, r2, r3
10008c4e:	4393      	bics	r3, r2
10008c50:	420b      	tst	r3, r1
10008c52:	d10f      	bne.n	10008c74 <strlen+0x4c>
10008c54:	3004      	adds	r0, #4
10008c56:	6802      	ldr	r2, [r0, #0]
10008c58:	4b0a      	ldr	r3, [pc, #40]	; (10008c84 <strlen+0x5c>)
10008c5a:	18d3      	adds	r3, r2, r3
10008c5c:	4393      	bics	r3, r2
10008c5e:	420b      	tst	r3, r1
10008c60:	d108      	bne.n	10008c74 <strlen+0x4c>
10008c62:	3004      	adds	r0, #4
10008c64:	6802      	ldr	r2, [r0, #0]
10008c66:	4b07      	ldr	r3, [pc, #28]	; (10008c84 <strlen+0x5c>)
10008c68:	18d3      	adds	r3, r2, r3
10008c6a:	4393      	bics	r3, r2
10008c6c:	420b      	tst	r3, r1
10008c6e:	d0f1      	beq.n	10008c54 <strlen+0x2c>
10008c70:	e000      	b.n	10008c74 <strlen+0x4c>
10008c72:	3001      	adds	r0, #1
10008c74:	7803      	ldrb	r3, [r0, #0]
10008c76:	2b00      	cmp	r3, #0
10008c78:	d1fb      	bne.n	10008c72 <strlen+0x4a>
10008c7a:	1b00      	subs	r0, r0, r4
10008c7c:	bd10      	pop	{r4, pc}
10008c7e:	2000      	movs	r0, #0
10008c80:	e7fc      	b.n	10008c7c <strlen+0x54>
10008c82:	46c0      	nop			; (mov r8, r8)
10008c84:	fefefeff 	.word	0xfefefeff
10008c88:	80808080 	.word	0x80808080

10008c8c <_malloc_trim_r>:
10008c8c:	b5f8      	push	{r3, r4, r5, r6, r7, lr}
10008c8e:	000c      	movs	r4, r1
10008c90:	0006      	movs	r6, r0
10008c92:	f7ff ffb3 	bl	10008bfc <__malloc_lock>
10008c96:	4f20      	ldr	r7, [pc, #128]	; (10008d18 <_malloc_trim_r+0x8c>)
10008c98:	68bb      	ldr	r3, [r7, #8]
10008c9a:	685d      	ldr	r5, [r3, #4]
10008c9c:	2303      	movs	r3, #3
10008c9e:	439d      	bics	r5, r3
10008ca0:	4b1e      	ldr	r3, [pc, #120]	; (10008d1c <_malloc_trim_r+0x90>)
10008ca2:	1b2c      	subs	r4, r5, r4
10008ca4:	469c      	mov	ip, r3
10008ca6:	4464      	add	r4, ip
10008ca8:	0b24      	lsrs	r4, r4, #12
10008caa:	4b1d      	ldr	r3, [pc, #116]	; (10008d20 <_malloc_trim_r+0x94>)
10008cac:	3c01      	subs	r4, #1
10008cae:	0324      	lsls	r4, r4, #12
10008cb0:	429c      	cmp	r4, r3
10008cb2:	dd07      	ble.n	10008cc4 <_malloc_trim_r+0x38>
10008cb4:	2100      	movs	r1, #0
10008cb6:	0030      	movs	r0, r6
10008cb8:	f7ff ffa4 	bl	10008c04 <_sbrk_r>
10008cbc:	68bb      	ldr	r3, [r7, #8]
10008cbe:	195b      	adds	r3, r3, r5
10008cc0:	4298      	cmp	r0, r3
10008cc2:	d004      	beq.n	10008cce <_malloc_trim_r+0x42>
10008cc4:	0030      	movs	r0, r6
10008cc6:	f7ff ff9b 	bl	10008c00 <__malloc_unlock>
10008cca:	2000      	movs	r0, #0
10008ccc:	bdf8      	pop	{r3, r4, r5, r6, r7, pc}
10008cce:	4261      	negs	r1, r4
10008cd0:	0030      	movs	r0, r6
10008cd2:	f7ff ff97 	bl	10008c04 <_sbrk_r>
10008cd6:	1c43      	adds	r3, r0, #1
10008cd8:	d00d      	beq.n	10008cf6 <_malloc_trim_r+0x6a>
10008cda:	2201      	movs	r2, #1
10008cdc:	68bb      	ldr	r3, [r7, #8]
10008cde:	1b2d      	subs	r5, r5, r4
10008ce0:	4315      	orrs	r5, r2
10008ce2:	605d      	str	r5, [r3, #4]
10008ce4:	4b0f      	ldr	r3, [pc, #60]	; (10008d24 <_malloc_trim_r+0x98>)
10008ce6:	0030      	movs	r0, r6
10008ce8:	681a      	ldr	r2, [r3, #0]
10008cea:	1b14      	subs	r4, r2, r4
10008cec:	601c      	str	r4, [r3, #0]
10008cee:	f7ff ff87 	bl	10008c00 <__malloc_unlock>
10008cf2:	2001      	movs	r0, #1
10008cf4:	e7ea      	b.n	10008ccc <_malloc_trim_r+0x40>
10008cf6:	2100      	movs	r1, #0
10008cf8:	0030      	movs	r0, r6
10008cfa:	f7ff ff83 	bl	10008c04 <_sbrk_r>
10008cfe:	68ba      	ldr	r2, [r7, #8]
10008d00:	1a83      	subs	r3, r0, r2
10008d02:	2b0f      	cmp	r3, #15
10008d04:	ddde      	ble.n	10008cc4 <_malloc_trim_r+0x38>
10008d06:	4908      	ldr	r1, [pc, #32]	; (10008d28 <_malloc_trim_r+0x9c>)
10008d08:	6809      	ldr	r1, [r1, #0]
10008d0a:	1a40      	subs	r0, r0, r1
10008d0c:	4905      	ldr	r1, [pc, #20]	; (10008d24 <_malloc_trim_r+0x98>)
10008d0e:	6008      	str	r0, [r1, #0]
10008d10:	2101      	movs	r1, #1
10008d12:	430b      	orrs	r3, r1
10008d14:	6053      	str	r3, [r2, #4]
10008d16:	e7d5      	b.n	10008cc4 <_malloc_trim_r+0x38>
10008d18:	200007e8 	.word	0x200007e8
10008d1c:	00000fef 	.word	0x00000fef
10008d20:	00000fff 	.word	0x00000fff
10008d24:	20000c38 	.word	0x20000c38
10008d28:	200007e0 	.word	0x200007e0

10008d2c <_free_r>:
10008d2c:	b5f8      	push	{r3, r4, r5, r6, r7, lr}
10008d2e:	46ce      	mov	lr, r9
10008d30:	4647      	mov	r7, r8
10008d32:	0005      	movs	r5, r0
10008d34:	b580      	push	{r7, lr}
10008d36:	1e0c      	subs	r4, r1, #0
10008d38:	d055      	beq.n	10008de6 <_free_r+0xba>
10008d3a:	f7ff ff5f 	bl	10008bfc <__malloc_lock>
10008d3e:	0021      	movs	r1, r4
10008d40:	3908      	subs	r1, #8
10008d42:	684f      	ldr	r7, [r1, #4]
10008d44:	2401      	movs	r4, #1
10008d46:	0038      	movs	r0, r7
10008d48:	2303      	movs	r3, #3
10008d4a:	43a0      	bics	r0, r4
10008d4c:	180a      	adds	r2, r1, r0
10008d4e:	6856      	ldr	r6, [r2, #4]
10008d50:	439e      	bics	r6, r3
10008d52:	46b1      	mov	r9, r6
10008d54:	4e64      	ldr	r6, [pc, #400]	; (10008ee8 <_free_r+0x1bc>)
10008d56:	68b3      	ldr	r3, [r6, #8]
10008d58:	4293      	cmp	r3, r2
10008d5a:	d029      	beq.n	10008db0 <_free_r+0x84>
10008d5c:	464b      	mov	r3, r9
10008d5e:	6053      	str	r3, [r2, #4]
10008d60:	18d3      	adds	r3, r2, r3
10008d62:	469c      	mov	ip, r3
10008d64:	423c      	tst	r4, r7
10008d66:	d142      	bne.n	10008dee <_free_r+0xc2>
10008d68:	680f      	ldr	r7, [r1, #0]
10008d6a:	1bc9      	subs	r1, r1, r7
10008d6c:	688b      	ldr	r3, [r1, #8]
10008d6e:	19c0      	adds	r0, r0, r7
10008d70:	4698      	mov	r8, r3
10008d72:	4663      	mov	r3, ip
10008d74:	685f      	ldr	r7, [r3, #4]
10008d76:	2308      	movs	r3, #8
10008d78:	469c      	mov	ip, r3
10008d7a:	44b4      	add	ip, r6
10008d7c:	4027      	ands	r7, r4
10008d7e:	45e0      	cmp	r8, ip
10008d80:	d06a      	beq.n	10008e58 <_free_r+0x12c>
10008d82:	4643      	mov	r3, r8
10008d84:	68cc      	ldr	r4, [r1, #12]
10008d86:	60dc      	str	r4, [r3, #12]
10008d88:	60a3      	str	r3, [r4, #8]
10008d8a:	2f00      	cmp	r7, #0
10008d8c:	d132      	bne.n	10008df4 <_free_r+0xc8>
10008d8e:	2401      	movs	r4, #1
10008d90:	4448      	add	r0, r9
10008d92:	4304      	orrs	r4, r0
10008d94:	46a0      	mov	r8, r4
10008d96:	6893      	ldr	r3, [r2, #8]
10008d98:	4c54      	ldr	r4, [pc, #336]	; (10008eec <_free_r+0x1c0>)
10008d9a:	180f      	adds	r7, r1, r0
10008d9c:	42a3      	cmp	r3, r4
10008d9e:	d100      	bne.n	10008da2 <_free_r+0x76>
10008da0:	e07f      	b.n	10008ea2 <_free_r+0x176>
10008da2:	68d2      	ldr	r2, [r2, #12]
10008da4:	60da      	str	r2, [r3, #12]
10008da6:	6093      	str	r3, [r2, #8]
10008da8:	4643      	mov	r3, r8
10008daa:	604b      	str	r3, [r1, #4]
10008dac:	6038      	str	r0, [r7, #0]
10008dae:	e025      	b.n	10008dfc <_free_r+0xd0>
10008db0:	0003      	movs	r3, r0
10008db2:	444b      	add	r3, r9
10008db4:	423c      	tst	r4, r7
10008db6:	d106      	bne.n	10008dc6 <_free_r+0x9a>
10008db8:	680a      	ldr	r2, [r1, #0]
10008dba:	1a89      	subs	r1, r1, r2
10008dbc:	6888      	ldr	r0, [r1, #8]
10008dbe:	189b      	adds	r3, r3, r2
10008dc0:	68ca      	ldr	r2, [r1, #12]
10008dc2:	60c2      	str	r2, [r0, #12]
10008dc4:	6090      	str	r0, [r2, #8]
10008dc6:	2201      	movs	r2, #1
10008dc8:	431a      	orrs	r2, r3
10008dca:	604a      	str	r2, [r1, #4]
10008dcc:	4a48      	ldr	r2, [pc, #288]	; (10008ef0 <_free_r+0x1c4>)
10008dce:	60b1      	str	r1, [r6, #8]
10008dd0:	6812      	ldr	r2, [r2, #0]
10008dd2:	429a      	cmp	r2, r3
10008dd4:	d804      	bhi.n	10008de0 <_free_r+0xb4>
10008dd6:	4b47      	ldr	r3, [pc, #284]	; (10008ef4 <_free_r+0x1c8>)
10008dd8:	0028      	movs	r0, r5
10008dda:	6819      	ldr	r1, [r3, #0]
10008ddc:	f7ff ff56 	bl	10008c8c <_malloc_trim_r>
10008de0:	0028      	movs	r0, r5
10008de2:	f7ff ff0d 	bl	10008c00 <__malloc_unlock>
10008de6:	bc0c      	pop	{r2, r3}
10008de8:	4690      	mov	r8, r2
10008dea:	4699      	mov	r9, r3
10008dec:	bdf8      	pop	{r3, r4, r5, r6, r7, pc}
10008dee:	685f      	ldr	r7, [r3, #4]
10008df0:	4027      	ands	r7, r4
10008df2:	d0cc      	beq.n	10008d8e <_free_r+0x62>
10008df4:	2301      	movs	r3, #1
10008df6:	4303      	orrs	r3, r0
10008df8:	604b      	str	r3, [r1, #4]
10008dfa:	5008      	str	r0, [r1, r0]
10008dfc:	4b3e      	ldr	r3, [pc, #248]	; (10008ef8 <_free_r+0x1cc>)
10008dfe:	4298      	cmp	r0, r3
10008e00:	d91a      	bls.n	10008e38 <_free_r+0x10c>
10008e02:	0a43      	lsrs	r3, r0, #9
10008e04:	2b04      	cmp	r3, #4
10008e06:	d833      	bhi.n	10008e70 <_free_r+0x144>
10008e08:	0982      	lsrs	r2, r0, #6
10008e0a:	0014      	movs	r4, r2
10008e0c:	3239      	adds	r2, #57	; 0x39
10008e0e:	3438      	adds	r4, #56	; 0x38
10008e10:	00d2      	lsls	r2, r2, #3
10008e12:	18b2      	adds	r2, r6, r2
10008e14:	3a08      	subs	r2, #8
10008e16:	6893      	ldr	r3, [r2, #8]
10008e18:	2703      	movs	r7, #3
10008e1a:	429a      	cmp	r2, r3
10008e1c:	d039      	beq.n	10008e92 <_free_r+0x166>
10008e1e:	685c      	ldr	r4, [r3, #4]
10008e20:	43bc      	bics	r4, r7
10008e22:	4284      	cmp	r4, r0
10008e24:	d933      	bls.n	10008e8e <_free_r+0x162>
10008e26:	689b      	ldr	r3, [r3, #8]
10008e28:	429a      	cmp	r2, r3
10008e2a:	d1f8      	bne.n	10008e1e <_free_r+0xf2>
10008e2c:	68d3      	ldr	r3, [r2, #12]
10008e2e:	60cb      	str	r3, [r1, #12]
10008e30:	608a      	str	r2, [r1, #8]
10008e32:	6099      	str	r1, [r3, #8]
10008e34:	60d1      	str	r1, [r2, #12]
10008e36:	e7d3      	b.n	10008de0 <_free_r+0xb4>
10008e38:	08c0      	lsrs	r0, r0, #3
10008e3a:	3bff      	subs	r3, #255	; 0xff
10008e3c:	1082      	asrs	r2, r0, #2
10008e3e:	3bff      	subs	r3, #255	; 0xff
10008e40:	4093      	lsls	r3, r2
10008e42:	6872      	ldr	r2, [r6, #4]
10008e44:	00c0      	lsls	r0, r0, #3
10008e46:	4313      	orrs	r3, r2
10008e48:	6073      	str	r3, [r6, #4]
10008e4a:	1986      	adds	r6, r0, r6
10008e4c:	68b3      	ldr	r3, [r6, #8]
10008e4e:	60ce      	str	r6, [r1, #12]
10008e50:	608b      	str	r3, [r1, #8]
10008e52:	60b1      	str	r1, [r6, #8]
10008e54:	60d9      	str	r1, [r3, #12]
10008e56:	e7c3      	b.n	10008de0 <_free_r+0xb4>
10008e58:	2f00      	cmp	r7, #0
10008e5a:	d141      	bne.n	10008ee0 <_free_r+0x1b4>
10008e5c:	0003      	movs	r3, r0
10008e5e:	6890      	ldr	r0, [r2, #8]
10008e60:	444b      	add	r3, r9
10008e62:	68d2      	ldr	r2, [r2, #12]
10008e64:	431c      	orrs	r4, r3
10008e66:	60c2      	str	r2, [r0, #12]
10008e68:	6090      	str	r0, [r2, #8]
10008e6a:	604c      	str	r4, [r1, #4]
10008e6c:	50cb      	str	r3, [r1, r3]
10008e6e:	e7b7      	b.n	10008de0 <_free_r+0xb4>
10008e70:	2b14      	cmp	r3, #20
10008e72:	d907      	bls.n	10008e84 <_free_r+0x158>
10008e74:	2b54      	cmp	r3, #84	; 0x54
10008e76:	d81c      	bhi.n	10008eb2 <_free_r+0x186>
10008e78:	0b02      	lsrs	r2, r0, #12
10008e7a:	0014      	movs	r4, r2
10008e7c:	326f      	adds	r2, #111	; 0x6f
10008e7e:	346e      	adds	r4, #110	; 0x6e
10008e80:	00d2      	lsls	r2, r2, #3
10008e82:	e7c6      	b.n	10008e12 <_free_r+0xe6>
10008e84:	001c      	movs	r4, r3
10008e86:	335c      	adds	r3, #92	; 0x5c
10008e88:	345b      	adds	r4, #91	; 0x5b
10008e8a:	00da      	lsls	r2, r3, #3
10008e8c:	e7c1      	b.n	10008e12 <_free_r+0xe6>
10008e8e:	001a      	movs	r2, r3
10008e90:	e7cc      	b.n	10008e2c <_free_r+0x100>
10008e92:	2301      	movs	r3, #1
10008e94:	10a4      	asrs	r4, r4, #2
10008e96:	40a3      	lsls	r3, r4
10008e98:	6870      	ldr	r0, [r6, #4]
10008e9a:	4303      	orrs	r3, r0
10008e9c:	6073      	str	r3, [r6, #4]
10008e9e:	0013      	movs	r3, r2
10008ea0:	e7c5      	b.n	10008e2e <_free_r+0x102>
10008ea2:	60d9      	str	r1, [r3, #12]
10008ea4:	6099      	str	r1, [r3, #8]
10008ea6:	60cb      	str	r3, [r1, #12]
10008ea8:	608b      	str	r3, [r1, #8]
10008eaa:	4643      	mov	r3, r8
10008eac:	604b      	str	r3, [r1, #4]
10008eae:	6038      	str	r0, [r7, #0]
10008eb0:	e796      	b.n	10008de0 <_free_r+0xb4>
10008eb2:	22aa      	movs	r2, #170	; 0xaa
10008eb4:	0052      	lsls	r2, r2, #1
10008eb6:	4293      	cmp	r3, r2
10008eb8:	d805      	bhi.n	10008ec6 <_free_r+0x19a>
10008eba:	0bc2      	lsrs	r2, r0, #15
10008ebc:	0014      	movs	r4, r2
10008ebe:	3278      	adds	r2, #120	; 0x78
10008ec0:	3477      	adds	r4, #119	; 0x77
10008ec2:	00d2      	lsls	r2, r2, #3
10008ec4:	e7a5      	b.n	10008e12 <_free_r+0xe6>
10008ec6:	4a0d      	ldr	r2, [pc, #52]	; (10008efc <_free_r+0x1d0>)
10008ec8:	4293      	cmp	r3, r2
10008eca:	d805      	bhi.n	10008ed8 <_free_r+0x1ac>
10008ecc:	0c82      	lsrs	r2, r0, #18
10008ece:	0014      	movs	r4, r2
10008ed0:	327d      	adds	r2, #125	; 0x7d
10008ed2:	347c      	adds	r4, #124	; 0x7c
10008ed4:	00d2      	lsls	r2, r2, #3
10008ed6:	e79c      	b.n	10008e12 <_free_r+0xe6>
10008ed8:	22fe      	movs	r2, #254	; 0xfe
10008eda:	247e      	movs	r4, #126	; 0x7e
10008edc:	0092      	lsls	r2, r2, #2
10008ede:	e798      	b.n	10008e12 <_free_r+0xe6>
10008ee0:	4304      	orrs	r4, r0
10008ee2:	604c      	str	r4, [r1, #4]
10008ee4:	6010      	str	r0, [r2, #0]
10008ee6:	e77b      	b.n	10008de0 <_free_r+0xb4>
10008ee8:	200007e8 	.word	0x200007e8
10008eec:	200007f0 	.word	0x200007f0
10008ef0:	200007e4 	.word	0x200007e4
10008ef4:	20000c34 	.word	0x20000c34
10008ef8:	000001ff 	.word	0x000001ff
10008efc:	00000554 	.word	0x00000554

10008f00 <_fini>:
10008f00:	b5f8      	push	{r3, r4, r5, r6, r7, lr}
10008f02:	46c0      	nop			; (mov r8, r8)
10008f04:	0000      	movs	r0, r0
	...

10008f08 <__spi_read_blocking_veneer>:
10008f08:	b401      	push	{r0}
10008f0a:	4802      	ldr	r0, [pc, #8]	; (10008f14 <__spi_read_blocking_veneer+0xc>)
10008f0c:	4684      	mov	ip, r0
10008f0e:	bc01      	pop	{r0}
10008f10:	4760      	bx	ip
10008f12:	bf00      	nop
10008f14:	20000261 	.word	0x20000261

10008f18 <__mutex_exit_veneer>:
10008f18:	b401      	push	{r0}
10008f1a:	4802      	ldr	r0, [pc, #8]	; (10008f24 <__mutex_exit_veneer+0xc>)
10008f1c:	4684      	mov	ip, r0
10008f1e:	bc01      	pop	{r0}
10008f20:	4760      	bx	ip
10008f22:	bf00      	nop
10008f24:	200001ed 	.word	0x200001ed

10008f28 <____aeabi_ldiv0_veneer>:
10008f28:	b401      	push	{r0}
10008f2a:	4802      	ldr	r0, [pc, #8]	; (10008f34 <____aeabi_ldiv0_veneer+0xc>)
10008f2c:	4684      	mov	ip, r0
10008f2e:	bc01      	pop	{r0}
10008f30:	4760      	bx	ip
10008f32:	bf00      	nop
10008f34:	200002a5 	.word	0x200002a5

10008f38 <____aeabi_idiv0_veneer>:
10008f38:	b401      	push	{r0}
10008f3a:	4802      	ldr	r0, [pc, #8]	; (10008f44 <____aeabi_idiv0_veneer+0xc>)
10008f3c:	4684      	mov	ip, r0
10008f3e:	bc01      	pop	{r0}
10008f40:	4760      	bx	ip
10008f42:	bf00      	nop
10008f44:	200002a5 	.word	0x200002a5

10008f48 <__mutex_try_enter_veneer>:
10008f48:	b401      	push	{r0}
10008f4a:	4802      	ldr	r0, [pc, #8]	; (10008f54 <__mutex_try_enter_veneer+0xc>)
10008f4c:	4684      	mov	ip, r0
10008f4e:	bc01      	pop	{r0}
10008f50:	4760      	bx	ip
10008f52:	bf00      	nop
10008f54:	2000010d 	.word	0x2000010d

10008f58 <__mutex_enter_timeout_ms_veneer>:
10008f58:	b401      	push	{r0}
10008f5a:	4802      	ldr	r0, [pc, #8]	; (10008f64 <__mutex_enter_timeout_ms_veneer+0xc>)
10008f5c:	4684      	mov	ip, r0
10008f5e:	bc01      	pop	{r0}
10008f60:	4760      	bx	ip
10008f62:	bf00      	nop
10008f64:	20000155 	.word	0x20000155

10008f68 <__spi_write_blocking_veneer>:
10008f68:	b401      	push	{r0}
10008f6a:	4802      	ldr	r0, [pc, #8]	; (10008f74 <__spi_write_blocking_veneer+0xc>)
10008f6c:	4684      	mov	ip, r0
10008f6e:	bc01      	pop	{r0}
10008f70:	4760      	bx	ip
10008f72:	bf00      	nop
10008f74:	20000215 	.word	0x20000215

10008f78 <__mutex_enter_blocking_veneer>:
10008f78:	b401      	push	{r0}
10008f7a:	4802      	ldr	r0, [pc, #8]	; (10008f84 <__mutex_enter_blocking_veneer+0xc>)
10008f7c:	4684      	mov	ip, r0
10008f7e:	bc01      	pop	{r0}
10008f80:	4760      	bx	ip
10008f82:	bf00      	nop
10008f84:	200000c1 	.word	0x200000c1

Disassembly of section .data:

200000c0 <mutex_enter_blocking>:
200000c0:	b510      	push	{r4, lr}
200000c2:	6802      	ldr	r2, [r0, #0]
200000c4:	2400      	movs	r4, #0
200000c6:	f3ef 8110 	mrs	r1, PRIMASK
200000ca:	b672      	cpsid	i
200000cc:	6813      	ldr	r3, [r2, #0]
200000ce:	2b00      	cmp	r3, #0
200000d0:	d0fc      	beq.n	200000cc <mutex_enter_blocking+0xc>
200000d2:	f3bf 8f5f 	dmb	sy
200000d6:	7903      	ldrb	r3, [r0, #4]
200000d8:	2b7f      	cmp	r3, #127	; 0x7f
200000da:	d80b      	bhi.n	200000f4 <mutex_enter_blocking+0x34>
200000dc:	6803      	ldr	r3, [r0, #0]
200000de:	f3bf 8f5f 	dmb	sy
200000e2:	601c      	str	r4, [r3, #0]
200000e4:	f381 8810 	msr	PRIMASK, r1
200000e8:	bf20      	wfe
200000ea:	6802      	ldr	r2, [r0, #0]
200000ec:	f3ef 8110 	mrs	r1, PRIMASK
200000f0:	b672      	cpsid	i
200000f2:	e7eb      	b.n	200000cc <mutex_enter_blocking+0xc>
200000f4:	23d0      	movs	r3, #208	; 0xd0
200000f6:	061b      	lsls	r3, r3, #24
200000f8:	681b      	ldr	r3, [r3, #0]
200000fa:	7103      	strb	r3, [r0, #4]
200000fc:	6803      	ldr	r3, [r0, #0]
200000fe:	f3bf 8f5f 	dmb	sy
20000102:	2200      	movs	r2, #0
20000104:	601a      	str	r2, [r3, #0]
20000106:	f381 8810 	msr	PRIMASK, r1
2000010a:	bd10      	pop	{r4, pc}

2000010c <mutex_try_enter>:
2000010c:	0003      	movs	r3, r0
2000010e:	b510      	push	{r4, lr}
20000110:	6800      	ldr	r0, [r0, #0]
20000112:	f3ef 8410 	mrs	r4, PRIMASK
20000116:	b672      	cpsid	i
20000118:	6802      	ldr	r2, [r0, #0]
2000011a:	2a00      	cmp	r2, #0
2000011c:	d0fc      	beq.n	20000118 <mutex_try_enter+0xc>
2000011e:	f3bf 8f5f 	dmb	sy
20000122:	2204      	movs	r2, #4
20000124:	569a      	ldrsb	r2, [r3, r2]
20000126:	2a00      	cmp	r2, #0
20000128:	db0b      	blt.n	20000142 <mutex_try_enter+0x36>
2000012a:	2900      	cmp	r1, #0
2000012c:	d00f      	beq.n	2000014e <mutex_try_enter+0x42>
2000012e:	2000      	movs	r0, #0
20000130:	600a      	str	r2, [r1, #0]
20000132:	681b      	ldr	r3, [r3, #0]
20000134:	f3bf 8f5f 	dmb	sy
20000138:	2200      	movs	r2, #0
2000013a:	601a      	str	r2, [r3, #0]
2000013c:	f384 8810 	msr	PRIMASK, r4
20000140:	bd10      	pop	{r4, pc}
20000142:	22d0      	movs	r2, #208	; 0xd0
20000144:	0612      	lsls	r2, r2, #24
20000146:	6812      	ldr	r2, [r2, #0]
20000148:	2001      	movs	r0, #1
2000014a:	711a      	strb	r2, [r3, #4]
2000014c:	e7f1      	b.n	20000132 <mutex_try_enter+0x26>
2000014e:	2000      	movs	r0, #0
20000150:	e7ef      	b.n	20000132 <mutex_try_enter+0x26>
20000152:	46c0      	nop			; (mov r8, r8)

20000154 <mutex_enter_timeout_ms>:
20000154:	b5f0      	push	{r4, r5, r6, r7, lr}
20000156:	46c6      	mov	lr, r8
20000158:	b500      	push	{lr}
2000015a:	000c      	movs	r4, r1
2000015c:	4680      	mov	r8, r0
2000015e:	f000 f8ab 	bl	200002b8 <__time_us_64_veneer>
20000162:	22fa      	movs	r2, #250	; 0xfa
20000164:	0006      	movs	r6, r0
20000166:	000f      	movs	r7, r1
20000168:	0020      	movs	r0, r4
2000016a:	0092      	lsls	r2, r2, #2
2000016c:	2300      	movs	r3, #0
2000016e:	2100      	movs	r1, #0
20000170:	f000 f8aa 	bl	200002c8 <____wrap___aeabi_lmul_veneer>
20000174:	1980      	adds	r0, r0, r6
20000176:	4179      	adcs	r1, r7
20000178:	0004      	movs	r4, r0
2000017a:	000d      	movs	r5, r1
2000017c:	428f      	cmp	r7, r1
2000017e:	d920      	bls.n	200001c2 <mutex_enter_timeout_ms+0x6e>
20000180:	2401      	movs	r4, #1
20000182:	4264      	negs	r4, r4
20000184:	17e5      	asrs	r5, r4, #31
20000186:	2600      	movs	r6, #0
20000188:	4643      	mov	r3, r8
2000018a:	681a      	ldr	r2, [r3, #0]
2000018c:	f3ef 8110 	mrs	r1, PRIMASK
20000190:	b672      	cpsid	i
20000192:	6813      	ldr	r3, [r2, #0]
20000194:	2b00      	cmp	r3, #0
20000196:	d0fc      	beq.n	20000192 <mutex_enter_timeout_ms+0x3e>
20000198:	f3bf 8f5f 	dmb	sy
2000019c:	4643      	mov	r3, r8
2000019e:	791b      	ldrb	r3, [r3, #4]
200001a0:	2b7f      	cmp	r3, #127	; 0x7f
200001a2:	d813      	bhi.n	200001cc <mutex_enter_timeout_ms+0x78>
200001a4:	4643      	mov	r3, r8
200001a6:	681b      	ldr	r3, [r3, #0]
200001a8:	f3bf 8f5f 	dmb	sy
200001ac:	601e      	str	r6, [r3, #0]
200001ae:	f381 8810 	msr	PRIMASK, r1
200001b2:	0020      	movs	r0, r4
200001b4:	0029      	movs	r1, r5
200001b6:	f000 f877 	bl	200002a8 <__best_effort_wfe_or_timeout_veneer>
200001ba:	2800      	cmp	r0, #0
200001bc:	d0e4      	beq.n	20000188 <mutex_enter_timeout_ms+0x34>
200001be:	2000      	movs	r0, #0
200001c0:	e011      	b.n	200001e6 <mutex_enter_timeout_ms+0x92>
200001c2:	428f      	cmp	r7, r1
200001c4:	d1df      	bne.n	20000186 <mutex_enter_timeout_ms+0x32>
200001c6:	4286      	cmp	r6, r0
200001c8:	d8da      	bhi.n	20000180 <mutex_enter_timeout_ms+0x2c>
200001ca:	e7dc      	b.n	20000186 <mutex_enter_timeout_ms+0x32>
200001cc:	23d0      	movs	r3, #208	; 0xd0
200001ce:	4642      	mov	r2, r8
200001d0:	061b      	lsls	r3, r3, #24
200001d2:	681b      	ldr	r3, [r3, #0]
200001d4:	7113      	strb	r3, [r2, #4]
200001d6:	6813      	ldr	r3, [r2, #0]
200001d8:	f3bf 8f5f 	dmb	sy
200001dc:	2200      	movs	r2, #0
200001de:	601a      	str	r2, [r3, #0]
200001e0:	f381 8810 	msr	PRIMASK, r1
200001e4:	2001      	movs	r0, #1
200001e6:	bc04      	pop	{r2}
200001e8:	4690      	mov	r8, r2
200001ea:	bdf0      	pop	{r4, r5, r6, r7, pc}

200001ec <mutex_exit>:
200001ec:	6802      	ldr	r2, [r0, #0]
200001ee:	f3ef 8110 	mrs	r1, PRIMASK
200001f2:	b672      	cpsid	i
200001f4:	6813      	ldr	r3, [r2, #0]
200001f6:	2b00      	cmp	r3, #0
200001f8:	d0fc      	beq.n	200001f4 <mutex_exit+0x8>
200001fa:	f3bf 8f5f 	dmb	sy
200001fe:	23ff      	movs	r3, #255	; 0xff
20000200:	7103      	strb	r3, [r0, #4]
20000202:	bf40      	sev
20000204:	6803      	ldr	r3, [r0, #0]
20000206:	f3bf 8f5f 	dmb	sy
2000020a:	2200      	movs	r2, #0
2000020c:	601a      	str	r2, [r3, #0]
2000020e:	f381 8810 	msr	PRIMASK, r1
20000212:	4770      	bx	lr

20000214 <spi_write_blocking>:
20000214:	b530      	push	{r4, r5, lr}
20000216:	0003      	movs	r3, r0
20000218:	2a00      	cmp	r2, #0
2000021a:	d009      	beq.n	20000230 <spi_write_blocking+0x1c>
2000021c:	2502      	movs	r5, #2
2000021e:	1888      	adds	r0, r1, r2
20000220:	68dc      	ldr	r4, [r3, #12]
20000222:	4225      	tst	r5, r4
20000224:	d0fc      	beq.n	20000220 <spi_write_blocking+0xc>
20000226:	780c      	ldrb	r4, [r1, #0]
20000228:	3101      	adds	r1, #1
2000022a:	609c      	str	r4, [r3, #8]
2000022c:	4281      	cmp	r1, r0
2000022e:	d1f7      	bne.n	20000220 <spi_write_blocking+0xc>
20000230:	68d9      	ldr	r1, [r3, #12]
20000232:	0749      	lsls	r1, r1, #29
20000234:	d504      	bpl.n	20000240 <spi_write_blocking+0x2c>
20000236:	2404      	movs	r4, #4
20000238:	6899      	ldr	r1, [r3, #8]
2000023a:	68d9      	ldr	r1, [r3, #12]
2000023c:	420c      	tst	r4, r1
2000023e:	d1fb      	bne.n	20000238 <spi_write_blocking+0x24>
20000240:	2410      	movs	r4, #16
20000242:	68d9      	ldr	r1, [r3, #12]
20000244:	420c      	tst	r4, r1
20000246:	d1fc      	bne.n	20000242 <spi_write_blocking+0x2e>
20000248:	68d9      	ldr	r1, [r3, #12]
2000024a:	0749      	lsls	r1, r1, #29
2000024c:	d504      	bpl.n	20000258 <spi_write_blocking+0x44>
2000024e:	2404      	movs	r4, #4
20000250:	6899      	ldr	r1, [r3, #8]
20000252:	68d9      	ldr	r1, [r3, #12]
20000254:	420c      	tst	r4, r1
20000256:	d1fb      	bne.n	20000250 <spi_write_blocking+0x3c>
20000258:	2101      	movs	r1, #1
2000025a:	0010      	movs	r0, r2
2000025c:	6219      	str	r1, [r3, #32]
2000025e:	bd30      	pop	{r4, r5, pc}

20000260 <spi_read_blocking>:
20000260:	b5f0      	push	{r4, r5, r6, r7, lr}
20000262:	468c      	mov	ip, r1
20000264:	001d      	movs	r5, r3
20000266:	001c      	movs	r4, r3
20000268:	2102      	movs	r1, #2
2000026a:	2704      	movs	r7, #4
2000026c:	0026      	movs	r6, r4
2000026e:	432e      	orrs	r6, r5
20000270:	d016      	beq.n	200002a0 <spi_read_blocking+0x40>
20000272:	2d00      	cmp	r5, #0
20000274:	d008      	beq.n	20000288 <spi_read_blocking+0x28>
20000276:	68c6      	ldr	r6, [r0, #12]
20000278:	4231      	tst	r1, r6
2000027a:	d005      	beq.n	20000288 <spi_read_blocking+0x28>
2000027c:	1b66      	subs	r6, r4, r5
2000027e:	2e07      	cmp	r6, #7
20000280:	d802      	bhi.n	20000288 <spi_read_blocking+0x28>
20000282:	4666      	mov	r6, ip
20000284:	3d01      	subs	r5, #1
20000286:	6086      	str	r6, [r0, #8]
20000288:	2c00      	cmp	r4, #0
2000028a:	d0ef      	beq.n	2000026c <spi_read_blocking+0xc>
2000028c:	68c6      	ldr	r6, [r0, #12]
2000028e:	4237      	tst	r7, r6
20000290:	d0ec      	beq.n	2000026c <spi_read_blocking+0xc>
20000292:	6886      	ldr	r6, [r0, #8]
20000294:	3c01      	subs	r4, #1
20000296:	7016      	strb	r6, [r2, #0]
20000298:	0026      	movs	r6, r4
2000029a:	3201      	adds	r2, #1
2000029c:	432e      	orrs	r6, r5
2000029e:	d1e8      	bne.n	20000272 <spi_read_blocking+0x12>
200002a0:	0018      	movs	r0, r3
200002a2:	bdf0      	pop	{r4, r5, r6, r7, pc}

200002a4 <__aeabi_idiv0>:
200002a4:	4770      	bx	lr
200002a6:	46c0      	nop			; (mov r8, r8)

200002a8 <__best_effort_wfe_or_timeout_veneer>:
200002a8:	b401      	push	{r0}
200002aa:	4802      	ldr	r0, [pc, #8]	; (200002b4 <__best_effort_wfe_or_timeout_veneer+0xc>)
200002ac:	4684      	mov	ip, r0
200002ae:	bc01      	pop	{r0}
200002b0:	4760      	bx	ip
200002b2:	bf00      	nop
200002b4:	100014d1 	.word	0x100014d1

200002b8 <__time_us_64_veneer>:
200002b8:	b401      	push	{r0}
200002ba:	4802      	ldr	r0, [pc, #8]	; (200002c4 <__time_us_64_veneer+0xc>)
200002bc:	4684      	mov	ip, r0
200002be:	bc01      	pop	{r0}
200002c0:	4760      	bx	ip
200002c2:	bf00      	nop
200002c4:	10001769 	.word	0x10001769

200002c8 <____wrap___aeabi_lmul_veneer>:
200002c8:	b401      	push	{r0}
200002ca:	4802      	ldr	r0, [pc, #8]	; (200002d4 <____wrap___aeabi_lmul_veneer+0xc>)
200002cc:	4684      	mov	ip, r0
200002ce:	bc01      	pop	{r0}
200002d0:	4760      	bx	ip
200002d2:	bf00      	nop
200002d4:	10005275 	.word	0x10005275

200002d8 <_ZZ8GetImagePN6tflite13ErrorReporterEiiiPaE5first>:
200002d8:	                                         .

200002d9 <striped_spin_lock_num>:
200002d9:	                                         ...

200002dc <irq_handler_chain_slots>:
200002dc:	00000000 	.word	0x00000000
200002e0:	00010000 	.word	0x00010000
	...
200002ec:	00020000 	.word	0x00020000
	...
200002f8:	00030000 	.word	0x00030000
	...
20000304:	00ff0000 	.word	0x00ff0000
20000308:	00000000 	.word	0x00000000

2000030c <irq_handler_chain_first_slot>:
2000030c:	b500      	push	{lr}
2000030e:	6848      	ldr	r0, [r1, #4]
20000310:	3101      	adds	r1, #1
20000312:	468e      	mov	lr, r1
20000314:	4700      	bx	r0

20000316 <irq_handler_chain_remove_tail>:
20000316:	4670      	mov	r0, lr
20000318:	3809      	subs	r0, #9
2000031a:	4901      	ldr	r1, [pc, #4]	; (20000320 <irq_handler_chain_remove_tail+0xa>)
2000031c:	4788      	blx	r1
2000031e:	bd00      	pop	{pc}
20000320:	1000266d 	.word	0x1000266d
	...

20000330 <aeabi_bits_funcs>:
20000330:	00003350 	.word	0x00003350
20000334:	0000334c 	.word	0x0000334c
20000338:	00003354 	.word	0x00003354
2000033c:	00003352 	.word	0x00003352

20000340 <aeabi_bits_funcs_end>:
20000340:	0000534d 	.word	0x0000534d
20000344:	0000434d 	.word	0x0000434d
20000348:	00003453 	.word	0x00003453
2000034c:	00003443 	.word	0x00003443

20000350 <stdio_usb>:
20000350:	100058b1 00000000 10005819 00000000     .X.......X......
20000360:	00000100                                ....

20000364 <ep_dir_string>:
20000364:	100095a8 100095ac                       ........

2000036c <_usbd_qdef>:
2000036c:	20001928 000c0010 00000000 00000000     (.. ............
	...

2000038c <i2c0_inst>:
2000038c:	40044000 00000000                       .@.@....

20000394 <arducam>:
20000394:	00000030 10007d85 10007e89 10007df5     0....}...~...}..
200003a4:	10007ef5 10008191 00000000              .~..........

200003b0 <_impure_ptr>:
200003b0:	200003b8 00000000                       ... ....

200003b8 <impure_data>:
200003b8:	00000000 200006a4 2000070c 20000774     ....... ... t.. 
	...
20000460:	00000001 00000000 abcd330e e66d1234     .........3..4.m.
20000470:	0005deec 0000000b 00000000 00000000     ................
	...

200007e0 <__malloc_sbrk_base>:
200007e0:	ffffffff                                ....

200007e4 <__malloc_trim_threshold>:
200007e4:	00020000                                ....

200007e8 <__malloc_av_>:
	...
200007f0:	200007e8 200007e8 200007f0 200007f0     ... ... ... ... 
20000800:	200007f8 200007f8 20000800 20000800     ... ... ... ... 
20000810:	20000808 20000808 20000810 20000810     ... ... ... ... 
20000820:	20000818 20000818 20000820 20000820     ... ...  ..  .. 
20000830:	20000828 20000828 20000830 20000830     (.. (.. 0.. 0.. 
20000840:	20000838 20000838 20000840 20000840     8.. 8.. @.. @.. 
20000850:	20000848 20000848 20000850 20000850     H.. H.. P.. P.. 
20000860:	20000858 20000858 20000860 20000860     X.. X.. `.. `.. 
20000870:	20000868 20000868 20000870 20000870     h.. h.. p.. p.. 
20000880:	20000878 20000878 20000880 20000880     x.. x.. ... ... 
20000890:	20000888 20000888 20000890 20000890     ... ... ... ... 
200008a0:	20000898 20000898 200008a0 200008a0     ... ... ... ... 
200008b0:	200008a8 200008a8 200008b0 200008b0     ... ... ... ... 
200008c0:	200008b8 200008b8 200008c0 200008c0     ... ... ... ... 
200008d0:	200008c8 200008c8 200008d0 200008d0     ... ... ... ... 
200008e0:	200008d8 200008d8 200008e0 200008e0     ... ... ... ... 
200008f0:	200008e8 200008e8 200008f0 200008f0     ... ... ... ... 
20000900:	200008f8 200008f8 20000900 20000900     ... ... ... ... 
20000910:	20000908 20000908 20000910 20000910     ... ... ... ... 
20000920:	20000918 20000918 20000920 20000920     ... ...  ..  .. 
20000930:	20000928 20000928 20000930 20000930     (.. (.. 0.. 0.. 
20000940:	20000938 20000938 20000940 20000940     8.. 8.. @.. @.. 
20000950:	20000948 20000948 20000950 20000950     H.. H.. P.. P.. 
20000960:	20000958 20000958 20000960 20000960     X.. X.. `.. `.. 
20000970:	20000968 20000968 20000970 20000970     h.. h.. p.. p.. 
20000980:	20000978 20000978 20000980 20000980     x.. x.. ... ... 
20000990:	20000988 20000988 20000990 20000990     ... ... ... ... 
200009a0:	20000998 20000998 200009a0 200009a0     ... ... ... ... 
200009b0:	200009a8 200009a8 200009b0 200009b0     ... ... ... ... 
200009c0:	200009b8 200009b8 200009c0 200009c0     ... ... ... ... 
200009d0:	200009c8 200009c8 200009d0 200009d0     ... ... ... ... 
200009e0:	200009d8 200009d8 200009e0 200009e0     ... ... ... ... 
200009f0:	200009e8 200009e8 200009f0 200009f0     ... ... ... ... 
20000a00:	200009f8 200009f8 20000a00 20000a00     ... ... ... ... 
20000a10:	20000a08 20000a08 20000a10 20000a10     ... ... ... ... 
20000a20:	20000a18 20000a18 20000a20 20000a20     ... ...  ..  .. 
20000a30:	20000a28 20000a28 20000a30 20000a30     (.. (.. 0.. 0.. 
20000a40:	20000a38 20000a38 20000a40 20000a40     8.. 8.. @.. @.. 
20000a50:	20000a48 20000a48 20000a50 20000a50     H.. H.. P.. P.. 
20000a60:	20000a58 20000a58 20000a60 20000a60     X.. X.. `.. `.. 
20000a70:	20000a68 20000a68 20000a70 20000a70     h.. h.. p.. p.. 
20000a80:	20000a78 20000a78 20000a80 20000a80     x.. x.. ... ... 
20000a90:	20000a88 20000a88 20000a90 20000a90     ... ... ... ... 
20000aa0:	20000a98 20000a98 20000aa0 20000aa0     ... ... ... ... 
20000ab0:	20000aa8 20000aa8 20000ab0 20000ab0     ... ... ... ... 
20000ac0:	20000ab8 20000ab8 20000ac0 20000ac0     ... ... ... ... 
20000ad0:	20000ac8 20000ac8 20000ad0 20000ad0     ... ... ... ... 
20000ae0:	20000ad8 20000ad8 20000ae0 20000ae0     ... ... ... ... 
20000af0:	20000ae8 20000ae8 20000af0 20000af0     ... ... ... ... 
20000b00:	20000af8 20000af8 20000b00 20000b00     ... ... ... ... 
20000b10:	20000b08 20000b08 20000b10 20000b10     ... ... ... ... 
20000b20:	20000b18 20000b18 20000b20 20000b20     ... ...  ..  .. 
20000b30:	20000b28 20000b28 20000b30 20000b30     (.. (.. 0.. 0.. 
20000b40:	20000b38 20000b38 20000b40 20000b40     8.. 8.. @.. @.. 
20000b50:	20000b48 20000b48 20000b50 20000b50     H.. H.. P.. P.. 
20000b60:	20000b58 20000b58 20000b60 20000b60     X.. X.. `.. `.. 
20000b70:	20000b68 20000b68 20000b70 20000b70     h.. h.. p.. p.. 
20000b80:	20000b78 20000b78 20000b80 20000b80     x.. x.. ... ... 
20000b90:	20000b88 20000b88 20000b90 20000b90     ... ... ... ... 
20000ba0:	20000b98 20000b98 20000ba0 20000ba0     ... ... ... ... 
20000bb0:	20000ba8 20000ba8 20000bb0 20000bb0     ... ... ... ... 
20000bc0:	20000bb8 20000bb8 20000bc0 20000bc0     ... ... ... ... 
20000bd0:	20000bc8 20000bc8 20000bd0 20000bd0     ... ... ... ... 
20000be0:	20000bd8 20000bd8 20000be0 20000be0     ... ... ... ... 

20000bf0 <print_mutex>:
	...

20000bf8 <__mutex_array_end>:
20000bf8:	100053ed 	.word	0x100053ed
20000bfc:	100044f9 	.word	0x100044f9
20000c00:	10004bf5 	.word	0x10004bf5
20000c04:	10005349 	.word	0x10005349

20000c08 <__frame_dummy_init_array_entry>:
20000c08:	10000339 100085c9                       9.......
